
C:/Users/artel/source/repos/QuadPico/build/main.elf:     file format elf32-littlearm

Sections:
Idx Name          Size      VMA       LMA       File off  Algn
  0 .boot2        00000100  10000000  10000000  00001000  2**0
                  CONTENTS, ALLOC, LOAD, READONLY, CODE
  1 .text         000131a0  10000100  10000100  00001100  2**4
                  CONTENTS, ALLOC, LOAD, READONLY, CODE
  2 .rodata       000054e4  100132a0  100132a0  000142a0  2**3
                  CONTENTS, ALLOC, LOAD, READONLY, DATA
  3 .ARM.extab    00000164  10018784  10018784  00019784  2**2
                  CONTENTS, ALLOC, LOAD, READONLY, DATA
  4 .ARM.exidx    00000230  100188e8  100188e8  000198e8  2**2
                  CONTENTS, ALLOC, LOAD, READONLY, DATA
  5 .binary_info  00000024  10018b18  10018b18  00019b18  2**2
                  CONTENTS, ALLOC, LOAD, READONLY, DATA
  6 .ram_vector_table 000000c0  20000000  20000000  0001c000  2**2
                  ALLOC
  7 .data         00001bb0  200000c0  10018b3c  0001a0c0  2**4
                  CONTENTS, ALLOC, LOAD, READONLY, CODE
  8 .uninitialized_data 00000000  20001c70  20001c70  0001bc70  2**0
                  CONTENTS
  9 .scratch_x    00000000  20040000  20040000  0001bc70  2**0
                  CONTENTS
 10 .scratch_y    00000000  20041000  20041000  0001bc70  2**0
                  CONTENTS
 11 .bss          00020a04  20001c70  20001c70  0001c000  2**3
                  ALLOC
 12 .heap         00000800  20022674  20022674  0001bc70  2**2
                  CONTENTS, READONLY
 13 .stack1_dummy 00000800  20040000  20040000  0001c000  2**2
                  ALLOC
 14 .stack_dummy  00000800  20041000  20041000  0001c480  2**5
                  CONTENTS, READONLY
 15 .ARM.attributes 00000028  00000000  00000000  0001cc80  2**0
                  CONTENTS, READONLY
 16 .comment      00000049  00000000  00000000  0001cca8  2**0
                  CONTENTS, READONLY
 17 .debug_info   001038b7  00000000  00000000  0001ccf1  2**0
                  CONTENTS, READONLY, DEBUGGING, OCTETS
 18 .debug_abbrev 000097b0  00000000  00000000  001205a8  2**0
                  CONTENTS, READONLY, DEBUGGING, OCTETS
 19 .debug_loc    000806e9  00000000  00000000  00129d58  2**0
                  CONTENTS, READONLY, DEBUGGING, OCTETS
 20 .debug_aranges 00001f60  00000000  00000000  001aa448  2**3
                  CONTENTS, READONLY, DEBUGGING, OCTETS
 21 .debug_ranges 0000bc40  00000000  00000000  001ac3a8  2**3
                  CONTENTS, READONLY, DEBUGGING, OCTETS
 22 .debug_line   0003bb54  00000000  00000000  001b7fe8  2**0
                  CONTENTS, READONLY, DEBUGGING, OCTETS
 23 .debug_str    00162d23  00000000  00000000  001f3b3c  2**0
                  CONTENTS, READONLY, DEBUGGING, OCTETS
 24 .debug_frame  00010728  00000000  00000000  00356860  2**2
                  CONTENTS, READONLY, DEBUGGING, OCTETS

C:/Users/artel/source/repos/QuadPico/build/main.elf:     file format elf32-littlearm


Disassembly of section .boot2:

10000000 <__boot2_start__>:
10000000:	4b32b500 	.word	0x4b32b500
10000004:	60582021 	.word	0x60582021
10000008:	21026898 	.word	0x21026898
1000000c:	60984388 	.word	0x60984388
10000010:	611860d8 	.word	0x611860d8
10000014:	4b2e6158 	.word	0x4b2e6158
10000018:	60992100 	.word	0x60992100
1000001c:	61592102 	.word	0x61592102
10000020:	22f02101 	.word	0x22f02101
10000024:	492b5099 	.word	0x492b5099
10000028:	21016019 	.word	0x21016019
1000002c:	20356099 	.word	0x20356099
10000030:	f844f000 	.word	0xf844f000
10000034:	42902202 	.word	0x42902202
10000038:	2106d014 	.word	0x2106d014
1000003c:	f0006619 	.word	0xf0006619
10000040:	6e19f834 	.word	0x6e19f834
10000044:	66192101 	.word	0x66192101
10000048:	66182000 	.word	0x66182000
1000004c:	f000661a 	.word	0xf000661a
10000050:	6e19f82c 	.word	0x6e19f82c
10000054:	6e196e19 	.word	0x6e196e19
10000058:	f0002005 	.word	0xf0002005
1000005c:	2101f82f 	.word	0x2101f82f
10000060:	d1f94208 	.word	0xd1f94208
10000064:	60992100 	.word	0x60992100
10000068:	6019491b 	.word	0x6019491b
1000006c:	60592100 	.word	0x60592100
10000070:	481b491a 	.word	0x481b491a
10000074:	21016001 	.word	0x21016001
10000078:	21eb6099 	.word	0x21eb6099
1000007c:	21a06619 	.word	0x21a06619
10000080:	f0006619 	.word	0xf0006619
10000084:	2100f812 	.word	0x2100f812
10000088:	49166099 	.word	0x49166099
1000008c:	60014814 	.word	0x60014814
10000090:	60992101 	.word	0x60992101
10000094:	2800bc01 	.word	0x2800bc01
10000098:	4700d000 	.word	0x4700d000
1000009c:	49134812 	.word	0x49134812
100000a0:	c8036008 	.word	0xc8036008
100000a4:	8808f380 	.word	0x8808f380
100000a8:	b5034708 	.word	0xb5034708
100000ac:	20046a99 	.word	0x20046a99
100000b0:	d0fb4201 	.word	0xd0fb4201
100000b4:	42012001 	.word	0x42012001
100000b8:	bd03d1f8 	.word	0xbd03d1f8
100000bc:	6618b502 	.word	0x6618b502
100000c0:	f7ff6618 	.word	0xf7ff6618
100000c4:	6e18fff2 	.word	0x6e18fff2
100000c8:	bd026e18 	.word	0xbd026e18
100000cc:	40020000 	.word	0x40020000
100000d0:	18000000 	.word	0x18000000
100000d4:	00070000 	.word	0x00070000
100000d8:	005f0300 	.word	0x005f0300
100000dc:	00002221 	.word	0x00002221
100000e0:	180000f4 	.word	0x180000f4
100000e4:	a0002022 	.word	0xa0002022
100000e8:	10000100 	.word	0x10000100
100000ec:	e000ed08 	.word	0xe000ed08
	...
100000fc:	7a4eb274 	.word	0x7a4eb274

Disassembly of section .text:

10000100 <__VECTOR_TABLE>:
10000100:	20042000 	.word	0x20042000
10000104:	100001f7 	.word	0x100001f7
10000108:	100001c3 	.word	0x100001c3
1000010c:	100001c5 	.word	0x100001c5
10000110:	100001c1 	.word	0x100001c1
10000114:	100001c1 	.word	0x100001c1
10000118:	100001c1 	.word	0x100001c1
1000011c:	100001c1 	.word	0x100001c1
10000120:	100001c1 	.word	0x100001c1
10000124:	100001c1 	.word	0x100001c1
10000128:	100001c1 	.word	0x100001c1
1000012c:	100001c7 	.word	0x100001c7
10000130:	100001c1 	.word	0x100001c1
10000134:	100001c1 	.word	0x100001c1
10000138:	100001c9 	.word	0x100001c9
1000013c:	100001cb 	.word	0x100001cb
10000140:	100001cd 	.word	0x100001cd
10000144:	100001cd 	.word	0x100001cd
10000148:	100001cd 	.word	0x100001cd
1000014c:	100001cd 	.word	0x100001cd
10000150:	100001cd 	.word	0x100001cd
10000154:	100001cd 	.word	0x100001cd
10000158:	100001cd 	.word	0x100001cd
1000015c:	100001cd 	.word	0x100001cd
10000160:	100001cd 	.word	0x100001cd
10000164:	100001cd 	.word	0x100001cd
10000168:	100001cd 	.word	0x100001cd
1000016c:	100001cd 	.word	0x100001cd
10000170:	100001cd 	.word	0x100001cd
10000174:	100001cd 	.word	0x100001cd
10000178:	100001cd 	.word	0x100001cd
1000017c:	100001cd 	.word	0x100001cd
10000180:	100001cd 	.word	0x100001cd
10000184:	100001cd 	.word	0x100001cd
10000188:	100001cd 	.word	0x100001cd
1000018c:	100001cd 	.word	0x100001cd
10000190:	100001cd 	.word	0x100001cd
10000194:	100001cd 	.word	0x100001cd
10000198:	100001cd 	.word	0x100001cd
1000019c:	100001cd 	.word	0x100001cd
100001a0:	100001cd 	.word	0x100001cd
100001a4:	100001cd 	.word	0x100001cd
100001a8:	100001cd 	.word	0x100001cd
100001ac:	100001cd 	.word	0x100001cd
100001b0:	100001cd 	.word	0x100001cd
100001b4:	100001cd 	.word	0x100001cd
100001b8:	100001cd 	.word	0x100001cd
100001bc:	100001cd 	.word	0x100001cd

100001c0 <isr_invalid>:
100001c0:	be00      	bkpt	0x0000

100001c2 <isr_nmi>:
100001c2:	be00      	bkpt	0x0000

100001c4 <isr_hardfault>:
100001c4:	be00      	bkpt	0x0000

100001c6 <isr_svcall>:
100001c6:	be00      	bkpt	0x0000

100001c8 <isr_pendsv>:
100001c8:	be00      	bkpt	0x0000

100001ca <isr_systick>:
100001ca:	be00      	bkpt	0x0000

100001cc <__unhandled_user_irq>:
100001cc:	f3ef 8005 	mrs	r0, IPSR
100001d0:	3810      	subs	r0, #16

100001d2 <unhandled_user_irq_num_in_r0>:
100001d2:	be00      	bkpt	0x0000

100001d4 <binary_info_header>:
100001d4:	7188ebf2 	.word	0x7188ebf2
100001d8:	10018b18 	.word	0x10018b18
100001dc:	10018b3c 	.word	0x10018b3c
100001e0:	10000234 	.word	0x10000234
100001e4:	e71aa390 	.word	0xe71aa390

100001e8 <_entry_point>:
100001e8:	2000      	movs	r0, #0
100001ea:	491f      	ldr	r1, [pc, #124]	; (10000268 <hold_non_core0_in_bootrom+0xa>)
100001ec:	6008      	str	r0, [r1, #0]
100001ee:	c806      	ldmia	r0!, {r1, r2}
100001f0:	f381 8808 	msr	MSP, r1
100001f4:	4710      	bx	r2

100001f6 <_reset_handler>:
100001f6:	481d      	ldr	r0, [pc, #116]	; (1000026c <hold_non_core0_in_bootrom+0xe>)
100001f8:	6800      	ldr	r0, [r0, #0]
100001fa:	2800      	cmp	r0, #0
100001fc:	d12f      	bne.n	1000025e <hold_non_core0_in_bootrom>
100001fe:	a40d      	add	r4, pc, #52	; (adr r4, 10000234 <data_cpy_table>)
10000200:	cc0e      	ldmia	r4!, {r1, r2, r3}
10000202:	2900      	cmp	r1, #0
10000204:	d002      	beq.n	1000020c <_reset_handler+0x16>
10000206:	f000 f812 	bl	1000022e <data_cpy>
1000020a:	e7f9      	b.n	10000200 <_reset_handler+0xa>
1000020c:	4918      	ldr	r1, [pc, #96]	; (10000270 <hold_non_core0_in_bootrom+0x12>)
1000020e:	4a19      	ldr	r2, [pc, #100]	; (10000274 <hold_non_core0_in_bootrom+0x16>)
10000210:	2000      	movs	r0, #0
10000212:	e000      	b.n	10000216 <bss_fill_test>

10000214 <bss_fill_loop>:
10000214:	c101      	stmia	r1!, {r0}

10000216 <bss_fill_test>:
10000216:	4291      	cmp	r1, r2
10000218:	d1fc      	bne.n	10000214 <bss_fill_loop>

1000021a <platform_entry>:
1000021a:	4917      	ldr	r1, [pc, #92]	; (10000278 <hold_non_core0_in_bootrom+0x1a>)
1000021c:	4788      	blx	r1
1000021e:	4917      	ldr	r1, [pc, #92]	; (1000027c <hold_non_core0_in_bootrom+0x1e>)
10000220:	4788      	blx	r1
10000222:	4917      	ldr	r1, [pc, #92]	; (10000280 <hold_non_core0_in_bootrom+0x22>)
10000224:	4788      	blx	r1
10000226:	be00      	bkpt	0x0000
10000228:	e7fd      	b.n	10000226 <platform_entry+0xc>

1000022a <data_cpy_loop>:
1000022a:	c901      	ldmia	r1!, {r0}
1000022c:	c201      	stmia	r2!, {r0}

1000022e <data_cpy>:
1000022e:	429a      	cmp	r2, r3
10000230:	d3fb      	bcc.n	1000022a <data_cpy_loop>
10000232:	4770      	bx	lr

10000234 <data_cpy_table>:
10000234:	10018b3c 	.word	0x10018b3c
10000238:	200000c0 	.word	0x200000c0
1000023c:	20001c70 	.word	0x20001c70
10000240:	1001a6ec 	.word	0x1001a6ec
10000244:	20040000 	.word	0x20040000
10000248:	20040000 	.word	0x20040000
1000024c:	1001a6ec 	.word	0x1001a6ec
10000250:	20041000 	.word	0x20041000
10000254:	20041000 	.word	0x20041000
10000258:	00000000 	.word	0x00000000
1000025c:	4770      	bx	lr

1000025e <hold_non_core0_in_bootrom>:
1000025e:	4809      	ldr	r0, [pc, #36]	; (10000284 <hold_non_core0_in_bootrom+0x26>)
10000260:	f003 ffa2 	bl	100041a8 <rom_func_lookup>
10000264:	4700      	bx	r0
10000266:	0000      	.short	0x0000
10000268:	e000ed08 	.word	0xe000ed08
1000026c:	d0000000 	.word	0xd0000000
10000270:	20001c70 	.word	0x20001c70
10000274:	20022674 	.word	0x20022674
10000278:	10002ee9 	.word	0x10002ee9
1000027c:	100004b5 	.word	0x100004b5
10000280:	10002ea7 	.word	0x10002ea7
10000284:	00005657 	.word	0x00005657

10000288 <__bi_50>:
10000288:	50520006 5360b3ab 10014928              ..RP..`S(I..

10000294 <__bi_38>:
10000294:	50520006 02031c86 10014938              ..RP....8I..

100002a0 <__bi_30>:
100002a0:	50520006 9da22254 10014940              ..RPT"..@I..

100002ac <__bi_22>:
100002ac:	50520005 68f465de 1001a6ec              ..RP.e.h....

100002b8 <_init>:
100002b8:	b5f8      	push	{r3, r4, r5, r6, r7, lr}
100002ba:	46c0      	nop			; (mov r8, r8)

100002bc <__do_global_dtors_aux>:
100002bc:	b510      	push	{r4, lr}
100002be:	4c06      	ldr	r4, [pc, #24]	; (100002d8 <__do_global_dtors_aux+0x1c>)
100002c0:	7823      	ldrb	r3, [r4, #0]
100002c2:	2b00      	cmp	r3, #0
100002c4:	d107      	bne.n	100002d6 <__do_global_dtors_aux+0x1a>
100002c6:	4b05      	ldr	r3, [pc, #20]	; (100002dc <__do_global_dtors_aux+0x20>)
100002c8:	2b00      	cmp	r3, #0
100002ca:	d002      	beq.n	100002d2 <__do_global_dtors_aux+0x16>
100002cc:	4804      	ldr	r0, [pc, #16]	; (100002e0 <__do_global_dtors_aux+0x24>)
100002ce:	e000      	b.n	100002d2 <__do_global_dtors_aux+0x16>
100002d0:	bf00      	nop
100002d2:	2301      	movs	r3, #1
100002d4:	7023      	strb	r3, [r4, #0]
100002d6:	bd10      	pop	{r4, pc}
100002d8:	20001d88 	.word	0x20001d88
100002dc:	00000000 	.word	0x00000000
100002e0:	100132a0 	.word	0x100132a0

100002e4 <frame_dummy>:
100002e4:	4b04      	ldr	r3, [pc, #16]	; (100002f8 <frame_dummy+0x14>)
100002e6:	b510      	push	{r4, lr}
100002e8:	2b00      	cmp	r3, #0
100002ea:	d003      	beq.n	100002f4 <frame_dummy+0x10>
100002ec:	4903      	ldr	r1, [pc, #12]	; (100002fc <frame_dummy+0x18>)
100002ee:	4804      	ldr	r0, [pc, #16]	; (10000300 <frame_dummy+0x1c>)
100002f0:	e000      	b.n	100002f4 <frame_dummy+0x10>
100002f2:	bf00      	nop
100002f4:	bd10      	pop	{r4, pc}
100002f6:	46c0      	nop			; (mov r8, r8)
100002f8:	00000000 	.word	0x00000000
100002fc:	20001d8c 	.word	0x20001d8c
10000300:	100132a0 	.word	0x100132a0

10000304 <_ZL17pwm_set_freq_dutyjjmi>:
10000304:	b5f8      	push	{r3, r4, r5, r6, r7, lr}
10000306:	46ce      	mov	lr, r9
10000308:	4647      	mov	r7, r8
1000030a:	b580      	push	{r7, lr}
1000030c:	4680      	mov	r8, r0
1000030e:	000f      	movs	r7, r1
10000310:	0014      	movs	r4, r2
10000312:	4699      	mov	r9, r3
10000314:	0011      	movs	r1, r2
10000316:	4825      	ldr	r0, [pc, #148]	; (100003ac <_ZL17pwm_set_freq_dutyjjmi+0xa8>)
10000318:	f003 ff9a 	bl	10004250 <__wrap___aeabi_uidiv>
1000031c:	0b05      	lsrs	r5, r0, #12
1000031e:	0321      	lsls	r1, r4, #12
10000320:	4822      	ldr	r0, [pc, #136]	; (100003ac <_ZL17pwm_set_freq_dutyjjmi+0xa8>)
10000322:	f003 ff95 	bl	10004250 <__wrap___aeabi_uidiv>
10000326:	1e4b      	subs	r3, r1, #1
10000328:	4199      	sbcs	r1, r3
1000032a:	186d      	adds	r5, r5, r1
1000032c:	2d0f      	cmp	r5, #15
1000032e:	d800      	bhi.n	10000332 <_ZL17pwm_set_freq_dutyjjmi+0x2e>
10000330:	2510      	movs	r5, #16
10000332:	0029      	movs	r1, r5
10000334:	481e      	ldr	r0, [pc, #120]	; (100003b0 <_ZL17pwm_set_freq_dutyjjmi+0xac>)
10000336:	f003 ff8b 	bl	10004250 <__wrap___aeabi_uidiv>
1000033a:	0021      	movs	r1, r4
1000033c:	f003 ff88 	bl	10004250 <__wrap___aeabi_uidiv>
10000340:	1e46      	subs	r6, r0, #1
10000342:	092b      	lsrs	r3, r5, #4
10000344:	210f      	movs	r1, #15
10000346:	4029      	ands	r1, r5
10000348:	25ff      	movs	r5, #255	; 0xff
1000034a:	401d      	ands	r5, r3
1000034c:	012d      	lsls	r5, r5, #4
1000034e:	430d      	orrs	r5, r1
10000350:	4643      	mov	r3, r8
10000352:	009c      	lsls	r4, r3, #2
10000354:	18e3      	adds	r3, r4, r3
10000356:	009b      	lsls	r3, r3, #2
10000358:	4a16      	ldr	r2, [pc, #88]	; (100003b4 <_ZL17pwm_set_freq_dutyjjmi+0xb0>)
1000035a:	4694      	mov	ip, r2
1000035c:	4463      	add	r3, ip
1000035e:	605d      	str	r5, [r3, #4]
10000360:	0432      	lsls	r2, r6, #16
10000362:	0c12      	lsrs	r2, r2, #16
10000364:	611a      	str	r2, [r3, #16]
10000366:	4648      	mov	r0, r9
10000368:	4370      	muls	r0, r6
1000036a:	2164      	movs	r1, #100	; 0x64
1000036c:	f003 ff70 	bl	10004250 <__wrap___aeabi_uidiv>
10000370:	b283      	uxth	r3, r0
10000372:	4444      	add	r4, r8
10000374:	00a4      	lsls	r4, r4, #2
10000376:	4a10      	ldr	r2, [pc, #64]	; (100003b8 <_ZL17pwm_set_freq_dutyjjmi+0xb4>)
10000378:	4694      	mov	ip, r2
1000037a:	4464      	add	r4, ip
1000037c:	2f00      	cmp	r7, #0
1000037e:	d010      	beq.n	100003a2 <_ZL17pwm_set_freq_dutyjjmi+0x9e>
10000380:	2210      	movs	r2, #16
10000382:	4093      	lsls	r3, r2
10000384:	2f00      	cmp	r7, #0
10000386:	d00e      	beq.n	100003a6 <_ZL17pwm_set_freq_dutyjjmi+0xa2>
10000388:	480c      	ldr	r0, [pc, #48]	; (100003bc <_ZL17pwm_set_freq_dutyjjmi+0xb8>)
1000038a:	6822      	ldr	r2, [r4, #0]
1000038c:	4053      	eors	r3, r2
1000038e:	4003      	ands	r3, r0
10000390:	2280      	movs	r2, #128	; 0x80
10000392:	0152      	lsls	r2, r2, #5
10000394:	4314      	orrs	r4, r2
10000396:	6023      	str	r3, [r4, #0]
10000398:	0030      	movs	r0, r6
1000039a:	bcc0      	pop	{r6, r7}
1000039c:	46b9      	mov	r9, r7
1000039e:	46b0      	mov	r8, r6
100003a0:	bdf8      	pop	{r3, r4, r5, r6, r7, pc}
100003a2:	003a      	movs	r2, r7
100003a4:	e7ed      	b.n	10000382 <_ZL17pwm_set_freq_dutyjjmi+0x7e>
100003a6:	4806      	ldr	r0, [pc, #24]	; (100003c0 <_ZL17pwm_set_freq_dutyjjmi+0xbc>)
100003a8:	e7ef      	b.n	1000038a <_ZL17pwm_set_freq_dutyjjmi+0x86>
100003aa:	46c0      	nop			; (mov r8, r8)
100003ac:	07735940 	.word	0x07735940
100003b0:	77359400 	.word	0x77359400
100003b4:	40050000 	.word	0x40050000
100003b8:	4005000c 	.word	0x4005000c
100003bc:	ffff0000 	.word	0xffff0000
100003c0:	0000ffff 	.word	0x0000ffff

100003c4 <_Z8mainTaskPv>:
100003c4:	b5f0      	push	{r4, r5, r6, r7, lr}
100003c6:	b087      	sub	sp, #28
100003c8:	2018      	movs	r0, #24
100003ca:	f005 f8f1 	bl	100055b0 <_Znwj>
100003ce:	0005      	movs	r5, r0
100003d0:	f000 f8ba 	bl	10000548 <_ZN5BuggyC1Ev>
100003d4:	2008      	movs	r0, #8
100003d6:	f005 f8eb 	bl	100055b0 <_Znwj>
100003da:	0004      	movs	r4, r0
100003dc:	f000 fe32 	bl	10001044 <_ZN9QuadMusicC1Ev>
100003e0:	2104      	movs	r1, #4
100003e2:	2010      	movs	r0, #16
100003e4:	f000 fe80 	bl	100010e8 <gpio_set_function>
100003e8:	2200      	movs	r2, #0
100003ea:	9203      	str	r2, [sp, #12]
100003ec:	9204      	str	r2, [sp, #16]
100003ee:	9205      	str	r2, [sp, #20]
100003f0:	2310      	movs	r3, #16
100003f2:	9304      	str	r3, [sp, #16]
100003f4:	4b29      	ldr	r3, [pc, #164]	; (1000049c <_Z8mainTaskPv+0xd8>)
100003f6:	9305      	str	r3, [sp, #20]
100003f8:	4b29      	ldr	r3, [pc, #164]	; (100004a0 <_Z8mainTaskPv+0xdc>)
100003fa:	601a      	str	r2, [r3, #0]
100003fc:	609a      	str	r2, [r3, #8]
100003fe:	60da      	str	r2, [r3, #12]
10000400:	9a05      	ldr	r2, [sp, #20]
10000402:	9201      	str	r2, [sp, #4]
10000404:	611a      	str	r2, [r3, #16]
10000406:	9a04      	ldr	r2, [sp, #16]
10000408:	605a      	str	r2, [r3, #4]
1000040a:	2201      	movs	r2, #1
1000040c:	9903      	ldr	r1, [sp, #12]
1000040e:	430a      	orrs	r2, r1
10000410:	601a      	str	r2, [r3, #0]
10000412:	234b      	movs	r3, #75	; 0x4b
10000414:	2200      	movs	r2, #0
10000416:	2100      	movs	r1, #0
10000418:	2000      	movs	r0, #0
1000041a:	f7ff ff73 	bl	10000304 <_ZL17pwm_set_freq_dutyjjmi>
1000041e:	f008 fdb3 	bl	10008f88 <adc_init>
10000422:	211f      	movs	r1, #31
10000424:	201a      	movs	r0, #26
10000426:	f000 fe5f 	bl	100010e8 <gpio_set_function>
1000042a:	2200      	movs	r2, #0
1000042c:	2100      	movs	r1, #0
1000042e:	201a      	movs	r0, #26
10000430:	f000 fe72 	bl	10001118 <gpio_set_pulls>
10000434:	2100      	movs	r1, #0
10000436:	201a      	movs	r0, #26
10000438:	f000 fe88 	bl	1000114c <gpio_set_input_enabled>
1000043c:	4b19      	ldr	r3, [pc, #100]	; (100004a4 <_Z8mainTaskPv+0xe0>)
1000043e:	681b      	ldr	r3, [r3, #0]
10000440:	22e0      	movs	r2, #224	; 0xe0
10000442:	01d2      	lsls	r2, r2, #7
10000444:	4013      	ands	r3, r2
10000446:	4a18      	ldr	r2, [pc, #96]	; (100004a8 <_Z8mainTaskPv+0xe4>)
10000448:	6013      	str	r3, [r2, #0]
1000044a:	4b18      	ldr	r3, [pc, #96]	; (100004ac <_Z8mainTaskPv+0xe8>)
1000044c:	2204      	movs	r2, #4
1000044e:	601a      	str	r2, [r3, #0]
10000450:	4b14      	ldr	r3, [pc, #80]	; (100004a4 <_Z8mainTaskPv+0xe0>)
10000452:	681b      	ldr	r3, [r3, #0]
10000454:	05db      	lsls	r3, r3, #23
10000456:	d5fb      	bpl.n	10000450 <_Z8mainTaskPv+0x8c>
10000458:	4b12      	ldr	r3, [pc, #72]	; (100004a4 <_Z8mainTaskPv+0xe0>)
1000045a:	685f      	ldr	r7, [r3, #4]
1000045c:	b2bf      	uxth	r7, r7
1000045e:	0028      	movs	r0, r5
10000460:	f000 f8fa 	bl	10000658 <_ZN5Buggy11getDistanceEv>
10000464:	f004 fa0c 	bl	10004880 <__wrap___aeabi_d2f>
10000468:	1c06      	adds	r6, r0, #0
1000046a:	0038      	movs	r0, r7
1000046c:	f004 f9c0 	bl	100047f0 <__wrap___aeabi_ui2d>
10000470:	0002      	movs	r2, r0
10000472:	000b      	movs	r3, r1
10000474:	0020      	movs	r0, r4
10000476:	f000 fe14 	bl	100010a2 <_ZN9QuadMusic23FitFreqToAcceptableFreqEd>
1000047a:	f004 f9f9 	bl	10004870 <__wrap___aeabi_d2uiz>
1000047e:	0002      	movs	r2, r0
10000480:	234b      	movs	r3, #75	; 0x4b
10000482:	2100      	movs	r1, #0
10000484:	2000      	movs	r0, #0
10000486:	f7ff ff3d 	bl	10000304 <_ZL17pwm_set_freq_dutyjjmi>
1000048a:	4909      	ldr	r1, [pc, #36]	; (100004b0 <_Z8mainTaskPv+0xec>)
1000048c:	1c30      	adds	r0, r6, #0
1000048e:	f004 ffa0 	bl	100053d2 <__wrap___aeabi_fmul>
10000492:	f004 ffd5 	bl	10005440 <__wrap___aeabi_f2uiz>
10000496:	f001 fe6b 	bl	10002170 <sleep_ms>
1000049a:	e7d6      	b.n	1000044a <_Z8mainTaskPv+0x86>
1000049c:	0000ffff 	.word	0x0000ffff
100004a0:	40050000 	.word	0x40050000
100004a4:	4004c000 	.word	0x4004c000
100004a8:	4004d000 	.word	0x4004d000
100004ac:	4004e000 	.word	0x4004e000
100004b0:	42c80000 	.word	0x42c80000

100004b4 <main>:
100004b4:	b500      	push	{lr}
100004b6:	b083      	sub	sp, #12
100004b8:	f005 fa56 	bl	10005968 <stdio_init_all>
100004bc:	2280      	movs	r2, #128	; 0x80
100004be:	2300      	movs	r3, #0
100004c0:	9301      	str	r3, [sp, #4]
100004c2:	3301      	adds	r3, #1
100004c4:	9300      	str	r3, [sp, #0]
100004c6:	2300      	movs	r3, #0
100004c8:	00d2      	lsls	r2, r2, #3
100004ca:	4903      	ldr	r1, [pc, #12]	; (100004d8 <main+0x24>)
100004cc:	4803      	ldr	r0, [pc, #12]	; (100004dc <main+0x28>)
100004ce:	f007 fe25 	bl	1000811c <xTaskCreate>
100004d2:	f007 fe77 	bl	100081c4 <vTaskStartScheduler>
100004d6:	e7fe      	b.n	100004d6 <main+0x22>
100004d8:	100132a0 	.word	0x100132a0
100004dc:	100003c5 	.word	0x100003c5

100004e0 <_Z12distanceTaskPv>:
100004e0:	b570      	push	{r4, r5, r6, lr}
100004e2:	0004      	movs	r4, r0
100004e4:	25d0      	movs	r5, #208	; 0xd0
100004e6:	062d      	lsls	r5, r5, #24
100004e8:	2680      	movs	r6, #128	; 0x80
100004ea:	01f6      	lsls	r6, r6, #7
100004ec:	61ae      	str	r6, [r5, #24]
100004ee:	2002      	movs	r0, #2
100004f0:	2100      	movs	r1, #0
100004f2:	f001 fe11 	bl	10002118 <sleep_us>
100004f6:	616e      	str	r6, [r5, #20]
100004f8:	2005      	movs	r0, #5
100004fa:	2100      	movs	r1, #0
100004fc:	f001 fe0c 	bl	10002118 <sleep_us>
10000500:	61ae      	str	r6, [r5, #24]
10000502:	6820      	ldr	r0, [r4, #0]
10000504:	f000 fd6c 	bl	10000fe0 <_ZN5PwmIn15read_pulsewidthEv>
10000508:	f004 ffa0 	bl	1000544c <__wrap___aeabi_f2d>
1000050c:	2200      	movs	r2, #0
1000050e:	4b09      	ldr	r3, [pc, #36]	; (10000534 <_Z12distanceTaskPv+0x54>)
10000510:	f004 f8fd 	bl	1000470e <__wrap___aeabi_dmul>
10000514:	4a08      	ldr	r2, [pc, #32]	; (10000538 <_Z12distanceTaskPv+0x58>)
10000516:	4b09      	ldr	r3, [pc, #36]	; (1000053c <_Z12distanceTaskPv+0x5c>)
10000518:	f004 f8f9 	bl	1000470e <__wrap___aeabi_dmul>
1000051c:	2200      	movs	r2, #0
1000051e:	4b08      	ldr	r3, [pc, #32]	; (10000540 <_Z12distanceTaskPv+0x60>)
10000520:	f004 f8f5 	bl	1000470e <__wrap___aeabi_dmul>
10000524:	4b07      	ldr	r3, [pc, #28]	; (10000544 <_Z12distanceTaskPv+0x64>)
10000526:	6018      	str	r0, [r3, #0]
10000528:	6059      	str	r1, [r3, #4]
1000052a:	2001      	movs	r0, #1
1000052c:	f001 fe20 	bl	10002170 <sleep_ms>
10000530:	e7d8      	b.n	100004e4 <_Z12distanceTaskPv+0x4>
10000532:	46c0      	nop			; (mov r8, r8)
10000534:	40f86a00 	.word	0x40f86a00
10000538:	04816f00 	.word	0x04816f00
1000053c:	3fa18fc5 	.word	0x3fa18fc5
10000540:	3fe00000 	.word	0x3fe00000
10000544:	20001c80 	.word	0x20001c80

10000548 <_ZN5BuggyC1Ev>:
10000548:	b570      	push	{r4, r5, r6, lr}
1000054a:	b088      	sub	sp, #32
1000054c:	0005      	movs	r5, r0
1000054e:	483a      	ldr	r0, [pc, #232]	; (10000638 <_ZN5BuggyC1Ev+0xf0>)
10000550:	f005 f9ce 	bl	100058f0 <__wrap_puts>
10000554:	2104      	movs	r1, #4
10000556:	2014      	movs	r0, #20
10000558:	f000 fdc6 	bl	100010e8 <gpio_set_function>
1000055c:	2104      	movs	r1, #4
1000055e:	2013      	movs	r0, #19
10000560:	f000 fdc2 	bl	100010e8 <gpio_set_function>
10000564:	2104      	movs	r1, #4
10000566:	2006      	movs	r0, #6
10000568:	f000 fdbe 	bl	100010e8 <gpio_set_function>
1000056c:	2104      	movs	r1, #4
1000056e:	2007      	movs	r0, #7
10000570:	f000 fdba 	bl	100010e8 <gpio_set_function>
10000574:	2400      	movs	r4, #0
10000576:	9405      	str	r4, [sp, #20]
10000578:	9406      	str	r4, [sp, #24]
1000057a:	9407      	str	r4, [sp, #28]
1000057c:	2310      	movs	r3, #16
1000057e:	9306      	str	r3, [sp, #24]
10000580:	4b2e      	ldr	r3, [pc, #184]	; (1000063c <_ZN5BuggyC1Ev+0xf4>)
10000582:	9307      	str	r3, [sp, #28]
10000584:	4a2e      	ldr	r2, [pc, #184]	; (10000640 <_ZN5BuggyC1Ev+0xf8>)
10000586:	6294      	str	r4, [r2, #40]	; 0x28
10000588:	6314      	str	r4, [r2, #48]	; 0x30
1000058a:	6354      	str	r4, [r2, #52]	; 0x34
1000058c:	9b07      	ldr	r3, [sp, #28]
1000058e:	9303      	str	r3, [sp, #12]
10000590:	6393      	str	r3, [r2, #56]	; 0x38
10000592:	9b06      	ldr	r3, [sp, #24]
10000594:	9303      	str	r3, [sp, #12]
10000596:	62d3      	str	r3, [r2, #44]	; 0x2c
10000598:	2301      	movs	r3, #1
1000059a:	9905      	ldr	r1, [sp, #20]
1000059c:	4319      	orrs	r1, r3
1000059e:	6291      	str	r1, [r2, #40]	; 0x28
100005a0:	6154      	str	r4, [r2, #20]
100005a2:	61d4      	str	r4, [r2, #28]
100005a4:	6214      	str	r4, [r2, #32]
100005a6:	9907      	ldr	r1, [sp, #28]
100005a8:	9103      	str	r1, [sp, #12]
100005aa:	6251      	str	r1, [r2, #36]	; 0x24
100005ac:	9906      	ldr	r1, [sp, #24]
100005ae:	9103      	str	r1, [sp, #12]
100005b0:	6191      	str	r1, [r2, #24]
100005b2:	9905      	ldr	r1, [sp, #20]
100005b4:	4319      	orrs	r1, r3
100005b6:	6151      	str	r1, [r2, #20]
100005b8:	63d4      	str	r4, [r2, #60]	; 0x3c
100005ba:	6454      	str	r4, [r2, #68]	; 0x44
100005bc:	6494      	str	r4, [r2, #72]	; 0x48
100005be:	9907      	ldr	r1, [sp, #28]
100005c0:	9103      	str	r1, [sp, #12]
100005c2:	64d1      	str	r1, [r2, #76]	; 0x4c
100005c4:	9906      	ldr	r1, [sp, #24]
100005c6:	9103      	str	r1, [sp, #12]
100005c8:	6411      	str	r1, [r2, #64]	; 0x40
100005ca:	9905      	ldr	r1, [sp, #20]
100005cc:	4319      	orrs	r1, r3
100005ce:	63d1      	str	r1, [r2, #60]	; 0x3c
100005d0:	63d4      	str	r4, [r2, #60]	; 0x3c
100005d2:	6454      	str	r4, [r2, #68]	; 0x44
100005d4:	6494      	str	r4, [r2, #72]	; 0x48
100005d6:	9907      	ldr	r1, [sp, #28]
100005d8:	9103      	str	r1, [sp, #12]
100005da:	64d1      	str	r1, [r2, #76]	; 0x4c
100005dc:	9906      	ldr	r1, [sp, #24]
100005de:	6411      	str	r1, [r2, #64]	; 0x40
100005e0:	9905      	ldr	r1, [sp, #20]
100005e2:	430b      	orrs	r3, r1
100005e4:	63d3      	str	r3, [r2, #60]	; 0x3c
100005e6:	200e      	movs	r0, #14
100005e8:	f000 fdc8 	bl	1000117c <gpio_init>
100005ec:	26d0      	movs	r6, #208	; 0xd0
100005ee:	0636      	lsls	r6, r6, #24
100005f0:	2380      	movs	r3, #128	; 0x80
100005f2:	01db      	lsls	r3, r3, #7
100005f4:	6273      	str	r3, [r6, #36]	; 0x24
100005f6:	200f      	movs	r0, #15
100005f8:	f000 fdc0 	bl	1000117c <gpio_init>
100005fc:	2380      	movs	r3, #128	; 0x80
100005fe:	021b      	lsls	r3, r3, #8
10000600:	62b3      	str	r3, [r6, #40]	; 0x28
10000602:	2010      	movs	r0, #16
10000604:	f004 ffd4 	bl	100055b0 <_Znwj>
10000608:	0006      	movs	r6, r0
1000060a:	210f      	movs	r1, #15
1000060c:	f000 fc6a 	bl	10000ee4 <_ZN5PwmInC1Ej>
10000610:	602e      	str	r6, [r5, #0]
10000612:	4a0c      	ldr	r2, [pc, #48]	; (10000644 <_ZN5BuggyC1Ev+0xfc>)
10000614:	4b0c      	ldr	r3, [pc, #48]	; (10000648 <_ZN5BuggyC1Ev+0x100>)
10000616:	60aa      	str	r2, [r5, #8]
10000618:	60eb      	str	r3, [r5, #12]
1000061a:	4b0c      	ldr	r3, [pc, #48]	; (1000064c <_ZN5BuggyC1Ev+0x104>)
1000061c:	612b      	str	r3, [r5, #16]
1000061e:	2280      	movs	r2, #128	; 0x80
10000620:	9401      	str	r4, [sp, #4]
10000622:	2302      	movs	r3, #2
10000624:	9300      	str	r3, [sp, #0]
10000626:	002b      	movs	r3, r5
10000628:	00d2      	lsls	r2, r2, #3
1000062a:	4909      	ldr	r1, [pc, #36]	; (10000650 <_ZN5BuggyC1Ev+0x108>)
1000062c:	4809      	ldr	r0, [pc, #36]	; (10000654 <_ZN5BuggyC1Ev+0x10c>)
1000062e:	f007 fd75 	bl	1000811c <xTaskCreate>
10000632:	0028      	movs	r0, r5
10000634:	b008      	add	sp, #32
10000636:	bd70      	pop	{r4, r5, r6, pc}
10000638:	100132ac 	.word	0x100132ac
1000063c:	0000ffff 	.word	0x0000ffff
10000640:	40050000 	.word	0x40050000
10000644:	04816f00 	.word	0x04816f00
10000648:	3fa18fc5 	.word	0x3fa18fc5
1000064c:	000071e2 	.word	0x000071e2
10000650:	100132b8 	.word	0x100132b8
10000654:	100004e1 	.word	0x100004e1

10000658 <_ZN5Buggy11getDistanceEv>:
10000658:	4b01      	ldr	r3, [pc, #4]	; (10000660 <_ZN5Buggy11getDistanceEv+0x8>)
1000065a:	6818      	ldr	r0, [r3, #0]
1000065c:	6859      	ldr	r1, [r3, #4]
1000065e:	4770      	bx	lr
10000660:	20001c80 	.word	0x20001c80

10000664 <_ZNK8nlohmann10basic_jsonISt3mapSt6vectorNSt7__cxx1112basic_stringIcSt11char_traitsIcESaIcEEEbxydSaNS_14adl_serializerES2_IhSaIhEEE16assert_invariantEb>:
10000664:	b510      	push	{r4, lr}
10000666:	7803      	ldrb	r3, [r0, #0]
10000668:	2b01      	cmp	r3, #1
1000066a:	d006      	beq.n	1000067a <_ZNK8nlohmann10basic_jsonISt3mapSt6vectorNSt7__cxx1112basic_stringIcSt11char_traitsIcESaIcEEEbxydSaNS_14adl_serializerES2_IhSaIhEEE16assert_invariantEb+0x16>
1000066c:	2b02      	cmp	r3, #2
1000066e:	d00d      	beq.n	1000068c <_ZNK8nlohmann10basic_jsonISt3mapSt6vectorNSt7__cxx1112basic_stringIcSt11char_traitsIcESaIcEEEbxydSaNS_14adl_serializerES2_IhSaIhEEE16assert_invariantEb+0x28>
10000670:	2b03      	cmp	r3, #3
10000672:	d014      	beq.n	1000069e <_ZNK8nlohmann10basic_jsonISt3mapSt6vectorNSt7__cxx1112basic_stringIcSt11char_traitsIcESaIcEEEbxydSaNS_14adl_serializerES2_IhSaIhEEE16assert_invariantEb+0x3a>
10000674:	2b08      	cmp	r3, #8
10000676:	d01b      	beq.n	100006b0 <_ZNK8nlohmann10basic_jsonISt3mapSt6vectorNSt7__cxx1112basic_stringIcSt11char_traitsIcESaIcEEEbxydSaNS_14adl_serializerES2_IhSaIhEEE16assert_invariantEb+0x4c>
10000678:	bd10      	pop	{r4, pc}
1000067a:	6882      	ldr	r2, [r0, #8]
1000067c:	2a00      	cmp	r2, #0
1000067e:	d1f5      	bne.n	1000066c <_ZNK8nlohmann10basic_jsonISt3mapSt6vectorNSt7__cxx1112basic_stringIcSt11char_traitsIcESaIcEEEbxydSaNS_14adl_serializerES2_IhSaIhEEE16assert_invariantEb+0x8>
10000680:	4b10      	ldr	r3, [pc, #64]	; (100006c4 <_ZNK8nlohmann10basic_jsonISt3mapSt6vectorNSt7__cxx1112basic_stringIcSt11char_traitsIcESaIcEEEbxydSaNS_14adl_serializerES2_IhSaIhEEE16assert_invariantEb+0x60>)
10000682:	4a11      	ldr	r2, [pc, #68]	; (100006c8 <_ZNK8nlohmann10basic_jsonISt3mapSt6vectorNSt7__cxx1112basic_stringIcSt11char_traitsIcESaIcEEEbxydSaNS_14adl_serializerES2_IhSaIhEEE16assert_invariantEb+0x64>)
10000684:	4911      	ldr	r1, [pc, #68]	; (100006cc <_ZNK8nlohmann10basic_jsonISt3mapSt6vectorNSt7__cxx1112basic_stringIcSt11char_traitsIcESaIcEEEbxydSaNS_14adl_serializerES2_IhSaIhEEE16assert_invariantEb+0x68>)
10000686:	4812      	ldr	r0, [pc, #72]	; (100006d0 <_ZNK8nlohmann10basic_jsonISt3mapSt6vectorNSt7__cxx1112basic_stringIcSt11char_traitsIcESaIcEEEbxydSaNS_14adl_serializerES2_IhSaIhEEE16assert_invariantEb+0x6c>)
10000688:	f002 fc10 	bl	10002eac <__assert_func>
1000068c:	6882      	ldr	r2, [r0, #8]
1000068e:	2a00      	cmp	r2, #0
10000690:	d1ee      	bne.n	10000670 <_ZNK8nlohmann10basic_jsonISt3mapSt6vectorNSt7__cxx1112basic_stringIcSt11char_traitsIcESaIcEEEbxydSaNS_14adl_serializerES2_IhSaIhEEE16assert_invariantEb+0xc>
10000692:	4b10      	ldr	r3, [pc, #64]	; (100006d4 <_ZNK8nlohmann10basic_jsonISt3mapSt6vectorNSt7__cxx1112basic_stringIcSt11char_traitsIcESaIcEEEbxydSaNS_14adl_serializerES2_IhSaIhEEE16assert_invariantEb+0x70>)
10000694:	4a0c      	ldr	r2, [pc, #48]	; (100006c8 <_ZNK8nlohmann10basic_jsonISt3mapSt6vectorNSt7__cxx1112basic_stringIcSt11char_traitsIcESaIcEEEbxydSaNS_14adl_serializerES2_IhSaIhEEE16assert_invariantEb+0x64>)
10000696:	4910      	ldr	r1, [pc, #64]	; (100006d8 <_ZNK8nlohmann10basic_jsonISt3mapSt6vectorNSt7__cxx1112basic_stringIcSt11char_traitsIcESaIcEEEbxydSaNS_14adl_serializerES2_IhSaIhEEE16assert_invariantEb+0x74>)
10000698:	480d      	ldr	r0, [pc, #52]	; (100006d0 <_ZNK8nlohmann10basic_jsonISt3mapSt6vectorNSt7__cxx1112basic_stringIcSt11char_traitsIcESaIcEEEbxydSaNS_14adl_serializerES2_IhSaIhEEE16assert_invariantEb+0x6c>)
1000069a:	f002 fc07 	bl	10002eac <__assert_func>
1000069e:	6882      	ldr	r2, [r0, #8]
100006a0:	2a00      	cmp	r2, #0
100006a2:	d1e7      	bne.n	10000674 <_ZNK8nlohmann10basic_jsonISt3mapSt6vectorNSt7__cxx1112basic_stringIcSt11char_traitsIcESaIcEEEbxydSaNS_14adl_serializerES2_IhSaIhEEE16assert_invariantEb+0x10>
100006a4:	4b0d      	ldr	r3, [pc, #52]	; (100006dc <_ZNK8nlohmann10basic_jsonISt3mapSt6vectorNSt7__cxx1112basic_stringIcSt11char_traitsIcESaIcEEEbxydSaNS_14adl_serializerES2_IhSaIhEEE16assert_invariantEb+0x78>)
100006a6:	4a08      	ldr	r2, [pc, #32]	; (100006c8 <_ZNK8nlohmann10basic_jsonISt3mapSt6vectorNSt7__cxx1112basic_stringIcSt11char_traitsIcESaIcEEEbxydSaNS_14adl_serializerES2_IhSaIhEEE16assert_invariantEb+0x64>)
100006a8:	490d      	ldr	r1, [pc, #52]	; (100006e0 <_ZNK8nlohmann10basic_jsonISt3mapSt6vectorNSt7__cxx1112basic_stringIcSt11char_traitsIcESaIcEEEbxydSaNS_14adl_serializerES2_IhSaIhEEE16assert_invariantEb+0x7c>)
100006aa:	4809      	ldr	r0, [pc, #36]	; (100006d0 <_ZNK8nlohmann10basic_jsonISt3mapSt6vectorNSt7__cxx1112basic_stringIcSt11char_traitsIcESaIcEEEbxydSaNS_14adl_serializerES2_IhSaIhEEE16assert_invariantEb+0x6c>)
100006ac:	f002 fbfe 	bl	10002eac <__assert_func>
100006b0:	6883      	ldr	r3, [r0, #8]
100006b2:	2b00      	cmp	r3, #0
100006b4:	d1e0      	bne.n	10000678 <_ZNK8nlohmann10basic_jsonISt3mapSt6vectorNSt7__cxx1112basic_stringIcSt11char_traitsIcESaIcEEEbxydSaNS_14adl_serializerES2_IhSaIhEEE16assert_invariantEb+0x14>
100006b6:	4b0b      	ldr	r3, [pc, #44]	; (100006e4 <_ZNK8nlohmann10basic_jsonISt3mapSt6vectorNSt7__cxx1112basic_stringIcSt11char_traitsIcESaIcEEEbxydSaNS_14adl_serializerES2_IhSaIhEEE16assert_invariantEb+0x80>)
100006b8:	4a03      	ldr	r2, [pc, #12]	; (100006c8 <_ZNK8nlohmann10basic_jsonISt3mapSt6vectorNSt7__cxx1112basic_stringIcSt11char_traitsIcESaIcEEEbxydSaNS_14adl_serializerES2_IhSaIhEEE16assert_invariantEb+0x64>)
100006ba:	490b      	ldr	r1, [pc, #44]	; (100006e8 <_ZNK8nlohmann10basic_jsonISt3mapSt6vectorNSt7__cxx1112basic_stringIcSt11char_traitsIcESaIcEEEbxydSaNS_14adl_serializerES2_IhSaIhEEE16assert_invariantEb+0x84>)
100006bc:	4804      	ldr	r0, [pc, #16]	; (100006d0 <_ZNK8nlohmann10basic_jsonISt3mapSt6vectorNSt7__cxx1112basic_stringIcSt11char_traitsIcESaIcEEEbxydSaNS_14adl_serializerES2_IhSaIhEEE16assert_invariantEb+0x6c>)
100006be:	f002 fbf5 	bl	10002eac <__assert_func>
100006c2:	46c0      	nop			; (mov r8, r8)
100006c4:	10013598 	.word	0x10013598
100006c8:	100135d0 	.word	0x100135d0
100006cc:	000045b2 	.word	0x000045b2
100006d0:	10013390 	.word	0x10013390
100006d4:	100137f4 	.word	0x100137f4
100006d8:	000045b3 	.word	0x000045b3
100006dc:	1001382c 	.word	0x1001382c
100006e0:	000045b4 	.word	0x000045b4
100006e4:	10013864 	.word	0x10013864
100006e8:	000045b5 	.word	0x000045b5

100006ec <_ZN8nlohmann10basic_jsonISt3mapSt6vectorNSt7__cxx1112basic_stringIcSt11char_traitsIcESaIcEEEbxydSaNS_14adl_serializerES2_IhSaIhEEEC1EDn>:
100006ec:	b510      	push	{r4, lr}
100006ee:	0004      	movs	r4, r0
100006f0:	2300      	movs	r3, #0
100006f2:	7003      	strb	r3, [r0, #0]
100006f4:	6083      	str	r3, [r0, #8]
100006f6:	2101      	movs	r1, #1
100006f8:	f7ff ffb4 	bl	10000664 <_ZNK8nlohmann10basic_jsonISt3mapSt6vectorNSt7__cxx1112basic_stringIcSt11char_traitsIcESaIcEEEbxydSaNS_14adl_serializerES2_IhSaIhEEE16assert_invariantEb>
100006fc:	7823      	ldrb	r3, [r4, #0]
100006fe:	2b01      	cmp	r3, #1
10000700:	d007      	beq.n	10000712 <_ZN8nlohmann10basic_jsonISt3mapSt6vectorNSt7__cxx1112basic_stringIcSt11char_traitsIcESaIcEEEbxydSaNS_14adl_serializerES2_IhSaIhEEEC1EDn+0x26>
10000702:	2b02      	cmp	r3, #2
10000704:	d00e      	beq.n	10000724 <_ZN8nlohmann10basic_jsonISt3mapSt6vectorNSt7__cxx1112basic_stringIcSt11char_traitsIcESaIcEEEbxydSaNS_14adl_serializerES2_IhSaIhEEEC1EDn+0x38>
10000706:	2b03      	cmp	r3, #3
10000708:	d015      	beq.n	10000736 <_ZN8nlohmann10basic_jsonISt3mapSt6vectorNSt7__cxx1112basic_stringIcSt11char_traitsIcESaIcEEEbxydSaNS_14adl_serializerES2_IhSaIhEEEC1EDn+0x4a>
1000070a:	2b08      	cmp	r3, #8
1000070c:	d01c      	beq.n	10000748 <_ZN8nlohmann10basic_jsonISt3mapSt6vectorNSt7__cxx1112basic_stringIcSt11char_traitsIcESaIcEEEbxydSaNS_14adl_serializerES2_IhSaIhEEEC1EDn+0x5c>
1000070e:	0020      	movs	r0, r4
10000710:	bd10      	pop	{r4, pc}
10000712:	68a2      	ldr	r2, [r4, #8]
10000714:	2a00      	cmp	r2, #0
10000716:	d1f4      	bne.n	10000702 <_ZN8nlohmann10basic_jsonISt3mapSt6vectorNSt7__cxx1112basic_stringIcSt11char_traitsIcESaIcEEEbxydSaNS_14adl_serializerES2_IhSaIhEEEC1EDn+0x16>
10000718:	4b10      	ldr	r3, [pc, #64]	; (1000075c <_ZN8nlohmann10basic_jsonISt3mapSt6vectorNSt7__cxx1112basic_stringIcSt11char_traitsIcESaIcEEEbxydSaNS_14adl_serializerES2_IhSaIhEEEC1EDn+0x70>)
1000071a:	4a11      	ldr	r2, [pc, #68]	; (10000760 <_ZN8nlohmann10basic_jsonISt3mapSt6vectorNSt7__cxx1112basic_stringIcSt11char_traitsIcESaIcEEEbxydSaNS_14adl_serializerES2_IhSaIhEEEC1EDn+0x74>)
1000071c:	4911      	ldr	r1, [pc, #68]	; (10000764 <_ZN8nlohmann10basic_jsonISt3mapSt6vectorNSt7__cxx1112basic_stringIcSt11char_traitsIcESaIcEEEbxydSaNS_14adl_serializerES2_IhSaIhEEEC1EDn+0x78>)
1000071e:	4812      	ldr	r0, [pc, #72]	; (10000768 <_ZN8nlohmann10basic_jsonISt3mapSt6vectorNSt7__cxx1112basic_stringIcSt11char_traitsIcESaIcEEEbxydSaNS_14adl_serializerES2_IhSaIhEEEC1EDn+0x7c>)
10000720:	f002 fbc4 	bl	10002eac <__assert_func>
10000724:	68a2      	ldr	r2, [r4, #8]
10000726:	2a00      	cmp	r2, #0
10000728:	d1ed      	bne.n	10000706 <_ZN8nlohmann10basic_jsonISt3mapSt6vectorNSt7__cxx1112basic_stringIcSt11char_traitsIcESaIcEEEbxydSaNS_14adl_serializerES2_IhSaIhEEEC1EDn+0x1a>
1000072a:	4b10      	ldr	r3, [pc, #64]	; (1000076c <_ZN8nlohmann10basic_jsonISt3mapSt6vectorNSt7__cxx1112basic_stringIcSt11char_traitsIcESaIcEEEbxydSaNS_14adl_serializerES2_IhSaIhEEEC1EDn+0x80>)
1000072c:	4a0c      	ldr	r2, [pc, #48]	; (10000760 <_ZN8nlohmann10basic_jsonISt3mapSt6vectorNSt7__cxx1112basic_stringIcSt11char_traitsIcESaIcEEEbxydSaNS_14adl_serializerES2_IhSaIhEEEC1EDn+0x74>)
1000072e:	4910      	ldr	r1, [pc, #64]	; (10000770 <_ZN8nlohmann10basic_jsonISt3mapSt6vectorNSt7__cxx1112basic_stringIcSt11char_traitsIcESaIcEEEbxydSaNS_14adl_serializerES2_IhSaIhEEEC1EDn+0x84>)
10000730:	480d      	ldr	r0, [pc, #52]	; (10000768 <_ZN8nlohmann10basic_jsonISt3mapSt6vectorNSt7__cxx1112basic_stringIcSt11char_traitsIcESaIcEEEbxydSaNS_14adl_serializerES2_IhSaIhEEEC1EDn+0x7c>)
10000732:	f002 fbbb 	bl	10002eac <__assert_func>
10000736:	68a2      	ldr	r2, [r4, #8]
10000738:	2a00      	cmp	r2, #0
1000073a:	d1e6      	bne.n	1000070a <_ZN8nlohmann10basic_jsonISt3mapSt6vectorNSt7__cxx1112basic_stringIcSt11char_traitsIcESaIcEEEbxydSaNS_14adl_serializerES2_IhSaIhEEEC1EDn+0x1e>
1000073c:	4b0d      	ldr	r3, [pc, #52]	; (10000774 <_ZN8nlohmann10basic_jsonISt3mapSt6vectorNSt7__cxx1112basic_stringIcSt11char_traitsIcESaIcEEEbxydSaNS_14adl_serializerES2_IhSaIhEEEC1EDn+0x88>)
1000073e:	4a08      	ldr	r2, [pc, #32]	; (10000760 <_ZN8nlohmann10basic_jsonISt3mapSt6vectorNSt7__cxx1112basic_stringIcSt11char_traitsIcESaIcEEEbxydSaNS_14adl_serializerES2_IhSaIhEEEC1EDn+0x74>)
10000740:	490d      	ldr	r1, [pc, #52]	; (10000778 <_ZN8nlohmann10basic_jsonISt3mapSt6vectorNSt7__cxx1112basic_stringIcSt11char_traitsIcESaIcEEEbxydSaNS_14adl_serializerES2_IhSaIhEEEC1EDn+0x8c>)
10000742:	4809      	ldr	r0, [pc, #36]	; (10000768 <_ZN8nlohmann10basic_jsonISt3mapSt6vectorNSt7__cxx1112basic_stringIcSt11char_traitsIcESaIcEEEbxydSaNS_14adl_serializerES2_IhSaIhEEEC1EDn+0x7c>)
10000744:	f002 fbb2 	bl	10002eac <__assert_func>
10000748:	68a3      	ldr	r3, [r4, #8]
1000074a:	2b00      	cmp	r3, #0
1000074c:	d1df      	bne.n	1000070e <_ZN8nlohmann10basic_jsonISt3mapSt6vectorNSt7__cxx1112basic_stringIcSt11char_traitsIcESaIcEEEbxydSaNS_14adl_serializerES2_IhSaIhEEEC1EDn+0x22>
1000074e:	4b0b      	ldr	r3, [pc, #44]	; (1000077c <_ZN8nlohmann10basic_jsonISt3mapSt6vectorNSt7__cxx1112basic_stringIcSt11char_traitsIcESaIcEEEbxydSaNS_14adl_serializerES2_IhSaIhEEEC1EDn+0x90>)
10000750:	4a03      	ldr	r2, [pc, #12]	; (10000760 <_ZN8nlohmann10basic_jsonISt3mapSt6vectorNSt7__cxx1112basic_stringIcSt11char_traitsIcESaIcEEEbxydSaNS_14adl_serializerES2_IhSaIhEEEC1EDn+0x74>)
10000752:	490b      	ldr	r1, [pc, #44]	; (10000780 <_ZN8nlohmann10basic_jsonISt3mapSt6vectorNSt7__cxx1112basic_stringIcSt11char_traitsIcESaIcEEEbxydSaNS_14adl_serializerES2_IhSaIhEEEC1EDn+0x94>)
10000754:	4804      	ldr	r0, [pc, #16]	; (10000768 <_ZN8nlohmann10basic_jsonISt3mapSt6vectorNSt7__cxx1112basic_stringIcSt11char_traitsIcESaIcEEEbxydSaNS_14adl_serializerES2_IhSaIhEEEC1EDn+0x7c>)
10000756:	f002 fba9 	bl	10002eac <__assert_func>
1000075a:	46c0      	nop			; (mov r8, r8)
1000075c:	10013598 	.word	0x10013598
10000760:	100135d0 	.word	0x100135d0
10000764:	000045b2 	.word	0x000045b2
10000768:	10013390 	.word	0x10013390
1000076c:	100137f4 	.word	0x100137f4
10000770:	000045b3 	.word	0x000045b3
10000774:	1001382c 	.word	0x1001382c
10000778:	000045b4 	.word	0x000045b4
1000077c:	10013864 	.word	0x10013864
10000780:	000045b5 	.word	0x000045b5

10000784 <_ZSt12__niter_baseIPN8nlohmann10basic_jsonISt3mapSt6vectorNSt7__cxx1112basic_stringIcSt11char_traitsIcESaIcEEEbxydSaNS0_14adl_serializerES3_IhSaIhEEEES3_ISD_SaISD_EEET_N9__gnu_cxx17__normal_iteratorISH_T0_EE>:
10000784:	4770      	bx	lr
	...

10000788 <_ZSt14__relocate_a_1IPN8nlohmann10basic_jsonISt3mapSt6vectorNSt7__cxx1112basic_stringIcSt11char_traitsIcESaIcEEEbxydSaNS0_14adl_serializerES3_IhSaIhEEEESE_SaISD_EET0_T_SH_SG_RT1_>:
10000788:	b570      	push	{r4, r5, r6, lr}
1000078a:	0004      	movs	r4, r0
1000078c:	000e      	movs	r6, r1
1000078e:	0015      	movs	r5, r2
10000790:	e069      	b.n	10000866 <_ZSt14__relocate_a_1IPN8nlohmann10basic_jsonISt3mapSt6vectorNSt7__cxx1112basic_stringIcSt11char_traitsIcESaIcEEEbxydSaNS0_14adl_serializerES3_IhSaIhEEEESE_SaISD_EET0_T_SH_SG_RT1_+0xde>
10000792:	68a2      	ldr	r2, [r4, #8]
10000794:	2a00      	cmp	r2, #0
10000796:	d171      	bne.n	1000087c <_ZSt14__relocate_a_1IPN8nlohmann10basic_jsonISt3mapSt6vectorNSt7__cxx1112basic_stringIcSt11char_traitsIcESaIcEEEbxydSaNS0_14adl_serializerES3_IhSaIhEEEESE_SaISD_EET0_T_SH_SG_RT1_+0xf4>
10000798:	4b4d      	ldr	r3, [pc, #308]	; (100008d0 <_ZSt14__relocate_a_1IPN8nlohmann10basic_jsonISt3mapSt6vectorNSt7__cxx1112basic_stringIcSt11char_traitsIcESaIcEEEbxydSaNS0_14adl_serializerES3_IhSaIhEEEESE_SaISD_EET0_T_SH_SG_RT1_+0x148>)
1000079a:	4a4e      	ldr	r2, [pc, #312]	; (100008d4 <_ZSt14__relocate_a_1IPN8nlohmann10basic_jsonISt3mapSt6vectorNSt7__cxx1112basic_stringIcSt11char_traitsIcESaIcEEEbxydSaNS0_14adl_serializerES3_IhSaIhEEEESE_SaISD_EET0_T_SH_SG_RT1_+0x14c>)
1000079c:	494e      	ldr	r1, [pc, #312]	; (100008d8 <_ZSt14__relocate_a_1IPN8nlohmann10basic_jsonISt3mapSt6vectorNSt7__cxx1112basic_stringIcSt11char_traitsIcESaIcEEEbxydSaNS0_14adl_serializerES3_IhSaIhEEEESE_SaISD_EET0_T_SH_SG_RT1_+0x150>)
1000079e:	484f      	ldr	r0, [pc, #316]	; (100008dc <_ZSt14__relocate_a_1IPN8nlohmann10basic_jsonISt3mapSt6vectorNSt7__cxx1112basic_stringIcSt11char_traitsIcESaIcEEEbxydSaNS0_14adl_serializerES3_IhSaIhEEEESE_SaISD_EET0_T_SH_SG_RT1_+0x154>)
100007a0:	f002 fb84 	bl	10002eac <__assert_func>
100007a4:	68a2      	ldr	r2, [r4, #8]
100007a6:	2a00      	cmp	r2, #0
100007a8:	d16a      	bne.n	10000880 <_ZSt14__relocate_a_1IPN8nlohmann10basic_jsonISt3mapSt6vectorNSt7__cxx1112basic_stringIcSt11char_traitsIcESaIcEEEbxydSaNS0_14adl_serializerES3_IhSaIhEEEESE_SaISD_EET0_T_SH_SG_RT1_+0xf8>
100007aa:	4b4d      	ldr	r3, [pc, #308]	; (100008e0 <_ZSt14__relocate_a_1IPN8nlohmann10basic_jsonISt3mapSt6vectorNSt7__cxx1112basic_stringIcSt11char_traitsIcESaIcEEEbxydSaNS0_14adl_serializerES3_IhSaIhEEEESE_SaISD_EET0_T_SH_SG_RT1_+0x158>)
100007ac:	4a49      	ldr	r2, [pc, #292]	; (100008d4 <_ZSt14__relocate_a_1IPN8nlohmann10basic_jsonISt3mapSt6vectorNSt7__cxx1112basic_stringIcSt11char_traitsIcESaIcEEEbxydSaNS0_14adl_serializerES3_IhSaIhEEEESE_SaISD_EET0_T_SH_SG_RT1_+0x14c>)
100007ae:	494d      	ldr	r1, [pc, #308]	; (100008e4 <_ZSt14__relocate_a_1IPN8nlohmann10basic_jsonISt3mapSt6vectorNSt7__cxx1112basic_stringIcSt11char_traitsIcESaIcEEEbxydSaNS0_14adl_serializerES3_IhSaIhEEEESE_SaISD_EET0_T_SH_SG_RT1_+0x15c>)
100007b0:	484a      	ldr	r0, [pc, #296]	; (100008dc <_ZSt14__relocate_a_1IPN8nlohmann10basic_jsonISt3mapSt6vectorNSt7__cxx1112basic_stringIcSt11char_traitsIcESaIcEEEbxydSaNS0_14adl_serializerES3_IhSaIhEEEESE_SaISD_EET0_T_SH_SG_RT1_+0x154>)
100007b2:	f002 fb7b 	bl	10002eac <__assert_func>
100007b6:	68a2      	ldr	r2, [r4, #8]
100007b8:	2a00      	cmp	r2, #0
100007ba:	d163      	bne.n	10000884 <_ZSt14__relocate_a_1IPN8nlohmann10basic_jsonISt3mapSt6vectorNSt7__cxx1112basic_stringIcSt11char_traitsIcESaIcEEEbxydSaNS0_14adl_serializerES3_IhSaIhEEEESE_SaISD_EET0_T_SH_SG_RT1_+0xfc>
100007bc:	4b4a      	ldr	r3, [pc, #296]	; (100008e8 <_ZSt14__relocate_a_1IPN8nlohmann10basic_jsonISt3mapSt6vectorNSt7__cxx1112basic_stringIcSt11char_traitsIcESaIcEEEbxydSaNS0_14adl_serializerES3_IhSaIhEEEESE_SaISD_EET0_T_SH_SG_RT1_+0x160>)
100007be:	4a45      	ldr	r2, [pc, #276]	; (100008d4 <_ZSt14__relocate_a_1IPN8nlohmann10basic_jsonISt3mapSt6vectorNSt7__cxx1112basic_stringIcSt11char_traitsIcESaIcEEEbxydSaNS0_14adl_serializerES3_IhSaIhEEEESE_SaISD_EET0_T_SH_SG_RT1_+0x14c>)
100007c0:	494a      	ldr	r1, [pc, #296]	; (100008ec <_ZSt14__relocate_a_1IPN8nlohmann10basic_jsonISt3mapSt6vectorNSt7__cxx1112basic_stringIcSt11char_traitsIcESaIcEEEbxydSaNS0_14adl_serializerES3_IhSaIhEEEESE_SaISD_EET0_T_SH_SG_RT1_+0x164>)
100007c2:	4846      	ldr	r0, [pc, #280]	; (100008dc <_ZSt14__relocate_a_1IPN8nlohmann10basic_jsonISt3mapSt6vectorNSt7__cxx1112basic_stringIcSt11char_traitsIcESaIcEEEbxydSaNS0_14adl_serializerES3_IhSaIhEEEESE_SaISD_EET0_T_SH_SG_RT1_+0x154>)
100007c4:	f002 fb72 	bl	10002eac <__assert_func>
100007c8:	68a3      	ldr	r3, [r4, #8]
100007ca:	2b00      	cmp	r3, #0
100007cc:	d15c      	bne.n	10000888 <_ZSt14__relocate_a_1IPN8nlohmann10basic_jsonISt3mapSt6vectorNSt7__cxx1112basic_stringIcSt11char_traitsIcESaIcEEEbxydSaNS0_14adl_serializerES3_IhSaIhEEEESE_SaISD_EET0_T_SH_SG_RT1_+0x100>
100007ce:	4b48      	ldr	r3, [pc, #288]	; (100008f0 <_ZSt14__relocate_a_1IPN8nlohmann10basic_jsonISt3mapSt6vectorNSt7__cxx1112basic_stringIcSt11char_traitsIcESaIcEEEbxydSaNS0_14adl_serializerES3_IhSaIhEEEESE_SaISD_EET0_T_SH_SG_RT1_+0x168>)
100007d0:	4a40      	ldr	r2, [pc, #256]	; (100008d4 <_ZSt14__relocate_a_1IPN8nlohmann10basic_jsonISt3mapSt6vectorNSt7__cxx1112basic_stringIcSt11char_traitsIcESaIcEEEbxydSaNS0_14adl_serializerES3_IhSaIhEEEESE_SaISD_EET0_T_SH_SG_RT1_+0x14c>)
100007d2:	4948      	ldr	r1, [pc, #288]	; (100008f4 <_ZSt14__relocate_a_1IPN8nlohmann10basic_jsonISt3mapSt6vectorNSt7__cxx1112basic_stringIcSt11char_traitsIcESaIcEEEbxydSaNS0_14adl_serializerES3_IhSaIhEEEESE_SaISD_EET0_T_SH_SG_RT1_+0x16c>)
100007d4:	4841      	ldr	r0, [pc, #260]	; (100008dc <_ZSt14__relocate_a_1IPN8nlohmann10basic_jsonISt3mapSt6vectorNSt7__cxx1112basic_stringIcSt11char_traitsIcESaIcEEEbxydSaNS0_14adl_serializerES3_IhSaIhEEEESE_SaISD_EET0_T_SH_SG_RT1_+0x154>)
100007d6:	f002 fb69 	bl	10002eac <__assert_func>
100007da:	68aa      	ldr	r2, [r5, #8]
100007dc:	2a00      	cmp	r2, #0
100007de:	d15c      	bne.n	1000089a <_ZSt14__relocate_a_1IPN8nlohmann10basic_jsonISt3mapSt6vectorNSt7__cxx1112basic_stringIcSt11char_traitsIcESaIcEEEbxydSaNS0_14adl_serializerES3_IhSaIhEEEESE_SaISD_EET0_T_SH_SG_RT1_+0x112>
100007e0:	4b3b      	ldr	r3, [pc, #236]	; (100008d0 <_ZSt14__relocate_a_1IPN8nlohmann10basic_jsonISt3mapSt6vectorNSt7__cxx1112basic_stringIcSt11char_traitsIcESaIcEEEbxydSaNS0_14adl_serializerES3_IhSaIhEEEESE_SaISD_EET0_T_SH_SG_RT1_+0x148>)
100007e2:	4a3c      	ldr	r2, [pc, #240]	; (100008d4 <_ZSt14__relocate_a_1IPN8nlohmann10basic_jsonISt3mapSt6vectorNSt7__cxx1112basic_stringIcSt11char_traitsIcESaIcEEEbxydSaNS0_14adl_serializerES3_IhSaIhEEEESE_SaISD_EET0_T_SH_SG_RT1_+0x14c>)
100007e4:	493c      	ldr	r1, [pc, #240]	; (100008d8 <_ZSt14__relocate_a_1IPN8nlohmann10basic_jsonISt3mapSt6vectorNSt7__cxx1112basic_stringIcSt11char_traitsIcESaIcEEEbxydSaNS0_14adl_serializerES3_IhSaIhEEEESE_SaISD_EET0_T_SH_SG_RT1_+0x150>)
100007e6:	483d      	ldr	r0, [pc, #244]	; (100008dc <_ZSt14__relocate_a_1IPN8nlohmann10basic_jsonISt3mapSt6vectorNSt7__cxx1112basic_stringIcSt11char_traitsIcESaIcEEEbxydSaNS0_14adl_serializerES3_IhSaIhEEEESE_SaISD_EET0_T_SH_SG_RT1_+0x154>)
100007e8:	f002 fb60 	bl	10002eac <__assert_func>
100007ec:	68aa      	ldr	r2, [r5, #8]
100007ee:	2a00      	cmp	r2, #0
100007f0:	d155      	bne.n	1000089e <_ZSt14__relocate_a_1IPN8nlohmann10basic_jsonISt3mapSt6vectorNSt7__cxx1112basic_stringIcSt11char_traitsIcESaIcEEEbxydSaNS0_14adl_serializerES3_IhSaIhEEEESE_SaISD_EET0_T_SH_SG_RT1_+0x116>
100007f2:	4b3b      	ldr	r3, [pc, #236]	; (100008e0 <_ZSt14__relocate_a_1IPN8nlohmann10basic_jsonISt3mapSt6vectorNSt7__cxx1112basic_stringIcSt11char_traitsIcESaIcEEEbxydSaNS0_14adl_serializerES3_IhSaIhEEEESE_SaISD_EET0_T_SH_SG_RT1_+0x158>)
100007f4:	4a37      	ldr	r2, [pc, #220]	; (100008d4 <_ZSt14__relocate_a_1IPN8nlohmann10basic_jsonISt3mapSt6vectorNSt7__cxx1112basic_stringIcSt11char_traitsIcESaIcEEEbxydSaNS0_14adl_serializerES3_IhSaIhEEEESE_SaISD_EET0_T_SH_SG_RT1_+0x14c>)
100007f6:	493b      	ldr	r1, [pc, #236]	; (100008e4 <_ZSt14__relocate_a_1IPN8nlohmann10basic_jsonISt3mapSt6vectorNSt7__cxx1112basic_stringIcSt11char_traitsIcESaIcEEEbxydSaNS0_14adl_serializerES3_IhSaIhEEEESE_SaISD_EET0_T_SH_SG_RT1_+0x15c>)
100007f8:	4838      	ldr	r0, [pc, #224]	; (100008dc <_ZSt14__relocate_a_1IPN8nlohmann10basic_jsonISt3mapSt6vectorNSt7__cxx1112basic_stringIcSt11char_traitsIcESaIcEEEbxydSaNS0_14adl_serializerES3_IhSaIhEEEESE_SaISD_EET0_T_SH_SG_RT1_+0x154>)
100007fa:	f002 fb57 	bl	10002eac <__assert_func>
100007fe:	68aa      	ldr	r2, [r5, #8]
10000800:	2a00      	cmp	r2, #0
10000802:	d14e      	bne.n	100008a2 <_ZSt14__relocate_a_1IPN8nlohmann10basic_jsonISt3mapSt6vectorNSt7__cxx1112basic_stringIcSt11char_traitsIcESaIcEEEbxydSaNS0_14adl_serializerES3_IhSaIhEEEESE_SaISD_EET0_T_SH_SG_RT1_+0x11a>
10000804:	4b38      	ldr	r3, [pc, #224]	; (100008e8 <_ZSt14__relocate_a_1IPN8nlohmann10basic_jsonISt3mapSt6vectorNSt7__cxx1112basic_stringIcSt11char_traitsIcESaIcEEEbxydSaNS0_14adl_serializerES3_IhSaIhEEEESE_SaISD_EET0_T_SH_SG_RT1_+0x160>)
10000806:	4a33      	ldr	r2, [pc, #204]	; (100008d4 <_ZSt14__relocate_a_1IPN8nlohmann10basic_jsonISt3mapSt6vectorNSt7__cxx1112basic_stringIcSt11char_traitsIcESaIcEEEbxydSaNS0_14adl_serializerES3_IhSaIhEEEESE_SaISD_EET0_T_SH_SG_RT1_+0x14c>)
10000808:	4938      	ldr	r1, [pc, #224]	; (100008ec <_ZSt14__relocate_a_1IPN8nlohmann10basic_jsonISt3mapSt6vectorNSt7__cxx1112basic_stringIcSt11char_traitsIcESaIcEEEbxydSaNS0_14adl_serializerES3_IhSaIhEEEESE_SaISD_EET0_T_SH_SG_RT1_+0x164>)
1000080a:	4834      	ldr	r0, [pc, #208]	; (100008dc <_ZSt14__relocate_a_1IPN8nlohmann10basic_jsonISt3mapSt6vectorNSt7__cxx1112basic_stringIcSt11char_traitsIcESaIcEEEbxydSaNS0_14adl_serializerES3_IhSaIhEEEESE_SaISD_EET0_T_SH_SG_RT1_+0x154>)
1000080c:	f002 fb4e 	bl	10002eac <__assert_func>
10000810:	68ab      	ldr	r3, [r5, #8]
10000812:	2b00      	cmp	r3, #0
10000814:	d147      	bne.n	100008a6 <_ZSt14__relocate_a_1IPN8nlohmann10basic_jsonISt3mapSt6vectorNSt7__cxx1112basic_stringIcSt11char_traitsIcESaIcEEEbxydSaNS0_14adl_serializerES3_IhSaIhEEEESE_SaISD_EET0_T_SH_SG_RT1_+0x11e>
10000816:	4b36      	ldr	r3, [pc, #216]	; (100008f0 <_ZSt14__relocate_a_1IPN8nlohmann10basic_jsonISt3mapSt6vectorNSt7__cxx1112basic_stringIcSt11char_traitsIcESaIcEEEbxydSaNS0_14adl_serializerES3_IhSaIhEEEESE_SaISD_EET0_T_SH_SG_RT1_+0x168>)
10000818:	4a2e      	ldr	r2, [pc, #184]	; (100008d4 <_ZSt14__relocate_a_1IPN8nlohmann10basic_jsonISt3mapSt6vectorNSt7__cxx1112basic_stringIcSt11char_traitsIcESaIcEEEbxydSaNS0_14adl_serializerES3_IhSaIhEEEESE_SaISD_EET0_T_SH_SG_RT1_+0x14c>)
1000081a:	4936      	ldr	r1, [pc, #216]	; (100008f4 <_ZSt14__relocate_a_1IPN8nlohmann10basic_jsonISt3mapSt6vectorNSt7__cxx1112basic_stringIcSt11char_traitsIcESaIcEEEbxydSaNS0_14adl_serializerES3_IhSaIhEEEESE_SaISD_EET0_T_SH_SG_RT1_+0x16c>)
1000081c:	482f      	ldr	r0, [pc, #188]	; (100008dc <_ZSt14__relocate_a_1IPN8nlohmann10basic_jsonISt3mapSt6vectorNSt7__cxx1112basic_stringIcSt11char_traitsIcESaIcEEEbxydSaNS0_14adl_serializerES3_IhSaIhEEEESE_SaISD_EET0_T_SH_SG_RT1_+0x154>)
1000081e:	f002 fb45 	bl	10002eac <__assert_func>
10000822:	68a2      	ldr	r2, [r4, #8]
10000824:	2a00      	cmp	r2, #0
10000826:	d141      	bne.n	100008ac <_ZSt14__relocate_a_1IPN8nlohmann10basic_jsonISt3mapSt6vectorNSt7__cxx1112basic_stringIcSt11char_traitsIcESaIcEEEbxydSaNS0_14adl_serializerES3_IhSaIhEEEESE_SaISD_EET0_T_SH_SG_RT1_+0x124>
10000828:	4b29      	ldr	r3, [pc, #164]	; (100008d0 <_ZSt14__relocate_a_1IPN8nlohmann10basic_jsonISt3mapSt6vectorNSt7__cxx1112basic_stringIcSt11char_traitsIcESaIcEEEbxydSaNS0_14adl_serializerES3_IhSaIhEEEESE_SaISD_EET0_T_SH_SG_RT1_+0x148>)
1000082a:	4a2a      	ldr	r2, [pc, #168]	; (100008d4 <_ZSt14__relocate_a_1IPN8nlohmann10basic_jsonISt3mapSt6vectorNSt7__cxx1112basic_stringIcSt11char_traitsIcESaIcEEEbxydSaNS0_14adl_serializerES3_IhSaIhEEEESE_SaISD_EET0_T_SH_SG_RT1_+0x14c>)
1000082c:	492a      	ldr	r1, [pc, #168]	; (100008d8 <_ZSt14__relocate_a_1IPN8nlohmann10basic_jsonISt3mapSt6vectorNSt7__cxx1112basic_stringIcSt11char_traitsIcESaIcEEEbxydSaNS0_14adl_serializerES3_IhSaIhEEEESE_SaISD_EET0_T_SH_SG_RT1_+0x150>)
1000082e:	482b      	ldr	r0, [pc, #172]	; (100008dc <_ZSt14__relocate_a_1IPN8nlohmann10basic_jsonISt3mapSt6vectorNSt7__cxx1112basic_stringIcSt11char_traitsIcESaIcEEEbxydSaNS0_14adl_serializerES3_IhSaIhEEEESE_SaISD_EET0_T_SH_SG_RT1_+0x154>)
10000830:	f002 fb3c 	bl	10002eac <__assert_func>
10000834:	68a2      	ldr	r2, [r4, #8]
10000836:	2a00      	cmp	r2, #0
10000838:	d13a      	bne.n	100008b0 <_ZSt14__relocate_a_1IPN8nlohmann10basic_jsonISt3mapSt6vectorNSt7__cxx1112basic_stringIcSt11char_traitsIcESaIcEEEbxydSaNS0_14adl_serializerES3_IhSaIhEEEESE_SaISD_EET0_T_SH_SG_RT1_+0x128>
1000083a:	4b29      	ldr	r3, [pc, #164]	; (100008e0 <_ZSt14__relocate_a_1IPN8nlohmann10basic_jsonISt3mapSt6vectorNSt7__cxx1112basic_stringIcSt11char_traitsIcESaIcEEEbxydSaNS0_14adl_serializerES3_IhSaIhEEEESE_SaISD_EET0_T_SH_SG_RT1_+0x158>)
1000083c:	4a25      	ldr	r2, [pc, #148]	; (100008d4 <_ZSt14__relocate_a_1IPN8nlohmann10basic_jsonISt3mapSt6vectorNSt7__cxx1112basic_stringIcSt11char_traitsIcESaIcEEEbxydSaNS0_14adl_serializerES3_IhSaIhEEEESE_SaISD_EET0_T_SH_SG_RT1_+0x14c>)
1000083e:	4929      	ldr	r1, [pc, #164]	; (100008e4 <_ZSt14__relocate_a_1IPN8nlohmann10basic_jsonISt3mapSt6vectorNSt7__cxx1112basic_stringIcSt11char_traitsIcESaIcEEEbxydSaNS0_14adl_serializerES3_IhSaIhEEEESE_SaISD_EET0_T_SH_SG_RT1_+0x15c>)
10000840:	4826      	ldr	r0, [pc, #152]	; (100008dc <_ZSt14__relocate_a_1IPN8nlohmann10basic_jsonISt3mapSt6vectorNSt7__cxx1112basic_stringIcSt11char_traitsIcESaIcEEEbxydSaNS0_14adl_serializerES3_IhSaIhEEEESE_SaISD_EET0_T_SH_SG_RT1_+0x154>)
10000842:	f002 fb33 	bl	10002eac <__assert_func>
10000846:	68a2      	ldr	r2, [r4, #8]
10000848:	2a00      	cmp	r2, #0
1000084a:	d133      	bne.n	100008b4 <_ZSt14__relocate_a_1IPN8nlohmann10basic_jsonISt3mapSt6vectorNSt7__cxx1112basic_stringIcSt11char_traitsIcESaIcEEEbxydSaNS0_14adl_serializerES3_IhSaIhEEEESE_SaISD_EET0_T_SH_SG_RT1_+0x12c>
1000084c:	4b26      	ldr	r3, [pc, #152]	; (100008e8 <_ZSt14__relocate_a_1IPN8nlohmann10basic_jsonISt3mapSt6vectorNSt7__cxx1112basic_stringIcSt11char_traitsIcESaIcEEEbxydSaNS0_14adl_serializerES3_IhSaIhEEEESE_SaISD_EET0_T_SH_SG_RT1_+0x160>)
1000084e:	4a21      	ldr	r2, [pc, #132]	; (100008d4 <_ZSt14__relocate_a_1IPN8nlohmann10basic_jsonISt3mapSt6vectorNSt7__cxx1112basic_stringIcSt11char_traitsIcESaIcEEEbxydSaNS0_14adl_serializerES3_IhSaIhEEEESE_SaISD_EET0_T_SH_SG_RT1_+0x14c>)
10000850:	4926      	ldr	r1, [pc, #152]	; (100008ec <_ZSt14__relocate_a_1IPN8nlohmann10basic_jsonISt3mapSt6vectorNSt7__cxx1112basic_stringIcSt11char_traitsIcESaIcEEEbxydSaNS0_14adl_serializerES3_IhSaIhEEEESE_SaISD_EET0_T_SH_SG_RT1_+0x164>)
10000852:	4822      	ldr	r0, [pc, #136]	; (100008dc <_ZSt14__relocate_a_1IPN8nlohmann10basic_jsonISt3mapSt6vectorNSt7__cxx1112basic_stringIcSt11char_traitsIcESaIcEEEbxydSaNS0_14adl_serializerES3_IhSaIhEEEESE_SaISD_EET0_T_SH_SG_RT1_+0x154>)
10000854:	f002 fb2a 	bl	10002eac <__assert_func>
10000858:	7821      	ldrb	r1, [r4, #0]
1000085a:	0020      	movs	r0, r4
1000085c:	3008      	adds	r0, #8
1000085e:	f000 f927 	bl	10000ab0 <_ZN8nlohmann10basic_jsonISt3mapSt6vectorNSt7__cxx1112basic_stringIcSt11char_traitsIcESaIcEEEbxydSaNS_14adl_serializerES2_IhSaIhEEE10json_value7destroyENS_6detail7value_tE>
10000862:	3410      	adds	r4, #16
10000864:	3510      	adds	r5, #16
10000866:	42b4      	cmp	r4, r6
10000868:	d02f      	beq.n	100008ca <_ZSt14__relocate_a_1IPN8nlohmann10basic_jsonISt3mapSt6vectorNSt7__cxx1112basic_stringIcSt11char_traitsIcESaIcEEEbxydSaNS0_14adl_serializerES3_IhSaIhEEEESE_SaISD_EET0_T_SH_SG_RT1_+0x142>
1000086a:	7823      	ldrb	r3, [r4, #0]
1000086c:	702b      	strb	r3, [r5, #0]
1000086e:	68a2      	ldr	r2, [r4, #8]
10000870:	68e3      	ldr	r3, [r4, #12]
10000872:	60aa      	str	r2, [r5, #8]
10000874:	60eb      	str	r3, [r5, #12]
10000876:	7823      	ldrb	r3, [r4, #0]
10000878:	2b01      	cmp	r3, #1
1000087a:	d08a      	beq.n	10000792 <_ZSt14__relocate_a_1IPN8nlohmann10basic_jsonISt3mapSt6vectorNSt7__cxx1112basic_stringIcSt11char_traitsIcESaIcEEEbxydSaNS0_14adl_serializerES3_IhSaIhEEEESE_SaISD_EET0_T_SH_SG_RT1_+0xa>
1000087c:	2b02      	cmp	r3, #2
1000087e:	d091      	beq.n	100007a4 <_ZSt14__relocate_a_1IPN8nlohmann10basic_jsonISt3mapSt6vectorNSt7__cxx1112basic_stringIcSt11char_traitsIcESaIcEEEbxydSaNS0_14adl_serializerES3_IhSaIhEEEESE_SaISD_EET0_T_SH_SG_RT1_+0x1c>
10000880:	2b03      	cmp	r3, #3
10000882:	d098      	beq.n	100007b6 <_ZSt14__relocate_a_1IPN8nlohmann10basic_jsonISt3mapSt6vectorNSt7__cxx1112basic_stringIcSt11char_traitsIcESaIcEEEbxydSaNS0_14adl_serializerES3_IhSaIhEEEESE_SaISD_EET0_T_SH_SG_RT1_+0x2e>
10000884:	2b08      	cmp	r3, #8
10000886:	d09f      	beq.n	100007c8 <_ZSt14__relocate_a_1IPN8nlohmann10basic_jsonISt3mapSt6vectorNSt7__cxx1112basic_stringIcSt11char_traitsIcESaIcEEEbxydSaNS0_14adl_serializerES3_IhSaIhEEEESE_SaISD_EET0_T_SH_SG_RT1_+0x40>
10000888:	2300      	movs	r3, #0
1000088a:	7023      	strb	r3, [r4, #0]
1000088c:	2200      	movs	r2, #0
1000088e:	2300      	movs	r3, #0
10000890:	60a2      	str	r2, [r4, #8]
10000892:	60e3      	str	r3, [r4, #12]
10000894:	782b      	ldrb	r3, [r5, #0]
10000896:	2b01      	cmp	r3, #1
10000898:	d09f      	beq.n	100007da <_ZSt14__relocate_a_1IPN8nlohmann10basic_jsonISt3mapSt6vectorNSt7__cxx1112basic_stringIcSt11char_traitsIcESaIcEEEbxydSaNS0_14adl_serializerES3_IhSaIhEEEESE_SaISD_EET0_T_SH_SG_RT1_+0x52>
1000089a:	2b02      	cmp	r3, #2
1000089c:	d0a6      	beq.n	100007ec <_ZSt14__relocate_a_1IPN8nlohmann10basic_jsonISt3mapSt6vectorNSt7__cxx1112basic_stringIcSt11char_traitsIcESaIcEEEbxydSaNS0_14adl_serializerES3_IhSaIhEEEESE_SaISD_EET0_T_SH_SG_RT1_+0x64>
1000089e:	2b03      	cmp	r3, #3
100008a0:	d0ad      	beq.n	100007fe <_ZSt14__relocate_a_1IPN8nlohmann10basic_jsonISt3mapSt6vectorNSt7__cxx1112basic_stringIcSt11char_traitsIcESaIcEEEbxydSaNS0_14adl_serializerES3_IhSaIhEEEESE_SaISD_EET0_T_SH_SG_RT1_+0x76>
100008a2:	2b08      	cmp	r3, #8
100008a4:	d0b4      	beq.n	10000810 <_ZSt14__relocate_a_1IPN8nlohmann10basic_jsonISt3mapSt6vectorNSt7__cxx1112basic_stringIcSt11char_traitsIcESaIcEEEbxydSaNS0_14adl_serializerES3_IhSaIhEEEESE_SaISD_EET0_T_SH_SG_RT1_+0x88>
100008a6:	7823      	ldrb	r3, [r4, #0]
100008a8:	2b01      	cmp	r3, #1
100008aa:	d0ba      	beq.n	10000822 <_ZSt14__relocate_a_1IPN8nlohmann10basic_jsonISt3mapSt6vectorNSt7__cxx1112basic_stringIcSt11char_traitsIcESaIcEEEbxydSaNS0_14adl_serializerES3_IhSaIhEEEESE_SaISD_EET0_T_SH_SG_RT1_+0x9a>
100008ac:	2b02      	cmp	r3, #2
100008ae:	d0c1      	beq.n	10000834 <_ZSt14__relocate_a_1IPN8nlohmann10basic_jsonISt3mapSt6vectorNSt7__cxx1112basic_stringIcSt11char_traitsIcESaIcEEEbxydSaNS0_14adl_serializerES3_IhSaIhEEEESE_SaISD_EET0_T_SH_SG_RT1_+0xac>
100008b0:	2b03      	cmp	r3, #3
100008b2:	d0c8      	beq.n	10000846 <_ZSt14__relocate_a_1IPN8nlohmann10basic_jsonISt3mapSt6vectorNSt7__cxx1112basic_stringIcSt11char_traitsIcESaIcEEEbxydSaNS0_14adl_serializerES3_IhSaIhEEEESE_SaISD_EET0_T_SH_SG_RT1_+0xbe>
100008b4:	2b08      	cmp	r3, #8
100008b6:	d1cf      	bne.n	10000858 <_ZSt14__relocate_a_1IPN8nlohmann10basic_jsonISt3mapSt6vectorNSt7__cxx1112basic_stringIcSt11char_traitsIcESaIcEEEbxydSaNS0_14adl_serializerES3_IhSaIhEEEESE_SaISD_EET0_T_SH_SG_RT1_+0xd0>
100008b8:	68a3      	ldr	r3, [r4, #8]
100008ba:	2b00      	cmp	r3, #0
100008bc:	d1cc      	bne.n	10000858 <_ZSt14__relocate_a_1IPN8nlohmann10basic_jsonISt3mapSt6vectorNSt7__cxx1112basic_stringIcSt11char_traitsIcESaIcEEEbxydSaNS0_14adl_serializerES3_IhSaIhEEEESE_SaISD_EET0_T_SH_SG_RT1_+0xd0>
100008be:	4b0c      	ldr	r3, [pc, #48]	; (100008f0 <_ZSt14__relocate_a_1IPN8nlohmann10basic_jsonISt3mapSt6vectorNSt7__cxx1112basic_stringIcSt11char_traitsIcESaIcEEEbxydSaNS0_14adl_serializerES3_IhSaIhEEEESE_SaISD_EET0_T_SH_SG_RT1_+0x168>)
100008c0:	4a04      	ldr	r2, [pc, #16]	; (100008d4 <_ZSt14__relocate_a_1IPN8nlohmann10basic_jsonISt3mapSt6vectorNSt7__cxx1112basic_stringIcSt11char_traitsIcESaIcEEEbxydSaNS0_14adl_serializerES3_IhSaIhEEEESE_SaISD_EET0_T_SH_SG_RT1_+0x14c>)
100008c2:	490c      	ldr	r1, [pc, #48]	; (100008f4 <_ZSt14__relocate_a_1IPN8nlohmann10basic_jsonISt3mapSt6vectorNSt7__cxx1112basic_stringIcSt11char_traitsIcESaIcEEEbxydSaNS0_14adl_serializerES3_IhSaIhEEEESE_SaISD_EET0_T_SH_SG_RT1_+0x16c>)
100008c4:	4805      	ldr	r0, [pc, #20]	; (100008dc <_ZSt14__relocate_a_1IPN8nlohmann10basic_jsonISt3mapSt6vectorNSt7__cxx1112basic_stringIcSt11char_traitsIcESaIcEEEbxydSaNS0_14adl_serializerES3_IhSaIhEEEESE_SaISD_EET0_T_SH_SG_RT1_+0x154>)
100008c6:	f002 faf1 	bl	10002eac <__assert_func>
100008ca:	0028      	movs	r0, r5
100008cc:	bd70      	pop	{r4, r5, r6, pc}
100008ce:	46c0      	nop			; (mov r8, r8)
100008d0:	10013598 	.word	0x10013598
100008d4:	100135d0 	.word	0x100135d0
100008d8:	000045b2 	.word	0x000045b2
100008dc:	10013390 	.word	0x10013390
100008e0:	100137f4 	.word	0x100137f4
100008e4:	000045b3 	.word	0x000045b3
100008e8:	1001382c 	.word	0x1001382c
100008ec:	000045b4 	.word	0x000045b4
100008f0:	10013864 	.word	0x10013864
100008f4:	000045b5 	.word	0x000045b5

100008f8 <_ZNSt6vectorIN8nlohmann10basic_jsonISt3mapS_NSt7__cxx1112basic_stringIcSt11char_traitsIcESaIcEEEbxydSaNS0_14adl_serializerES_IhSaIhEEEESaISC_EE7reserveEj>:
100008f8:	b5f8      	push	{r3, r4, r5, r6, r7, lr}
100008fa:	0004      	movs	r4, r0
100008fc:	000d      	movs	r5, r1
100008fe:	2380      	movs	r3, #128	; 0x80
10000900:	051b      	lsls	r3, r3, #20
10000902:	4299      	cmp	r1, r3
10000904:	d225      	bcs.n	10000952 <_ZNSt6vectorIN8nlohmann10basic_jsonISt3mapS_NSt7__cxx1112basic_stringIcSt11char_traitsIcESaIcEEEbxydSaNS0_14adl_serializerES_IhSaIhEEEESaISC_EE7reserveEj+0x5a>
10000906:	6807      	ldr	r7, [r0, #0]
10000908:	6883      	ldr	r3, [r0, #8]
1000090a:	1bdb      	subs	r3, r3, r7
1000090c:	111b      	asrs	r3, r3, #4
1000090e:	4299      	cmp	r1, r3
10000910:	d91e      	bls.n	10000950 <_ZNSt6vectorIN8nlohmann10basic_jsonISt3mapS_NSt7__cxx1112basic_stringIcSt11char_traitsIcESaIcEEEbxydSaNS0_14adl_serializerES_IhSaIhEEEESaISC_EE7reserveEj+0x58>
10000912:	6843      	ldr	r3, [r0, #4]
10000914:	1bdf      	subs	r7, r3, r7
10000916:	2900      	cmp	r1, #0
10000918:	d020      	beq.n	1000095c <_ZNSt6vectorIN8nlohmann10basic_jsonISt3mapS_NSt7__cxx1112basic_stringIcSt11char_traitsIcESaIcEEEbxydSaNS0_14adl_serializerES_IhSaIhEEEESaISC_EE7reserveEj+0x64>
1000091a:	2380      	movs	r3, #128	; 0x80
1000091c:	051b      	lsls	r3, r3, #20
1000091e:	4299      	cmp	r1, r3
10000920:	d21a      	bcs.n	10000958 <_ZNSt6vectorIN8nlohmann10basic_jsonISt3mapS_NSt7__cxx1112basic_stringIcSt11char_traitsIcESaIcEEEbxydSaNS0_14adl_serializerES_IhSaIhEEEESaISC_EE7reserveEj+0x60>
10000922:	0108      	lsls	r0, r1, #4
10000924:	f004 fe44 	bl	100055b0 <_Znwj>
10000928:	0006      	movs	r6, r0
1000092a:	0023      	movs	r3, r4
1000092c:	0032      	movs	r2, r6
1000092e:	6861      	ldr	r1, [r4, #4]
10000930:	6820      	ldr	r0, [r4, #0]
10000932:	f7ff ff29 	bl	10000788 <_ZSt14__relocate_a_1IPN8nlohmann10basic_jsonISt3mapSt6vectorNSt7__cxx1112basic_stringIcSt11char_traitsIcESaIcEEEbxydSaNS0_14adl_serializerES3_IhSaIhEEEESE_SaISD_EET0_T_SH_SG_RT1_>
10000936:	6820      	ldr	r0, [r4, #0]
10000938:	68a3      	ldr	r3, [r4, #8]
1000093a:	1a19      	subs	r1, r3, r0
1000093c:	2800      	cmp	r0, #0
1000093e:	d001      	beq.n	10000944 <_ZNSt6vectorIN8nlohmann10basic_jsonISt3mapS_NSt7__cxx1112basic_stringIcSt11char_traitsIcESaIcEEEbxydSaNS0_14adl_serializerES_IhSaIhEEEESaISC_EE7reserveEj+0x4c>
10000940:	f004 fe3e 	bl	100055c0 <_ZdlPvj>
10000944:	6026      	str	r6, [r4, #0]
10000946:	19f7      	adds	r7, r6, r7
10000948:	6067      	str	r7, [r4, #4]
1000094a:	012d      	lsls	r5, r5, #4
1000094c:	1975      	adds	r5, r6, r5
1000094e:	60a5      	str	r5, [r4, #8]
10000950:	bdf8      	pop	{r3, r4, r5, r6, r7, pc}
10000952:	4803      	ldr	r0, [pc, #12]	; (10000960 <_ZNSt6vectorIN8nlohmann10basic_jsonISt3mapS_NSt7__cxx1112basic_stringIcSt11char_traitsIcESaIcEEEbxydSaNS0_14adl_serializerES_IhSaIhEEEESaISC_EE7reserveEj+0x68>)
10000954:	f008 fe14 	bl	10009580 <_ZSt20__throw_length_errorPKc>
10000958:	f008 fdea 	bl	10009530 <_ZSt17__throw_bad_allocv>
1000095c:	2600      	movs	r6, #0
1000095e:	e7e4      	b.n	1000092a <_ZNSt6vectorIN8nlohmann10basic_jsonISt3mapS_NSt7__cxx1112basic_stringIcSt11char_traitsIcESaIcEEEbxydSaNS0_14adl_serializerES_IhSaIhEEEESaISC_EE7reserveEj+0x32>
10000960:	100138b8 	.word	0x100138b8

10000964 <_ZNSt6vectorIN8nlohmann10basic_jsonISt3mapS_NSt7__cxx1112basic_stringIcSt11char_traitsIcESaIcEEEbxydSaNS0_14adl_serializerES_IhSaIhEEEESaISC_EE17_M_realloc_insertIJSC_EEEvN9__gnu_cxx17__normal_iteratorIPSC_SE_EEDpOT_>:
10000964:	b5f0      	push	{r4, r5, r6, r7, lr}
10000966:	46de      	mov	lr, fp
10000968:	4657      	mov	r7, sl
1000096a:	464e      	mov	r6, r9
1000096c:	4645      	mov	r5, r8
1000096e:	b5e0      	push	{r5, r6, r7, lr}
10000970:	b083      	sub	sp, #12
10000972:	0005      	movs	r5, r0
10000974:	4688      	mov	r8, r1
10000976:	0017      	movs	r7, r2
10000978:	2301      	movs	r3, #1
1000097a:	9300      	str	r3, [sp, #0]
1000097c:	6843      	ldr	r3, [r0, #4]
1000097e:	6802      	ldr	r2, [r0, #0]
10000980:	1a9c      	subs	r4, r3, r2
10000982:	1124      	asrs	r4, r4, #4
10000984:	4a35      	ldr	r2, [pc, #212]	; (10000a5c <_ZNSt6vectorIN8nlohmann10basic_jsonISt3mapS_NSt7__cxx1112basic_stringIcSt11char_traitsIcESaIcEEEbxydSaNS0_14adl_serializerES_IhSaIhEEEESaISC_EE17_M_realloc_insertIJSC_EEEvN9__gnu_cxx17__normal_iteratorIPSC_SE_EEDpOT_+0xf8>)
10000986:	2101      	movs	r1, #1
10000988:	42a2      	cmp	r2, r4
1000098a:	d059      	beq.n	10000a40 <_ZNSt6vectorIN8nlohmann10basic_jsonISt3mapS_NSt7__cxx1112basic_stringIcSt11char_traitsIcESaIcEEEbxydSaNS0_14adl_serializerES_IhSaIhEEEESaISC_EE17_M_realloc_insertIJSC_EEEvN9__gnu_cxx17__normal_iteratorIPSC_SE_EEDpOT_+0xdc>
1000098c:	9401      	str	r4, [sp, #4]
1000098e:	428c      	cmp	r4, r1
10000990:	d359      	bcc.n	10000a46 <_ZNSt6vectorIN8nlohmann10basic_jsonISt3mapS_NSt7__cxx1112basic_stringIcSt11char_traitsIcESaIcEEEbxydSaNS0_14adl_serializerES_IhSaIhEEEESaISC_EE17_M_realloc_insertIJSC_EEEvN9__gnu_cxx17__normal_iteratorIPSC_SE_EEDpOT_+0xe2>
10000992:	aa01      	add	r2, sp, #4
10000994:	6812      	ldr	r2, [r2, #0]
10000996:	18a4      	adds	r4, r4, r2
10000998:	682a      	ldr	r2, [r5, #0]
1000099a:	1a9b      	subs	r3, r3, r2
1000099c:	111b      	asrs	r3, r3, #4
1000099e:	429c      	cmp	r4, r3
100009a0:	d353      	bcc.n	10000a4a <_ZNSt6vectorIN8nlohmann10basic_jsonISt3mapS_NSt7__cxx1112basic_stringIcSt11char_traitsIcESaIcEEEbxydSaNS0_14adl_serializerES_IhSaIhEEEESaISC_EE17_M_realloc_insertIJSC_EEEvN9__gnu_cxx17__normal_iteratorIPSC_SE_EEDpOT_+0xe6>
100009a2:	2380      	movs	r3, #128	; 0x80
100009a4:	051b      	lsls	r3, r3, #20
100009a6:	429c      	cmp	r4, r3
100009a8:	d251      	bcs.n	10000a4e <_ZNSt6vectorIN8nlohmann10basic_jsonISt3mapS_NSt7__cxx1112basic_stringIcSt11char_traitsIcESaIcEEEbxydSaNS0_14adl_serializerES_IhSaIhEEEESaISC_EE17_M_realloc_insertIJSC_EEEvN9__gnu_cxx17__normal_iteratorIPSC_SE_EEDpOT_+0xea>
100009aa:	682b      	ldr	r3, [r5, #0]
100009ac:	469a      	mov	sl, r3
100009ae:	686b      	ldr	r3, [r5, #4]
100009b0:	469b      	mov	fp, r3
100009b2:	4643      	mov	r3, r8
100009b4:	4652      	mov	r2, sl
100009b6:	1a9b      	subs	r3, r3, r2
100009b8:	4699      	mov	r9, r3
100009ba:	2c00      	cmp	r4, #0
100009bc:	d04b      	beq.n	10000a56 <_ZNSt6vectorIN8nlohmann10basic_jsonISt3mapS_NSt7__cxx1112basic_stringIcSt11char_traitsIcESaIcEEEbxydSaNS0_14adl_serializerES_IhSaIhEEEESaISC_EE17_M_realloc_insertIJSC_EEEvN9__gnu_cxx17__normal_iteratorIPSC_SE_EEDpOT_+0xf2>
100009be:	2380      	movs	r3, #128	; 0x80
100009c0:	051b      	lsls	r3, r3, #20
100009c2:	429c      	cmp	r4, r3
100009c4:	d245      	bcs.n	10000a52 <_ZNSt6vectorIN8nlohmann10basic_jsonISt3mapS_NSt7__cxx1112basic_stringIcSt11char_traitsIcESaIcEEEbxydSaNS0_14adl_serializerES_IhSaIhEEEESaISC_EE17_M_realloc_insertIJSC_EEEvN9__gnu_cxx17__normal_iteratorIPSC_SE_EEDpOT_+0xee>
100009c6:	0120      	lsls	r0, r4, #4
100009c8:	f004 fdf2 	bl	100055b0 <_Znwj>
100009cc:	0006      	movs	r6, r0
100009ce:	44b1      	add	r9, r6
100009d0:	783b      	ldrb	r3, [r7, #0]
100009d2:	464a      	mov	r2, r9
100009d4:	7013      	strb	r3, [r2, #0]
100009d6:	4649      	mov	r1, r9
100009d8:	68ba      	ldr	r2, [r7, #8]
100009da:	68fb      	ldr	r3, [r7, #12]
100009dc:	608a      	str	r2, [r1, #8]
100009de:	60cb      	str	r3, [r1, #12]
100009e0:	2100      	movs	r1, #0
100009e2:	0038      	movs	r0, r7
100009e4:	f7ff fe3e 	bl	10000664 <_ZNK8nlohmann10basic_jsonISt3mapSt6vectorNSt7__cxx1112basic_stringIcSt11char_traitsIcESaIcEEEbxydSaNS_14adl_serializerES2_IhSaIhEEE16assert_invariantEb>
100009e8:	2300      	movs	r3, #0
100009ea:	703b      	strb	r3, [r7, #0]
100009ec:	2200      	movs	r2, #0
100009ee:	2300      	movs	r3, #0
100009f0:	60ba      	str	r2, [r7, #8]
100009f2:	60fb      	str	r3, [r7, #12]
100009f4:	2101      	movs	r1, #1
100009f6:	4648      	mov	r0, r9
100009f8:	f7ff fe34 	bl	10000664 <_ZNK8nlohmann10basic_jsonISt3mapSt6vectorNSt7__cxx1112basic_stringIcSt11char_traitsIcESaIcEEEbxydSaNS_14adl_serializerES2_IhSaIhEEE16assert_invariantEb>
100009fc:	002b      	movs	r3, r5
100009fe:	0032      	movs	r2, r6
10000a00:	4641      	mov	r1, r8
10000a02:	4650      	mov	r0, sl
10000a04:	f7ff fec0 	bl	10000788 <_ZSt14__relocate_a_1IPN8nlohmann10basic_jsonISt3mapSt6vectorNSt7__cxx1112basic_stringIcSt11char_traitsIcESaIcEEEbxydSaNS0_14adl_serializerES3_IhSaIhEEEESE_SaISD_EET0_T_SH_SG_RT1_>
10000a08:	0002      	movs	r2, r0
10000a0a:	3210      	adds	r2, #16
10000a0c:	002b      	movs	r3, r5
10000a0e:	4659      	mov	r1, fp
10000a10:	4640      	mov	r0, r8
10000a12:	f7ff feb9 	bl	10000788 <_ZSt14__relocate_a_1IPN8nlohmann10basic_jsonISt3mapSt6vectorNSt7__cxx1112basic_stringIcSt11char_traitsIcESaIcEEEbxydSaNS0_14adl_serializerES3_IhSaIhEEEESE_SaISD_EET0_T_SH_SG_RT1_>
10000a16:	0007      	movs	r7, r0
10000a18:	68ab      	ldr	r3, [r5, #8]
10000a1a:	4652      	mov	r2, sl
10000a1c:	1a99      	subs	r1, r3, r2
10000a1e:	2a00      	cmp	r2, #0
10000a20:	d002      	beq.n	10000a28 <_ZNSt6vectorIN8nlohmann10basic_jsonISt3mapS_NSt7__cxx1112basic_stringIcSt11char_traitsIcESaIcEEEbxydSaNS0_14adl_serializerES_IhSaIhEEEESaISC_EE17_M_realloc_insertIJSC_EEEvN9__gnu_cxx17__normal_iteratorIPSC_SE_EEDpOT_+0xc4>
10000a22:	4650      	mov	r0, sl
10000a24:	f004 fdcc 	bl	100055c0 <_ZdlPvj>
10000a28:	602e      	str	r6, [r5, #0]
10000a2a:	606f      	str	r7, [r5, #4]
10000a2c:	0124      	lsls	r4, r4, #4
10000a2e:	1934      	adds	r4, r6, r4
10000a30:	60ac      	str	r4, [r5, #8]
10000a32:	b003      	add	sp, #12
10000a34:	bcf0      	pop	{r4, r5, r6, r7}
10000a36:	46bb      	mov	fp, r7
10000a38:	46b2      	mov	sl, r6
10000a3a:	46a9      	mov	r9, r5
10000a3c:	46a0      	mov	r8, r4
10000a3e:	bdf0      	pop	{r4, r5, r6, r7, pc}
10000a40:	4807      	ldr	r0, [pc, #28]	; (10000a60 <_ZNSt6vectorIN8nlohmann10basic_jsonISt3mapS_NSt7__cxx1112basic_stringIcSt11char_traitsIcESaIcEEEbxydSaNS0_14adl_serializerES_IhSaIhEEEESaISC_EE17_M_realloc_insertIJSC_EEEvN9__gnu_cxx17__normal_iteratorIPSC_SE_EEDpOT_+0xfc>)
10000a42:	f008 fd9d 	bl	10009580 <_ZSt20__throw_length_errorPKc>
10000a46:	466a      	mov	r2, sp
10000a48:	e7a4      	b.n	10000994 <_ZNSt6vectorIN8nlohmann10basic_jsonISt3mapS_NSt7__cxx1112basic_stringIcSt11char_traitsIcESaIcEEEbxydSaNS0_14adl_serializerES_IhSaIhEEEESaISC_EE17_M_realloc_insertIJSC_EEEvN9__gnu_cxx17__normal_iteratorIPSC_SE_EEDpOT_+0x30>
10000a4a:	4c04      	ldr	r4, [pc, #16]	; (10000a5c <_ZNSt6vectorIN8nlohmann10basic_jsonISt3mapS_NSt7__cxx1112basic_stringIcSt11char_traitsIcESaIcEEEbxydSaNS0_14adl_serializerES_IhSaIhEEEESaISC_EE17_M_realloc_insertIJSC_EEEvN9__gnu_cxx17__normal_iteratorIPSC_SE_EEDpOT_+0xf8>)
10000a4c:	e7ad      	b.n	100009aa <_ZNSt6vectorIN8nlohmann10basic_jsonISt3mapS_NSt7__cxx1112basic_stringIcSt11char_traitsIcESaIcEEEbxydSaNS0_14adl_serializerES_IhSaIhEEEESaISC_EE17_M_realloc_insertIJSC_EEEvN9__gnu_cxx17__normal_iteratorIPSC_SE_EEDpOT_+0x46>
10000a4e:	4c03      	ldr	r4, [pc, #12]	; (10000a5c <_ZNSt6vectorIN8nlohmann10basic_jsonISt3mapS_NSt7__cxx1112basic_stringIcSt11char_traitsIcESaIcEEEbxydSaNS0_14adl_serializerES_IhSaIhEEEESaISC_EE17_M_realloc_insertIJSC_EEEvN9__gnu_cxx17__normal_iteratorIPSC_SE_EEDpOT_+0xf8>)
10000a50:	e7ab      	b.n	100009aa <_ZNSt6vectorIN8nlohmann10basic_jsonISt3mapS_NSt7__cxx1112basic_stringIcSt11char_traitsIcESaIcEEEbxydSaNS0_14adl_serializerES_IhSaIhEEEESaISC_EE17_M_realloc_insertIJSC_EEEvN9__gnu_cxx17__normal_iteratorIPSC_SE_EEDpOT_+0x46>
10000a52:	f008 fd6d 	bl	10009530 <_ZSt17__throw_bad_allocv>
10000a56:	2600      	movs	r6, #0
10000a58:	e7b9      	b.n	100009ce <_ZNSt6vectorIN8nlohmann10basic_jsonISt3mapS_NSt7__cxx1112basic_stringIcSt11char_traitsIcESaIcEEEbxydSaNS0_14adl_serializerES_IhSaIhEEEESaISC_EE17_M_realloc_insertIJSC_EEEvN9__gnu_cxx17__normal_iteratorIPSC_SE_EEDpOT_+0x6a>
10000a5a:	46c0      	nop			; (mov r8, r8)
10000a5c:	07ffffff 	.word	0x07ffffff
10000a60:	1001389c 	.word	0x1001389c

10000a64 <_ZNSt6vectorIN8nlohmann10basic_jsonISt3mapS_NSt7__cxx1112basic_stringIcSt11char_traitsIcESaIcEEEbxydSaNS0_14adl_serializerES_IhSaIhEEEESaISC_EE12emplace_backIJSC_EEERSC_DpOT_>:
10000a64:	b570      	push	{r4, r5, r6, lr}
10000a66:	0004      	movs	r4, r0
10000a68:	000d      	movs	r5, r1
10000a6a:	6846      	ldr	r6, [r0, #4]
10000a6c:	6883      	ldr	r3, [r0, #8]
10000a6e:	429e      	cmp	r6, r3
10000a70:	d019      	beq.n	10000aa6 <_ZNSt6vectorIN8nlohmann10basic_jsonISt3mapS_NSt7__cxx1112basic_stringIcSt11char_traitsIcESaIcEEEbxydSaNS0_14adl_serializerES_IhSaIhEEEESaISC_EE12emplace_backIJSC_EEERSC_DpOT_+0x42>
10000a72:	780b      	ldrb	r3, [r1, #0]
10000a74:	7033      	strb	r3, [r6, #0]
10000a76:	688a      	ldr	r2, [r1, #8]
10000a78:	68cb      	ldr	r3, [r1, #12]
10000a7a:	60b2      	str	r2, [r6, #8]
10000a7c:	60f3      	str	r3, [r6, #12]
10000a7e:	2100      	movs	r1, #0
10000a80:	0028      	movs	r0, r5
10000a82:	f7ff fdef 	bl	10000664 <_ZNK8nlohmann10basic_jsonISt3mapSt6vectorNSt7__cxx1112basic_stringIcSt11char_traitsIcESaIcEEEbxydSaNS_14adl_serializerES2_IhSaIhEEE16assert_invariantEb>
10000a86:	2300      	movs	r3, #0
10000a88:	702b      	strb	r3, [r5, #0]
10000a8a:	2200      	movs	r2, #0
10000a8c:	2300      	movs	r3, #0
10000a8e:	60aa      	str	r2, [r5, #8]
10000a90:	60eb      	str	r3, [r5, #12]
10000a92:	2101      	movs	r1, #1
10000a94:	0030      	movs	r0, r6
10000a96:	f7ff fde5 	bl	10000664 <_ZNK8nlohmann10basic_jsonISt3mapSt6vectorNSt7__cxx1112basic_stringIcSt11char_traitsIcESaIcEEEbxydSaNS_14adl_serializerES2_IhSaIhEEE16assert_invariantEb>
10000a9a:	6863      	ldr	r3, [r4, #4]
10000a9c:	3310      	adds	r3, #16
10000a9e:	6063      	str	r3, [r4, #4]
10000aa0:	6860      	ldr	r0, [r4, #4]
10000aa2:	3810      	subs	r0, #16
10000aa4:	bd70      	pop	{r4, r5, r6, pc}
10000aa6:	000a      	movs	r2, r1
10000aa8:	0031      	movs	r1, r6
10000aaa:	f7ff ff5b 	bl	10000964 <_ZNSt6vectorIN8nlohmann10basic_jsonISt3mapS_NSt7__cxx1112basic_stringIcSt11char_traitsIcESaIcEEEbxydSaNS0_14adl_serializerES_IhSaIhEEEESaISC_EE17_M_realloc_insertIJSC_EEEvN9__gnu_cxx17__normal_iteratorIPSC_SE_EEDpOT_>
10000aae:	e7f7      	b.n	10000aa0 <_ZNSt6vectorIN8nlohmann10basic_jsonISt3mapS_NSt7__cxx1112basic_stringIcSt11char_traitsIcESaIcEEEbxydSaNS0_14adl_serializerES_IhSaIhEEEESaISC_EE12emplace_backIJSC_EEERSC_DpOT_+0x3c>

10000ab0 <_ZN8nlohmann10basic_jsonISt3mapSt6vectorNSt7__cxx1112basic_stringIcSt11char_traitsIcESaIcEEEbxydSaNS_14adl_serializerES2_IhSaIhEEE10json_value7destroyENS_6detail7value_tE>:
10000ab0:	b5f0      	push	{r4, r5, r6, r7, lr}
10000ab2:	46ce      	mov	lr, r9
10000ab4:	4647      	mov	r7, r8
10000ab6:	b580      	push	{r7, lr}
10000ab8:	b08b      	sub	sp, #44	; 0x2c
10000aba:	0006      	movs	r6, r0
10000abc:	000d      	movs	r5, r1
10000abe:	1e4b      	subs	r3, r1, #1
10000ac0:	b2db      	uxtb	r3, r3
10000ac2:	2b01      	cmp	r3, #1
10000ac4:	d915      	bls.n	10000af2 <_ZN8nlohmann10basic_jsonISt3mapSt6vectorNSt7__cxx1112basic_stringIcSt11char_traitsIcESaIcEEEbxydSaNS_14adl_serializerES2_IhSaIhEEE10json_value7destroyENS_6detail7value_tE+0x42>
10000ac6:	2d03      	cmp	r5, #3
10000ac8:	d100      	bne.n	10000acc <_ZN8nlohmann10basic_jsonISt3mapSt6vectorNSt7__cxx1112basic_stringIcSt11char_traitsIcESaIcEEEbxydSaNS_14adl_serializerES2_IhSaIhEEE10json_value7destroyENS_6detail7value_tE+0x1c>
10000aca:	e11c      	b.n	10000d06 <_ZN8nlohmann10basic_jsonISt3mapSt6vectorNSt7__cxx1112basic_stringIcSt11char_traitsIcESaIcEEEbxydSaNS_14adl_serializerES2_IhSaIhEEE10json_value7destroyENS_6detail7value_tE+0x256>
10000acc:	d900      	bls.n	10000ad0 <_ZN8nlohmann10basic_jsonISt3mapSt6vectorNSt7__cxx1112basic_stringIcSt11char_traitsIcESaIcEEEbxydSaNS_14adl_serializerES2_IhSaIhEEE10json_value7destroyENS_6detail7value_tE+0x20>
10000ace:	e0f2      	b.n	10000cb6 <_ZN8nlohmann10basic_jsonISt3mapSt6vectorNSt7__cxx1112basic_stringIcSt11char_traitsIcESaIcEEEbxydSaNS_14adl_serializerES2_IhSaIhEEE10json_value7destroyENS_6detail7value_tE+0x206>
10000ad0:	2d01      	cmp	r5, #1
10000ad2:	d100      	bne.n	10000ad6 <_ZN8nlohmann10basic_jsonISt3mapSt6vectorNSt7__cxx1112basic_stringIcSt11char_traitsIcESaIcEEEbxydSaNS_14adl_serializerES2_IhSaIhEEE10json_value7destroyENS_6detail7value_tE+0x26>
10000ad4:	e0fe      	b.n	10000cd4 <_ZN8nlohmann10basic_jsonISt3mapSt6vectorNSt7__cxx1112basic_stringIcSt11char_traitsIcESaIcEEEbxydSaNS_14adl_serializerES2_IhSaIhEEE10json_value7destroyENS_6detail7value_tE+0x224>
10000ad6:	2d02      	cmp	r5, #2
10000ad8:	d000      	beq.n	10000adc <_ZN8nlohmann10basic_jsonISt3mapSt6vectorNSt7__cxx1112basic_stringIcSt11char_traitsIcESaIcEEEbxydSaNS_14adl_serializerES2_IhSaIhEEE10json_value7destroyENS_6detail7value_tE+0x2c>
10000ada:	e103      	b.n	10000ce4 <_ZN8nlohmann10basic_jsonISt3mapSt6vectorNSt7__cxx1112basic_stringIcSt11char_traitsIcESaIcEEEbxydSaNS_14adl_serializerES2_IhSaIhEEE10json_value7destroyENS_6detail7value_tE+0x234>
10000adc:	6837      	ldr	r7, [r6, #0]
10000ade:	683c      	ldr	r4, [r7, #0]
10000ae0:	687d      	ldr	r5, [r7, #4]
10000ae2:	42a5      	cmp	r5, r4
10000ae4:	d100      	bne.n	10000ae8 <_ZN8nlohmann10basic_jsonISt3mapSt6vectorNSt7__cxx1112basic_stringIcSt11char_traitsIcESaIcEEEbxydSaNS_14adl_serializerES2_IhSaIhEEE10json_value7destroyENS_6detail7value_tE+0x38>
10000ae6:	e102      	b.n	10000cee <_ZN8nlohmann10basic_jsonISt3mapSt6vectorNSt7__cxx1112basic_stringIcSt11char_traitsIcESaIcEEEbxydSaNS_14adl_serializerES2_IhSaIhEEE10json_value7destroyENS_6detail7value_tE+0x23e>
10000ae8:	0020      	movs	r0, r4
10000aea:	f000 f929 	bl	10000d40 <_ZN8nlohmann10basic_jsonISt3mapSt6vectorNSt7__cxx1112basic_stringIcSt11char_traitsIcESaIcEEEbxydSaNS_14adl_serializerES2_IhSaIhEEED1Ev>
10000aee:	3410      	adds	r4, #16
10000af0:	e7f7      	b.n	10000ae2 <_ZN8nlohmann10basic_jsonISt3mapSt6vectorNSt7__cxx1112basic_stringIcSt11char_traitsIcESaIcEEEbxydSaNS_14adl_serializerES2_IhSaIhEEE10json_value7destroyENS_6detail7value_tE+0x32>
10000af2:	2300      	movs	r3, #0
10000af4:	9303      	str	r3, [sp, #12]
10000af6:	9304      	str	r3, [sp, #16]
10000af8:	9305      	str	r3, [sp, #20]
10000afa:	2902      	cmp	r1, #2
10000afc:	d013      	beq.n	10000b26 <_ZN8nlohmann10basic_jsonISt3mapSt6vectorNSt7__cxx1112basic_stringIcSt11char_traitsIcESaIcEEEbxydSaNS_14adl_serializerES2_IhSaIhEEE10json_value7destroyENS_6detail7value_tE+0x76>
10000afe:	6803      	ldr	r3, [r0, #0]
10000b00:	6959      	ldr	r1, [r3, #20]
10000b02:	a803      	add	r0, sp, #12
10000b04:	f7ff fef8 	bl	100008f8 <_ZNSt6vectorIN8nlohmann10basic_jsonISt3mapS_NSt7__cxx1112basic_stringIcSt11char_traitsIcESaIcEEEbxydSaNS0_14adl_serializerES_IhSaIhEEEESaISC_EE7reserveEj>
10000b08:	6837      	ldr	r7, [r6, #0]
10000b0a:	68fc      	ldr	r4, [r7, #12]
10000b0c:	3704      	adds	r7, #4
10000b0e:	42a7      	cmp	r7, r4
10000b10:	d053      	beq.n	10000bba <_ZN8nlohmann10basic_jsonISt3mapSt6vectorNSt7__cxx1112basic_stringIcSt11char_traitsIcESaIcEEEbxydSaNS_14adl_serializerES2_IhSaIhEEE10json_value7destroyENS_6detail7value_tE+0x10a>
10000b12:	0021      	movs	r1, r4
10000b14:	3128      	adds	r1, #40	; 0x28
10000b16:	a803      	add	r0, sp, #12
10000b18:	f7ff ffa4 	bl	10000a64 <_ZNSt6vectorIN8nlohmann10basic_jsonISt3mapS_NSt7__cxx1112basic_stringIcSt11char_traitsIcESaIcEEEbxydSaNS0_14adl_serializerES_IhSaIhEEEESaISC_EE12emplace_backIJSC_EEERSC_DpOT_>
10000b1c:	0020      	movs	r0, r4
10000b1e:	f008 fb9b 	bl	10009258 <_ZSt18_Rb_tree_incrementPSt18_Rb_tree_node_base>
10000b22:	0004      	movs	r4, r0
10000b24:	e7f3      	b.n	10000b0e <_ZN8nlohmann10basic_jsonISt3mapSt6vectorNSt7__cxx1112basic_stringIcSt11char_traitsIcESaIcEEEbxydSaNS_14adl_serializerES2_IhSaIhEEE10json_value7destroyENS_6detail7value_tE+0x5e>
10000b26:	6803      	ldr	r3, [r0, #0]
10000b28:	6859      	ldr	r1, [r3, #4]
10000b2a:	681b      	ldr	r3, [r3, #0]
10000b2c:	1ac9      	subs	r1, r1, r3
10000b2e:	1109      	asrs	r1, r1, #4
10000b30:	ac03      	add	r4, sp, #12
10000b32:	0020      	movs	r0, r4
10000b34:	f7ff fee0 	bl	100008f8 <_ZNSt6vectorIN8nlohmann10basic_jsonISt3mapS_NSt7__cxx1112basic_stringIcSt11char_traitsIcESaIcEEEbxydSaNS0_14adl_serializerES_IhSaIhEEEESaISC_EE7reserveEj>
10000b38:	6833      	ldr	r3, [r6, #0]
10000b3a:	6818      	ldr	r0, [r3, #0]
10000b3c:	685b      	ldr	r3, [r3, #4]
10000b3e:	4698      	mov	r8, r3
10000b40:	f7ff fe20 	bl	10000784 <_ZSt12__niter_baseIPN8nlohmann10basic_jsonISt3mapSt6vectorNSt7__cxx1112basic_stringIcSt11char_traitsIcESaIcEEEbxydSaNS0_14adl_serializerES3_IhSaIhEEEES3_ISD_SaISD_EEET_N9__gnu_cxx17__normal_iteratorISH_T0_EE>
10000b44:	0007      	movs	r7, r0
10000b46:	4640      	mov	r0, r8
10000b48:	f7ff fe1c 	bl	10000784 <_ZSt12__niter_baseIPN8nlohmann10basic_jsonISt3mapSt6vectorNSt7__cxx1112basic_stringIcSt11char_traitsIcESaIcEEEbxydSaNS0_14adl_serializerES3_IhSaIhEEEES3_ISD_SaISD_EEET_N9__gnu_cxx17__normal_iteratorISH_T0_EE>
10000b4c:	46a0      	mov	r8, r4
10000b4e:	1bc4      	subs	r4, r0, r7
10000b50:	1124      	asrs	r4, r4, #4
10000b52:	2c00      	cmp	r4, #0
10000b54:	dd31      	ble.n	10000bba <_ZN8nlohmann10basic_jsonISt3mapSt6vectorNSt7__cxx1112basic_stringIcSt11char_traitsIcESaIcEEEbxydSaNS_14adl_serializerES2_IhSaIhEEE10json_value7destroyENS_6detail7value_tE+0x10a>
10000b56:	0039      	movs	r1, r7
10000b58:	4640      	mov	r0, r8
10000b5a:	f7ff ff83 	bl	10000a64 <_ZNSt6vectorIN8nlohmann10basic_jsonISt3mapS_NSt7__cxx1112basic_stringIcSt11char_traitsIcESaIcEEEbxydSaNS0_14adl_serializerES_IhSaIhEEEESaISC_EE12emplace_backIJSC_EEERSC_DpOT_>
10000b5e:	3710      	adds	r7, #16
10000b60:	3c01      	subs	r4, #1
10000b62:	e7f6      	b.n	10000b52 <_ZN8nlohmann10basic_jsonISt3mapSt6vectorNSt7__cxx1112basic_stringIcSt11char_traitsIcESaIcEEEbxydSaNS_14adl_serializerES2_IhSaIhEEE10json_value7destroyENS_6detail7value_tE+0xa2>
10000b64:	9a08      	ldr	r2, [sp, #32]
10000b66:	2a00      	cmp	r2, #0
10000b68:	d141      	bne.n	10000bee <_ZN8nlohmann10basic_jsonISt3mapSt6vectorNSt7__cxx1112basic_stringIcSt11char_traitsIcESaIcEEEbxydSaNS_14adl_serializerES2_IhSaIhEEE10json_value7destroyENS_6detail7value_tE+0x13e>
10000b6a:	4b6b      	ldr	r3, [pc, #428]	; (10000d18 <_ZN8nlohmann10basic_jsonISt3mapSt6vectorNSt7__cxx1112basic_stringIcSt11char_traitsIcESaIcEEEbxydSaNS_14adl_serializerES2_IhSaIhEEE10json_value7destroyENS_6detail7value_tE+0x268>)
10000b6c:	4a6b      	ldr	r2, [pc, #428]	; (10000d1c <_ZN8nlohmann10basic_jsonISt3mapSt6vectorNSt7__cxx1112basic_stringIcSt11char_traitsIcESaIcEEEbxydSaNS_14adl_serializerES2_IhSaIhEEE10json_value7destroyENS_6detail7value_tE+0x26c>)
10000b6e:	496c      	ldr	r1, [pc, #432]	; (10000d20 <_ZN8nlohmann10basic_jsonISt3mapSt6vectorNSt7__cxx1112basic_stringIcSt11char_traitsIcESaIcEEEbxydSaNS_14adl_serializerES2_IhSaIhEEE10json_value7destroyENS_6detail7value_tE+0x270>)
10000b70:	486c      	ldr	r0, [pc, #432]	; (10000d24 <_ZN8nlohmann10basic_jsonISt3mapSt6vectorNSt7__cxx1112basic_stringIcSt11char_traitsIcESaIcEEEbxydSaNS_14adl_serializerES2_IhSaIhEEE10json_value7destroyENS_6detail7value_tE+0x274>)
10000b72:	f002 f99b 	bl	10002eac <__assert_func>
10000b76:	9a08      	ldr	r2, [sp, #32]
10000b78:	2a00      	cmp	r2, #0
10000b7a:	d13a      	bne.n	10000bf2 <_ZN8nlohmann10basic_jsonISt3mapSt6vectorNSt7__cxx1112basic_stringIcSt11char_traitsIcESaIcEEEbxydSaNS_14adl_serializerES2_IhSaIhEEE10json_value7destroyENS_6detail7value_tE+0x142>
10000b7c:	4b6a      	ldr	r3, [pc, #424]	; (10000d28 <_ZN8nlohmann10basic_jsonISt3mapSt6vectorNSt7__cxx1112basic_stringIcSt11char_traitsIcESaIcEEEbxydSaNS_14adl_serializerES2_IhSaIhEEE10json_value7destroyENS_6detail7value_tE+0x278>)
10000b7e:	4a67      	ldr	r2, [pc, #412]	; (10000d1c <_ZN8nlohmann10basic_jsonISt3mapSt6vectorNSt7__cxx1112basic_stringIcSt11char_traitsIcESaIcEEEbxydSaNS_14adl_serializerES2_IhSaIhEEE10json_value7destroyENS_6detail7value_tE+0x26c>)
10000b80:	496a      	ldr	r1, [pc, #424]	; (10000d2c <_ZN8nlohmann10basic_jsonISt3mapSt6vectorNSt7__cxx1112basic_stringIcSt11char_traitsIcESaIcEEEbxydSaNS_14adl_serializerES2_IhSaIhEEE10json_value7destroyENS_6detail7value_tE+0x27c>)
10000b82:	4868      	ldr	r0, [pc, #416]	; (10000d24 <_ZN8nlohmann10basic_jsonISt3mapSt6vectorNSt7__cxx1112basic_stringIcSt11char_traitsIcESaIcEEEbxydSaNS_14adl_serializerES2_IhSaIhEEE10json_value7destroyENS_6detail7value_tE+0x274>)
10000b84:	f002 f992 	bl	10002eac <__assert_func>
10000b88:	9a08      	ldr	r2, [sp, #32]
10000b8a:	2a00      	cmp	r2, #0
10000b8c:	d133      	bne.n	10000bf6 <_ZN8nlohmann10basic_jsonISt3mapSt6vectorNSt7__cxx1112basic_stringIcSt11char_traitsIcESaIcEEEbxydSaNS_14adl_serializerES2_IhSaIhEEE10json_value7destroyENS_6detail7value_tE+0x146>
10000b8e:	4b68      	ldr	r3, [pc, #416]	; (10000d30 <_ZN8nlohmann10basic_jsonISt3mapSt6vectorNSt7__cxx1112basic_stringIcSt11char_traitsIcESaIcEEEbxydSaNS_14adl_serializerES2_IhSaIhEEE10json_value7destroyENS_6detail7value_tE+0x280>)
10000b90:	4a62      	ldr	r2, [pc, #392]	; (10000d1c <_ZN8nlohmann10basic_jsonISt3mapSt6vectorNSt7__cxx1112basic_stringIcSt11char_traitsIcESaIcEEEbxydSaNS_14adl_serializerES2_IhSaIhEEE10json_value7destroyENS_6detail7value_tE+0x26c>)
10000b92:	4968      	ldr	r1, [pc, #416]	; (10000d34 <_ZN8nlohmann10basic_jsonISt3mapSt6vectorNSt7__cxx1112basic_stringIcSt11char_traitsIcESaIcEEEbxydSaNS_14adl_serializerES2_IhSaIhEEE10json_value7destroyENS_6detail7value_tE+0x284>)
10000b94:	4863      	ldr	r0, [pc, #396]	; (10000d24 <_ZN8nlohmann10basic_jsonISt3mapSt6vectorNSt7__cxx1112basic_stringIcSt11char_traitsIcESaIcEEEbxydSaNS_14adl_serializerES2_IhSaIhEEE10json_value7destroyENS_6detail7value_tE+0x274>)
10000b96:	f002 f989 	bl	10002eac <__assert_func>
10000b9a:	9b04      	ldr	r3, [sp, #16]
10000b9c:	9301      	str	r3, [sp, #4]
10000b9e:	0018      	movs	r0, r3
10000ba0:	3810      	subs	r0, #16
10000ba2:	9004      	str	r0, [sp, #16]
10000ba4:	f000 f8cc 	bl	10000d40 <_ZN8nlohmann10basic_jsonISt3mapSt6vectorNSt7__cxx1112basic_stringIcSt11char_traitsIcESaIcEEEbxydSaNS_14adl_serializerES2_IhSaIhEEED1Ev>
10000ba8:	ab06      	add	r3, sp, #24
10000baa:	781b      	ldrb	r3, [r3, #0]
10000bac:	2b02      	cmp	r3, #2
10000bae:	d02d      	beq.n	10000c0c <_ZN8nlohmann10basic_jsonISt3mapSt6vectorNSt7__cxx1112basic_stringIcSt11char_traitsIcESaIcEEEbxydSaNS_14adl_serializerES2_IhSaIhEEE10json_value7destroyENS_6detail7value_tE+0x15c>
10000bb0:	2b01      	cmp	r3, #1
10000bb2:	d053      	beq.n	10000c5c <_ZN8nlohmann10basic_jsonISt3mapSt6vectorNSt7__cxx1112basic_stringIcSt11char_traitsIcESaIcEEEbxydSaNS_14adl_serializerES2_IhSaIhEEE10json_value7destroyENS_6detail7value_tE+0x1ac>
10000bb4:	a806      	add	r0, sp, #24
10000bb6:	f000 f8c3 	bl	10000d40 <_ZN8nlohmann10basic_jsonISt3mapSt6vectorNSt7__cxx1112basic_stringIcSt11char_traitsIcESaIcEEEbxydSaNS_14adl_serializerES2_IhSaIhEEED1Ev>
10000bba:	9b03      	ldr	r3, [sp, #12]
10000bbc:	9a04      	ldr	r2, [sp, #16]
10000bbe:	4293      	cmp	r3, r2
10000bc0:	d067      	beq.n	10000c92 <_ZN8nlohmann10basic_jsonISt3mapSt6vectorNSt7__cxx1112basic_stringIcSt11char_traitsIcESaIcEEEbxydSaNS_14adl_serializerES2_IhSaIhEEE10json_value7destroyENS_6detail7value_tE+0x1e2>
10000bc2:	0014      	movs	r4, r2
10000bc4:	3c10      	subs	r4, #16
10000bc6:	7823      	ldrb	r3, [r4, #0]
10000bc8:	af06      	add	r7, sp, #24
10000bca:	703b      	strb	r3, [r7, #0]
10000bcc:	68a2      	ldr	r2, [r4, #8]
10000bce:	68e3      	ldr	r3, [r4, #12]
10000bd0:	60ba      	str	r2, [r7, #8]
10000bd2:	60fb      	str	r3, [r7, #12]
10000bd4:	2100      	movs	r1, #0
10000bd6:	0020      	movs	r0, r4
10000bd8:	f7ff fd44 	bl	10000664 <_ZNK8nlohmann10basic_jsonISt3mapSt6vectorNSt7__cxx1112basic_stringIcSt11char_traitsIcESaIcEEEbxydSaNS_14adl_serializerES2_IhSaIhEEE16assert_invariantEb>
10000bdc:	2300      	movs	r3, #0
10000bde:	7023      	strb	r3, [r4, #0]
10000be0:	2200      	movs	r2, #0
10000be2:	2300      	movs	r3, #0
10000be4:	60a2      	str	r2, [r4, #8]
10000be6:	60e3      	str	r3, [r4, #12]
10000be8:	783b      	ldrb	r3, [r7, #0]
10000bea:	2b01      	cmp	r3, #1
10000bec:	d0ba      	beq.n	10000b64 <_ZN8nlohmann10basic_jsonISt3mapSt6vectorNSt7__cxx1112basic_stringIcSt11char_traitsIcESaIcEEEbxydSaNS_14adl_serializerES2_IhSaIhEEE10json_value7destroyENS_6detail7value_tE+0xb4>
10000bee:	2b02      	cmp	r3, #2
10000bf0:	d0c1      	beq.n	10000b76 <_ZN8nlohmann10basic_jsonISt3mapSt6vectorNSt7__cxx1112basic_stringIcSt11char_traitsIcESaIcEEEbxydSaNS_14adl_serializerES2_IhSaIhEEE10json_value7destroyENS_6detail7value_tE+0xc6>
10000bf2:	2b03      	cmp	r3, #3
10000bf4:	d0c8      	beq.n	10000b88 <_ZN8nlohmann10basic_jsonISt3mapSt6vectorNSt7__cxx1112basic_stringIcSt11char_traitsIcESaIcEEEbxydSaNS_14adl_serializerES2_IhSaIhEEE10json_value7destroyENS_6detail7value_tE+0xd8>
10000bf6:	2b08      	cmp	r3, #8
10000bf8:	d1cf      	bne.n	10000b9a <_ZN8nlohmann10basic_jsonISt3mapSt6vectorNSt7__cxx1112basic_stringIcSt11char_traitsIcESaIcEEEbxydSaNS_14adl_serializerES2_IhSaIhEEE10json_value7destroyENS_6detail7value_tE+0xea>
10000bfa:	9b08      	ldr	r3, [sp, #32]
10000bfc:	2b00      	cmp	r3, #0
10000bfe:	d1cc      	bne.n	10000b9a <_ZN8nlohmann10basic_jsonISt3mapSt6vectorNSt7__cxx1112basic_stringIcSt11char_traitsIcESaIcEEEbxydSaNS_14adl_serializerES2_IhSaIhEEE10json_value7destroyENS_6detail7value_tE+0xea>
10000c00:	4b4d      	ldr	r3, [pc, #308]	; (10000d38 <_ZN8nlohmann10basic_jsonISt3mapSt6vectorNSt7__cxx1112basic_stringIcSt11char_traitsIcESaIcEEEbxydSaNS_14adl_serializerES2_IhSaIhEEE10json_value7destroyENS_6detail7value_tE+0x288>)
10000c02:	4a46      	ldr	r2, [pc, #280]	; (10000d1c <_ZN8nlohmann10basic_jsonISt3mapSt6vectorNSt7__cxx1112basic_stringIcSt11char_traitsIcESaIcEEEbxydSaNS_14adl_serializerES2_IhSaIhEEE10json_value7destroyENS_6detail7value_tE+0x26c>)
10000c04:	494d      	ldr	r1, [pc, #308]	; (10000d3c <_ZN8nlohmann10basic_jsonISt3mapSt6vectorNSt7__cxx1112basic_stringIcSt11char_traitsIcESaIcEEEbxydSaNS_14adl_serializerES2_IhSaIhEEE10json_value7destroyENS_6detail7value_tE+0x28c>)
10000c06:	4847      	ldr	r0, [pc, #284]	; (10000d24 <_ZN8nlohmann10basic_jsonISt3mapSt6vectorNSt7__cxx1112basic_stringIcSt11char_traitsIcESaIcEEEbxydSaNS_14adl_serializerES2_IhSaIhEEE10json_value7destroyENS_6detail7value_tE+0x274>)
10000c08:	f002 f950 	bl	10002eac <__assert_func>
10000c0c:	9b08      	ldr	r3, [sp, #32]
10000c0e:	6818      	ldr	r0, [r3, #0]
10000c10:	685c      	ldr	r4, [r3, #4]
10000c12:	f7ff fdb7 	bl	10000784 <_ZSt12__niter_baseIPN8nlohmann10basic_jsonISt3mapSt6vectorNSt7__cxx1112basic_stringIcSt11char_traitsIcESaIcEEEbxydSaNS0_14adl_serializerES3_IhSaIhEEEES3_ISD_SaISD_EEET_N9__gnu_cxx17__normal_iteratorISH_T0_EE>
10000c16:	0007      	movs	r7, r0
10000c18:	0020      	movs	r0, r4
10000c1a:	f7ff fdb3 	bl	10000784 <_ZSt12__niter_baseIPN8nlohmann10basic_jsonISt3mapSt6vectorNSt7__cxx1112basic_stringIcSt11char_traitsIcESaIcEEEbxydSaNS0_14adl_serializerES3_IhSaIhEEEES3_ISD_SaISD_EEET_N9__gnu_cxx17__normal_iteratorISH_T0_EE>
10000c1e:	1bc4      	subs	r4, r0, r7
10000c20:	1124      	asrs	r4, r4, #4
10000c22:	e005      	b.n	10000c30 <_ZN8nlohmann10basic_jsonISt3mapSt6vectorNSt7__cxx1112basic_stringIcSt11char_traitsIcESaIcEEEbxydSaNS_14adl_serializerES2_IhSaIhEEE10json_value7destroyENS_6detail7value_tE+0x180>
10000c24:	0039      	movs	r1, r7
10000c26:	a803      	add	r0, sp, #12
10000c28:	f7ff ff1c 	bl	10000a64 <_ZNSt6vectorIN8nlohmann10basic_jsonISt3mapS_NSt7__cxx1112basic_stringIcSt11char_traitsIcESaIcEEEbxydSaNS0_14adl_serializerES_IhSaIhEEEESaISC_EE12emplace_backIJSC_EEERSC_DpOT_>
10000c2c:	3710      	adds	r7, #16
10000c2e:	3c01      	subs	r4, #1
10000c30:	2c00      	cmp	r4, #0
10000c32:	dcf7      	bgt.n	10000c24 <_ZN8nlohmann10basic_jsonISt3mapSt6vectorNSt7__cxx1112basic_stringIcSt11char_traitsIcESaIcEEEbxydSaNS_14adl_serializerES2_IhSaIhEEE10json_value7destroyENS_6detail7value_tE+0x174>
10000c34:	9b08      	ldr	r3, [sp, #32]
10000c36:	4698      	mov	r8, r3
10000c38:	681b      	ldr	r3, [r3, #0]
10000c3a:	4699      	mov	r9, r3
10000c3c:	4643      	mov	r3, r8
10000c3e:	685f      	ldr	r7, [r3, #4]
10000c40:	45b9      	cmp	r9, r7
10000c42:	d0b7      	beq.n	10000bb4 <_ZN8nlohmann10basic_jsonISt3mapSt6vectorNSt7__cxx1112basic_stringIcSt11char_traitsIcESaIcEEEbxydSaNS_14adl_serializerES2_IhSaIhEEE10json_value7destroyENS_6detail7value_tE+0x104>
10000c44:	464c      	mov	r4, r9
10000c46:	e003      	b.n	10000c50 <_ZN8nlohmann10basic_jsonISt3mapSt6vectorNSt7__cxx1112basic_stringIcSt11char_traitsIcESaIcEEEbxydSaNS_14adl_serializerES2_IhSaIhEEE10json_value7destroyENS_6detail7value_tE+0x1a0>
10000c48:	0020      	movs	r0, r4
10000c4a:	f000 f879 	bl	10000d40 <_ZN8nlohmann10basic_jsonISt3mapSt6vectorNSt7__cxx1112basic_stringIcSt11char_traitsIcESaIcEEEbxydSaNS_14adl_serializerES2_IhSaIhEEED1Ev>
10000c4e:	3410      	adds	r4, #16
10000c50:	42a7      	cmp	r7, r4
10000c52:	d1f9      	bne.n	10000c48 <_ZN8nlohmann10basic_jsonISt3mapSt6vectorNSt7__cxx1112basic_stringIcSt11char_traitsIcESaIcEEEbxydSaNS_14adl_serializerES2_IhSaIhEEE10json_value7destroyENS_6detail7value_tE+0x198>
10000c54:	4643      	mov	r3, r8
10000c56:	464a      	mov	r2, r9
10000c58:	605a      	str	r2, [r3, #4]
10000c5a:	e7ab      	b.n	10000bb4 <_ZN8nlohmann10basic_jsonISt3mapSt6vectorNSt7__cxx1112basic_stringIcSt11char_traitsIcESaIcEEEbxydSaNS_14adl_serializerES2_IhSaIhEEE10json_value7destroyENS_6detail7value_tE+0x104>
10000c5c:	9f08      	ldr	r7, [sp, #32]
10000c5e:	68fc      	ldr	r4, [r7, #12]
10000c60:	3704      	adds	r7, #4
10000c62:	42a7      	cmp	r7, r4
10000c64:	d009      	beq.n	10000c7a <_ZN8nlohmann10basic_jsonISt3mapSt6vectorNSt7__cxx1112basic_stringIcSt11char_traitsIcESaIcEEEbxydSaNS_14adl_serializerES2_IhSaIhEEE10json_value7destroyENS_6detail7value_tE+0x1ca>
10000c66:	0021      	movs	r1, r4
10000c68:	3128      	adds	r1, #40	; 0x28
10000c6a:	a803      	add	r0, sp, #12
10000c6c:	f7ff fefa 	bl	10000a64 <_ZNSt6vectorIN8nlohmann10basic_jsonISt3mapS_NSt7__cxx1112basic_stringIcSt11char_traitsIcESaIcEEEbxydSaNS0_14adl_serializerES_IhSaIhEEEESaISC_EE12emplace_backIJSC_EEERSC_DpOT_>
10000c70:	0020      	movs	r0, r4
10000c72:	f008 faf1 	bl	10009258 <_ZSt18_Rb_tree_incrementPSt18_Rb_tree_node_base>
10000c76:	0004      	movs	r4, r0
10000c78:	e7f3      	b.n	10000c62 <_ZN8nlohmann10basic_jsonISt3mapSt6vectorNSt7__cxx1112basic_stringIcSt11char_traitsIcESaIcEEEbxydSaNS_14adl_serializerES2_IhSaIhEEE10json_value7destroyENS_6detail7value_tE+0x1b2>
10000c7a:	9c08      	ldr	r4, [sp, #32]
10000c7c:	68a1      	ldr	r1, [r4, #8]
10000c7e:	0020      	movs	r0, r4
10000c80:	f000 f8c4 	bl	10000e0c <_ZNSt8_Rb_treeINSt7__cxx1112basic_stringIcSt11char_traitsIcESaIcEEESt4pairIKS5_N8nlohmann10basic_jsonISt3mapSt6vectorS5_bxydSaNS8_14adl_serializerESB_IhSaIhEEEEESt10_Select1stISG_ESt4lessIvESaISG_EE8_M_eraseEPSt13_Rb_tree_nodeISG_E>
10000c84:	2300      	movs	r3, #0
10000c86:	60a3      	str	r3, [r4, #8]
10000c88:	1d22      	adds	r2, r4, #4
10000c8a:	60e2      	str	r2, [r4, #12]
10000c8c:	6122      	str	r2, [r4, #16]
10000c8e:	6163      	str	r3, [r4, #20]
10000c90:	e790      	b.n	10000bb4 <_ZN8nlohmann10basic_jsonISt3mapSt6vectorNSt7__cxx1112basic_stringIcSt11char_traitsIcESaIcEEEbxydSaNS_14adl_serializerES2_IhSaIhEEE10json_value7destroyENS_6detail7value_tE+0x104>
10000c92:	9c03      	ldr	r4, [sp, #12]
10000c94:	9f04      	ldr	r7, [sp, #16]
10000c96:	42a7      	cmp	r7, r4
10000c98:	d004      	beq.n	10000ca4 <_ZN8nlohmann10basic_jsonISt3mapSt6vectorNSt7__cxx1112basic_stringIcSt11char_traitsIcESaIcEEEbxydSaNS_14adl_serializerES2_IhSaIhEEE10json_value7destroyENS_6detail7value_tE+0x1f4>
10000c9a:	0020      	movs	r0, r4
10000c9c:	f000 f850 	bl	10000d40 <_ZN8nlohmann10basic_jsonISt3mapSt6vectorNSt7__cxx1112basic_stringIcSt11char_traitsIcESaIcEEEbxydSaNS_14adl_serializerES2_IhSaIhEEED1Ev>
10000ca0:	3410      	adds	r4, #16
10000ca2:	e7f8      	b.n	10000c96 <_ZN8nlohmann10basic_jsonISt3mapSt6vectorNSt7__cxx1112basic_stringIcSt11char_traitsIcESaIcEEEbxydSaNS_14adl_serializerES2_IhSaIhEEE10json_value7destroyENS_6detail7value_tE+0x1e6>
10000ca4:	9803      	ldr	r0, [sp, #12]
10000ca6:	9b05      	ldr	r3, [sp, #20]
10000ca8:	1a19      	subs	r1, r3, r0
10000caa:	2800      	cmp	r0, #0
10000cac:	d100      	bne.n	10000cb0 <_ZN8nlohmann10basic_jsonISt3mapSt6vectorNSt7__cxx1112basic_stringIcSt11char_traitsIcESaIcEEEbxydSaNS_14adl_serializerES2_IhSaIhEEE10json_value7destroyENS_6detail7value_tE+0x200>
10000cae:	e70a      	b.n	10000ac6 <_ZN8nlohmann10basic_jsonISt3mapSt6vectorNSt7__cxx1112basic_stringIcSt11char_traitsIcESaIcEEEbxydSaNS_14adl_serializerES2_IhSaIhEEE10json_value7destroyENS_6detail7value_tE+0x16>
10000cb0:	f004 fc86 	bl	100055c0 <_ZdlPvj>
10000cb4:	e707      	b.n	10000ac6 <_ZN8nlohmann10basic_jsonISt3mapSt6vectorNSt7__cxx1112basic_stringIcSt11char_traitsIcESaIcEEEbxydSaNS_14adl_serializerES2_IhSaIhEEE10json_value7destroyENS_6detail7value_tE+0x16>
10000cb6:	2d08      	cmp	r5, #8
10000cb8:	d114      	bne.n	10000ce4 <_ZN8nlohmann10basic_jsonISt3mapSt6vectorNSt7__cxx1112basic_stringIcSt11char_traitsIcESaIcEEEbxydSaNS_14adl_serializerES2_IhSaIhEEE10json_value7destroyENS_6detail7value_tE+0x234>
10000cba:	6833      	ldr	r3, [r6, #0]
10000cbc:	6818      	ldr	r0, [r3, #0]
10000cbe:	6899      	ldr	r1, [r3, #8]
10000cc0:	1a09      	subs	r1, r1, r0
10000cc2:	2800      	cmp	r0, #0
10000cc4:	d001      	beq.n	10000cca <_ZN8nlohmann10basic_jsonISt3mapSt6vectorNSt7__cxx1112basic_stringIcSt11char_traitsIcESaIcEEEbxydSaNS_14adl_serializerES2_IhSaIhEEE10json_value7destroyENS_6detail7value_tE+0x21a>
10000cc6:	f004 fc7b 	bl	100055c0 <_ZdlPvj>
10000cca:	6830      	ldr	r0, [r6, #0]
10000ccc:	2120      	movs	r1, #32
10000cce:	f004 fc77 	bl	100055c0 <_ZdlPvj>
10000cd2:	e007      	b.n	10000ce4 <_ZN8nlohmann10basic_jsonISt3mapSt6vectorNSt7__cxx1112basic_stringIcSt11char_traitsIcESaIcEEEbxydSaNS_14adl_serializerES2_IhSaIhEEE10json_value7destroyENS_6detail7value_tE+0x234>
10000cd4:	6830      	ldr	r0, [r6, #0]
10000cd6:	6881      	ldr	r1, [r0, #8]
10000cd8:	f000 f898 	bl	10000e0c <_ZNSt8_Rb_treeINSt7__cxx1112basic_stringIcSt11char_traitsIcESaIcEEESt4pairIKS5_N8nlohmann10basic_jsonISt3mapSt6vectorS5_bxydSaNS8_14adl_serializerESB_IhSaIhEEEEESt10_Select1stISG_ESt4lessIvESaISG_EE8_M_eraseEPSt13_Rb_tree_nodeISG_E>
10000cdc:	6830      	ldr	r0, [r6, #0]
10000cde:	2118      	movs	r1, #24
10000ce0:	f004 fc6e 	bl	100055c0 <_ZdlPvj>
10000ce4:	b00b      	add	sp, #44	; 0x2c
10000ce6:	bcc0      	pop	{r6, r7}
10000ce8:	46b9      	mov	r9, r7
10000cea:	46b0      	mov	r8, r6
10000cec:	bdf0      	pop	{r4, r5, r6, r7, pc}
10000cee:	6838      	ldr	r0, [r7, #0]
10000cf0:	68b9      	ldr	r1, [r7, #8]
10000cf2:	1a09      	subs	r1, r1, r0
10000cf4:	2800      	cmp	r0, #0
10000cf6:	d001      	beq.n	10000cfc <_ZN8nlohmann10basic_jsonISt3mapSt6vectorNSt7__cxx1112basic_stringIcSt11char_traitsIcESaIcEEEbxydSaNS_14adl_serializerES2_IhSaIhEEE10json_value7destroyENS_6detail7value_tE+0x24c>
10000cf8:	f004 fc62 	bl	100055c0 <_ZdlPvj>
10000cfc:	6830      	ldr	r0, [r6, #0]
10000cfe:	210c      	movs	r1, #12
10000d00:	f004 fc5e 	bl	100055c0 <_ZdlPvj>
10000d04:	e7ee      	b.n	10000ce4 <_ZN8nlohmann10basic_jsonISt3mapSt6vectorNSt7__cxx1112basic_stringIcSt11char_traitsIcESaIcEEEbxydSaNS_14adl_serializerES2_IhSaIhEEE10json_value7destroyENS_6detail7value_tE+0x234>
10000d06:	6830      	ldr	r0, [r6, #0]
10000d08:	f008 fcd2 	bl	100096b0 <_ZNSt7__cxx1112basic_stringIcSt11char_traitsIcESaIcEE10_M_disposeEv>
10000d0c:	6830      	ldr	r0, [r6, #0]
10000d0e:	2118      	movs	r1, #24
10000d10:	f004 fc56 	bl	100055c0 <_ZdlPvj>
10000d14:	e7e6      	b.n	10000ce4 <_ZN8nlohmann10basic_jsonISt3mapSt6vectorNSt7__cxx1112basic_stringIcSt11char_traitsIcESaIcEEEbxydSaNS_14adl_serializerES2_IhSaIhEEE10json_value7destroyENS_6detail7value_tE+0x234>
10000d16:	46c0      	nop			; (mov r8, r8)
10000d18:	10013598 	.word	0x10013598
10000d1c:	100135d0 	.word	0x100135d0
10000d20:	000045b2 	.word	0x000045b2
10000d24:	10013390 	.word	0x10013390
10000d28:	100137f4 	.word	0x100137f4
10000d2c:	000045b3 	.word	0x000045b3
10000d30:	1001382c 	.word	0x1001382c
10000d34:	000045b4 	.word	0x000045b4
10000d38:	10013864 	.word	0x10013864
10000d3c:	000045b5 	.word	0x000045b5

10000d40 <_ZN8nlohmann10basic_jsonISt3mapSt6vectorNSt7__cxx1112basic_stringIcSt11char_traitsIcESaIcEEEbxydSaNS_14adl_serializerES2_IhSaIhEEED1Ev>:
10000d40:	b510      	push	{r4, lr}
10000d42:	0004      	movs	r4, r0
10000d44:	7803      	ldrb	r3, [r0, #0]
10000d46:	2b01      	cmp	r3, #1
10000d48:	d00c      	beq.n	10000d64 <_ZN8nlohmann10basic_jsonISt3mapSt6vectorNSt7__cxx1112basic_stringIcSt11char_traitsIcESaIcEEEbxydSaNS_14adl_serializerES2_IhSaIhEEED1Ev+0x24>
10000d4a:	2b02      	cmp	r3, #2
10000d4c:	d013      	beq.n	10000d76 <_ZN8nlohmann10basic_jsonISt3mapSt6vectorNSt7__cxx1112basic_stringIcSt11char_traitsIcESaIcEEEbxydSaNS_14adl_serializerES2_IhSaIhEEED1Ev+0x36>
10000d4e:	2b03      	cmp	r3, #3
10000d50:	d01a      	beq.n	10000d88 <_ZN8nlohmann10basic_jsonISt3mapSt6vectorNSt7__cxx1112basic_stringIcSt11char_traitsIcESaIcEEEbxydSaNS_14adl_serializerES2_IhSaIhEEED1Ev+0x48>
10000d52:	2b08      	cmp	r3, #8
10000d54:	d021      	beq.n	10000d9a <_ZN8nlohmann10basic_jsonISt3mapSt6vectorNSt7__cxx1112basic_stringIcSt11char_traitsIcESaIcEEEbxydSaNS_14adl_serializerES2_IhSaIhEEED1Ev+0x5a>
10000d56:	7821      	ldrb	r1, [r4, #0]
10000d58:	0020      	movs	r0, r4
10000d5a:	3008      	adds	r0, #8
10000d5c:	f7ff fea8 	bl	10000ab0 <_ZN8nlohmann10basic_jsonISt3mapSt6vectorNSt7__cxx1112basic_stringIcSt11char_traitsIcESaIcEEEbxydSaNS_14adl_serializerES2_IhSaIhEEE10json_value7destroyENS_6detail7value_tE>
10000d60:	0020      	movs	r0, r4
10000d62:	bd10      	pop	{r4, pc}
10000d64:	6882      	ldr	r2, [r0, #8]
10000d66:	2a00      	cmp	r2, #0
10000d68:	d1ef      	bne.n	10000d4a <_ZN8nlohmann10basic_jsonISt3mapSt6vectorNSt7__cxx1112basic_stringIcSt11char_traitsIcESaIcEEEbxydSaNS_14adl_serializerES2_IhSaIhEEED1Ev+0xa>
10000d6a:	4b10      	ldr	r3, [pc, #64]	; (10000dac <_ZN8nlohmann10basic_jsonISt3mapSt6vectorNSt7__cxx1112basic_stringIcSt11char_traitsIcESaIcEEEbxydSaNS_14adl_serializerES2_IhSaIhEEED1Ev+0x6c>)
10000d6c:	4a10      	ldr	r2, [pc, #64]	; (10000db0 <_ZN8nlohmann10basic_jsonISt3mapSt6vectorNSt7__cxx1112basic_stringIcSt11char_traitsIcESaIcEEEbxydSaNS_14adl_serializerES2_IhSaIhEEED1Ev+0x70>)
10000d6e:	4911      	ldr	r1, [pc, #68]	; (10000db4 <_ZN8nlohmann10basic_jsonISt3mapSt6vectorNSt7__cxx1112basic_stringIcSt11char_traitsIcESaIcEEEbxydSaNS_14adl_serializerES2_IhSaIhEEED1Ev+0x74>)
10000d70:	4811      	ldr	r0, [pc, #68]	; (10000db8 <_ZN8nlohmann10basic_jsonISt3mapSt6vectorNSt7__cxx1112basic_stringIcSt11char_traitsIcESaIcEEEbxydSaNS_14adl_serializerES2_IhSaIhEEED1Ev+0x78>)
10000d72:	f002 f89b 	bl	10002eac <__assert_func>
10000d76:	68a2      	ldr	r2, [r4, #8]
10000d78:	2a00      	cmp	r2, #0
10000d7a:	d1e8      	bne.n	10000d4e <_ZN8nlohmann10basic_jsonISt3mapSt6vectorNSt7__cxx1112basic_stringIcSt11char_traitsIcESaIcEEEbxydSaNS_14adl_serializerES2_IhSaIhEEED1Ev+0xe>
10000d7c:	4b0f      	ldr	r3, [pc, #60]	; (10000dbc <_ZN8nlohmann10basic_jsonISt3mapSt6vectorNSt7__cxx1112basic_stringIcSt11char_traitsIcESaIcEEEbxydSaNS_14adl_serializerES2_IhSaIhEEED1Ev+0x7c>)
10000d7e:	4a0c      	ldr	r2, [pc, #48]	; (10000db0 <_ZN8nlohmann10basic_jsonISt3mapSt6vectorNSt7__cxx1112basic_stringIcSt11char_traitsIcESaIcEEEbxydSaNS_14adl_serializerES2_IhSaIhEEED1Ev+0x70>)
10000d80:	490f      	ldr	r1, [pc, #60]	; (10000dc0 <_ZN8nlohmann10basic_jsonISt3mapSt6vectorNSt7__cxx1112basic_stringIcSt11char_traitsIcESaIcEEEbxydSaNS_14adl_serializerES2_IhSaIhEEED1Ev+0x80>)
10000d82:	480d      	ldr	r0, [pc, #52]	; (10000db8 <_ZN8nlohmann10basic_jsonISt3mapSt6vectorNSt7__cxx1112basic_stringIcSt11char_traitsIcESaIcEEEbxydSaNS_14adl_serializerES2_IhSaIhEEED1Ev+0x78>)
10000d84:	f002 f892 	bl	10002eac <__assert_func>
10000d88:	68a2      	ldr	r2, [r4, #8]
10000d8a:	2a00      	cmp	r2, #0
10000d8c:	d1e1      	bne.n	10000d52 <_ZN8nlohmann10basic_jsonISt3mapSt6vectorNSt7__cxx1112basic_stringIcSt11char_traitsIcESaIcEEEbxydSaNS_14adl_serializerES2_IhSaIhEEED1Ev+0x12>
10000d8e:	4b0d      	ldr	r3, [pc, #52]	; (10000dc4 <_ZN8nlohmann10basic_jsonISt3mapSt6vectorNSt7__cxx1112basic_stringIcSt11char_traitsIcESaIcEEEbxydSaNS_14adl_serializerES2_IhSaIhEEED1Ev+0x84>)
10000d90:	4a07      	ldr	r2, [pc, #28]	; (10000db0 <_ZN8nlohmann10basic_jsonISt3mapSt6vectorNSt7__cxx1112basic_stringIcSt11char_traitsIcESaIcEEEbxydSaNS_14adl_serializerES2_IhSaIhEEED1Ev+0x70>)
10000d92:	490d      	ldr	r1, [pc, #52]	; (10000dc8 <_ZN8nlohmann10basic_jsonISt3mapSt6vectorNSt7__cxx1112basic_stringIcSt11char_traitsIcESaIcEEEbxydSaNS_14adl_serializerES2_IhSaIhEEED1Ev+0x88>)
10000d94:	4808      	ldr	r0, [pc, #32]	; (10000db8 <_ZN8nlohmann10basic_jsonISt3mapSt6vectorNSt7__cxx1112basic_stringIcSt11char_traitsIcESaIcEEEbxydSaNS_14adl_serializerES2_IhSaIhEEED1Ev+0x78>)
10000d96:	f002 f889 	bl	10002eac <__assert_func>
10000d9a:	68a3      	ldr	r3, [r4, #8]
10000d9c:	2b00      	cmp	r3, #0
10000d9e:	d1da      	bne.n	10000d56 <_ZN8nlohmann10basic_jsonISt3mapSt6vectorNSt7__cxx1112basic_stringIcSt11char_traitsIcESaIcEEEbxydSaNS_14adl_serializerES2_IhSaIhEEED1Ev+0x16>
10000da0:	4b0a      	ldr	r3, [pc, #40]	; (10000dcc <_ZN8nlohmann10basic_jsonISt3mapSt6vectorNSt7__cxx1112basic_stringIcSt11char_traitsIcESaIcEEEbxydSaNS_14adl_serializerES2_IhSaIhEEED1Ev+0x8c>)
10000da2:	4a03      	ldr	r2, [pc, #12]	; (10000db0 <_ZN8nlohmann10basic_jsonISt3mapSt6vectorNSt7__cxx1112basic_stringIcSt11char_traitsIcESaIcEEEbxydSaNS_14adl_serializerES2_IhSaIhEEED1Ev+0x70>)
10000da4:	490a      	ldr	r1, [pc, #40]	; (10000dd0 <_ZN8nlohmann10basic_jsonISt3mapSt6vectorNSt7__cxx1112basic_stringIcSt11char_traitsIcESaIcEEEbxydSaNS_14adl_serializerES2_IhSaIhEEED1Ev+0x90>)
10000da6:	4804      	ldr	r0, [pc, #16]	; (10000db8 <_ZN8nlohmann10basic_jsonISt3mapSt6vectorNSt7__cxx1112basic_stringIcSt11char_traitsIcESaIcEEEbxydSaNS_14adl_serializerES2_IhSaIhEEED1Ev+0x78>)
10000da8:	f002 f880 	bl	10002eac <__assert_func>
10000dac:	10013598 	.word	0x10013598
10000db0:	100135d0 	.word	0x100135d0
10000db4:	000045b2 	.word	0x000045b2
10000db8:	10013390 	.word	0x10013390
10000dbc:	100137f4 	.word	0x100137f4
10000dc0:	000045b3 	.word	0x000045b3
10000dc4:	1001382c 	.word	0x1001382c
10000dc8:	000045b4 	.word	0x000045b4
10000dcc:	10013864 	.word	0x10013864
10000dd0:	000045b5 	.word	0x000045b5

10000dd4 <_Z41__static_initialization_and_destruction_0ii>:
10000dd4:	b570      	push	{r4, r5, r6, lr}
10000dd6:	0004      	movs	r4, r0
10000dd8:	000d      	movs	r5, r1
10000dda:	2801      	cmp	r0, #1
10000ddc:	d005      	beq.n	10000dea <_Z41__static_initialization_and_destruction_0ii+0x16>
10000dde:	2c00      	cmp	r4, #0
10000de0:	d102      	bne.n	10000de8 <_Z41__static_initialization_and_destruction_0ii+0x14>
10000de2:	4b08      	ldr	r3, [pc, #32]	; (10000e04 <_Z41__static_initialization_and_destruction_0ii+0x30>)
10000de4:	429d      	cmp	r5, r3
10000de6:	d008      	beq.n	10000dfa <_Z41__static_initialization_and_destruction_0ii+0x26>
10000de8:	bd70      	pop	{r4, r5, r6, pc}
10000dea:	4b06      	ldr	r3, [pc, #24]	; (10000e04 <_Z41__static_initialization_and_destruction_0ii+0x30>)
10000dec:	4299      	cmp	r1, r3
10000dee:	d1f6      	bne.n	10000dde <_Z41__static_initialization_and_destruction_0ii+0xa>
10000df0:	2100      	movs	r1, #0
10000df2:	4805      	ldr	r0, [pc, #20]	; (10000e08 <_Z41__static_initialization_and_destruction_0ii+0x34>)
10000df4:	f7ff fc7a 	bl	100006ec <_ZN8nlohmann10basic_jsonISt3mapSt6vectorNSt7__cxx1112basic_stringIcSt11char_traitsIcESaIcEEEbxydSaNS_14adl_serializerES2_IhSaIhEEEC1EDn>
10000df8:	e7f1      	b.n	10000dde <_Z41__static_initialization_and_destruction_0ii+0xa>
10000dfa:	4803      	ldr	r0, [pc, #12]	; (10000e08 <_Z41__static_initialization_and_destruction_0ii+0x34>)
10000dfc:	f7ff ffa0 	bl	10000d40 <_ZN8nlohmann10basic_jsonISt3mapSt6vectorNSt7__cxx1112basic_stringIcSt11char_traitsIcESaIcEEEbxydSaNS_14adl_serializerES2_IhSaIhEEED1Ev>
10000e00:	e7f2      	b.n	10000de8 <_Z41__static_initialization_and_destruction_0ii+0x14>
10000e02:	46c0      	nop			; (mov r8, r8)
10000e04:	0000ffff 	.word	0x0000ffff
10000e08:	20001c70 	.word	0x20001c70

10000e0c <_ZNSt8_Rb_treeINSt7__cxx1112basic_stringIcSt11char_traitsIcESaIcEEESt4pairIKS5_N8nlohmann10basic_jsonISt3mapSt6vectorS5_bxydSaNS8_14adl_serializerESB_IhSaIhEEEEESt10_Select1stISG_ESt4lessIvESaISG_EE8_M_eraseEPSt13_Rb_tree_nodeISG_E>:
10000e0c:	b570      	push	{r4, r5, r6, lr}
10000e0e:	0006      	movs	r6, r0
10000e10:	000c      	movs	r4, r1
10000e12:	e028      	b.n	10000e66 <_ZNSt8_Rb_treeINSt7__cxx1112basic_stringIcSt11char_traitsIcESaIcEEESt4pairIKS5_N8nlohmann10basic_jsonISt3mapSt6vectorS5_bxydSaNS8_14adl_serializerESB_IhSaIhEEEEESt10_Select1stISG_ESt4lessIvESaISG_EE8_M_eraseEPSt13_Rb_tree_nodeISG_E+0x5a>
10000e14:	6883      	ldr	r3, [r0, #8]
10000e16:	2b00      	cmp	r3, #0
10000e18:	d131      	bne.n	10000e7e <_ZNSt8_Rb_treeINSt7__cxx1112basic_stringIcSt11char_traitsIcESaIcEEESt4pairIKS5_N8nlohmann10basic_jsonISt3mapSt6vectorS5_bxydSaNS8_14adl_serializerESB_IhSaIhEEEEESt10_Select1stISG_ESt4lessIvESaISG_EE8_M_eraseEPSt13_Rb_tree_nodeISG_E+0x72>
10000e1a:	4b24      	ldr	r3, [pc, #144]	; (10000eac <_ZNSt8_Rb_treeINSt7__cxx1112basic_stringIcSt11char_traitsIcESaIcEEESt4pairIKS5_N8nlohmann10basic_jsonISt3mapSt6vectorS5_bxydSaNS8_14adl_serializerESB_IhSaIhEEEEESt10_Select1stISG_ESt4lessIvESaISG_EE8_M_eraseEPSt13_Rb_tree_nodeISG_E+0xa0>)
10000e1c:	4a24      	ldr	r2, [pc, #144]	; (10000eb0 <_ZNSt8_Rb_treeINSt7__cxx1112basic_stringIcSt11char_traitsIcESaIcEEESt4pairIKS5_N8nlohmann10basic_jsonISt3mapSt6vectorS5_bxydSaNS8_14adl_serializerESB_IhSaIhEEEEESt10_Select1stISG_ESt4lessIvESaISG_EE8_M_eraseEPSt13_Rb_tree_nodeISG_E+0xa4>)
10000e1e:	4925      	ldr	r1, [pc, #148]	; (10000eb4 <_ZNSt8_Rb_treeINSt7__cxx1112basic_stringIcSt11char_traitsIcESaIcEEESt4pairIKS5_N8nlohmann10basic_jsonISt3mapSt6vectorS5_bxydSaNS8_14adl_serializerESB_IhSaIhEEEEESt10_Select1stISG_ESt4lessIvESaISG_EE8_M_eraseEPSt13_Rb_tree_nodeISG_E+0xa8>)
10000e20:	4825      	ldr	r0, [pc, #148]	; (10000eb8 <_ZNSt8_Rb_treeINSt7__cxx1112basic_stringIcSt11char_traitsIcESaIcEEESt4pairIKS5_N8nlohmann10basic_jsonISt3mapSt6vectorS5_bxydSaNS8_14adl_serializerESB_IhSaIhEEEEESt10_Select1stISG_ESt4lessIvESaISG_EE8_M_eraseEPSt13_Rb_tree_nodeISG_E+0xac>)
10000e22:	f002 f843 	bl	10002eac <__assert_func>
10000e26:	6883      	ldr	r3, [r0, #8]
10000e28:	2b00      	cmp	r3, #0
10000e2a:	d12a      	bne.n	10000e82 <_ZNSt8_Rb_treeINSt7__cxx1112basic_stringIcSt11char_traitsIcESaIcEEESt4pairIKS5_N8nlohmann10basic_jsonISt3mapSt6vectorS5_bxydSaNS8_14adl_serializerESB_IhSaIhEEEEESt10_Select1stISG_ESt4lessIvESaISG_EE8_M_eraseEPSt13_Rb_tree_nodeISG_E+0x76>
10000e2c:	4b23      	ldr	r3, [pc, #140]	; (10000ebc <_ZNSt8_Rb_treeINSt7__cxx1112basic_stringIcSt11char_traitsIcESaIcEEESt4pairIKS5_N8nlohmann10basic_jsonISt3mapSt6vectorS5_bxydSaNS8_14adl_serializerESB_IhSaIhEEEEESt10_Select1stISG_ESt4lessIvESaISG_EE8_M_eraseEPSt13_Rb_tree_nodeISG_E+0xb0>)
10000e2e:	4a20      	ldr	r2, [pc, #128]	; (10000eb0 <_ZNSt8_Rb_treeINSt7__cxx1112basic_stringIcSt11char_traitsIcESaIcEEESt4pairIKS5_N8nlohmann10basic_jsonISt3mapSt6vectorS5_bxydSaNS8_14adl_serializerESB_IhSaIhEEEEESt10_Select1stISG_ESt4lessIvESaISG_EE8_M_eraseEPSt13_Rb_tree_nodeISG_E+0xa4>)
10000e30:	4923      	ldr	r1, [pc, #140]	; (10000ec0 <_ZNSt8_Rb_treeINSt7__cxx1112basic_stringIcSt11char_traitsIcESaIcEEESt4pairIKS5_N8nlohmann10basic_jsonISt3mapSt6vectorS5_bxydSaNS8_14adl_serializerESB_IhSaIhEEEEESt10_Select1stISG_ESt4lessIvESaISG_EE8_M_eraseEPSt13_Rb_tree_nodeISG_E+0xb4>)
10000e32:	4821      	ldr	r0, [pc, #132]	; (10000eb8 <_ZNSt8_Rb_treeINSt7__cxx1112basic_stringIcSt11char_traitsIcESaIcEEESt4pairIKS5_N8nlohmann10basic_jsonISt3mapSt6vectorS5_bxydSaNS8_14adl_serializerESB_IhSaIhEEEEESt10_Select1stISG_ESt4lessIvESaISG_EE8_M_eraseEPSt13_Rb_tree_nodeISG_E+0xac>)
10000e34:	f002 f83a 	bl	10002eac <__assert_func>
10000e38:	6883      	ldr	r3, [r0, #8]
10000e3a:	2b00      	cmp	r3, #0
10000e3c:	d123      	bne.n	10000e86 <_ZNSt8_Rb_treeINSt7__cxx1112basic_stringIcSt11char_traitsIcESaIcEEESt4pairIKS5_N8nlohmann10basic_jsonISt3mapSt6vectorS5_bxydSaNS8_14adl_serializerESB_IhSaIhEEEEESt10_Select1stISG_ESt4lessIvESaISG_EE8_M_eraseEPSt13_Rb_tree_nodeISG_E+0x7a>
10000e3e:	4b21      	ldr	r3, [pc, #132]	; (10000ec4 <_ZNSt8_Rb_treeINSt7__cxx1112basic_stringIcSt11char_traitsIcESaIcEEESt4pairIKS5_N8nlohmann10basic_jsonISt3mapSt6vectorS5_bxydSaNS8_14adl_serializerESB_IhSaIhEEEEESt10_Select1stISG_ESt4lessIvESaISG_EE8_M_eraseEPSt13_Rb_tree_nodeISG_E+0xb8>)
10000e40:	4a1b      	ldr	r2, [pc, #108]	; (10000eb0 <_ZNSt8_Rb_treeINSt7__cxx1112basic_stringIcSt11char_traitsIcESaIcEEESt4pairIKS5_N8nlohmann10basic_jsonISt3mapSt6vectorS5_bxydSaNS8_14adl_serializerESB_IhSaIhEEEEESt10_Select1stISG_ESt4lessIvESaISG_EE8_M_eraseEPSt13_Rb_tree_nodeISG_E+0xa4>)
10000e42:	4921      	ldr	r1, [pc, #132]	; (10000ec8 <_ZNSt8_Rb_treeINSt7__cxx1112basic_stringIcSt11char_traitsIcESaIcEEESt4pairIKS5_N8nlohmann10basic_jsonISt3mapSt6vectorS5_bxydSaNS8_14adl_serializerESB_IhSaIhEEEEESt10_Select1stISG_ESt4lessIvESaISG_EE8_M_eraseEPSt13_Rb_tree_nodeISG_E+0xbc>)
10000e44:	481c      	ldr	r0, [pc, #112]	; (10000eb8 <_ZNSt8_Rb_treeINSt7__cxx1112basic_stringIcSt11char_traitsIcESaIcEEESt4pairIKS5_N8nlohmann10basic_jsonISt3mapSt6vectorS5_bxydSaNS8_14adl_serializerESB_IhSaIhEEEEESt10_Select1stISG_ESt4lessIvESaISG_EE8_M_eraseEPSt13_Rb_tree_nodeISG_E+0xac>)
10000e46:	f002 f831 	bl	10002eac <__assert_func>
10000e4a:	6883      	ldr	r3, [r0, #8]
10000e4c:	2b00      	cmp	r3, #0
10000e4e:	d11c      	bne.n	10000e8a <_ZNSt8_Rb_treeINSt7__cxx1112basic_stringIcSt11char_traitsIcESaIcEEESt4pairIKS5_N8nlohmann10basic_jsonISt3mapSt6vectorS5_bxydSaNS8_14adl_serializerESB_IhSaIhEEEEESt10_Select1stISG_ESt4lessIvESaISG_EE8_M_eraseEPSt13_Rb_tree_nodeISG_E+0x7e>
10000e50:	4b1e      	ldr	r3, [pc, #120]	; (10000ecc <_ZNSt8_Rb_treeINSt7__cxx1112basic_stringIcSt11char_traitsIcESaIcEEESt4pairIKS5_N8nlohmann10basic_jsonISt3mapSt6vectorS5_bxydSaNS8_14adl_serializerESB_IhSaIhEEEEESt10_Select1stISG_ESt4lessIvESaISG_EE8_M_eraseEPSt13_Rb_tree_nodeISG_E+0xc0>)
10000e52:	4a17      	ldr	r2, [pc, #92]	; (10000eb0 <_ZNSt8_Rb_treeINSt7__cxx1112basic_stringIcSt11char_traitsIcESaIcEEESt4pairIKS5_N8nlohmann10basic_jsonISt3mapSt6vectorS5_bxydSaNS8_14adl_serializerESB_IhSaIhEEEEESt10_Select1stISG_ESt4lessIvESaISG_EE8_M_eraseEPSt13_Rb_tree_nodeISG_E+0xa4>)
10000e54:	491e      	ldr	r1, [pc, #120]	; (10000ed0 <_ZNSt8_Rb_treeINSt7__cxx1112basic_stringIcSt11char_traitsIcESaIcEEESt4pairIKS5_N8nlohmann10basic_jsonISt3mapSt6vectorS5_bxydSaNS8_14adl_serializerESB_IhSaIhEEEEESt10_Select1stISG_ESt4lessIvESaISG_EE8_M_eraseEPSt13_Rb_tree_nodeISG_E+0xc4>)
10000e56:	4818      	ldr	r0, [pc, #96]	; (10000eb8 <_ZNSt8_Rb_treeINSt7__cxx1112basic_stringIcSt11char_traitsIcESaIcEEESt4pairIKS5_N8nlohmann10basic_jsonISt3mapSt6vectorS5_bxydSaNS8_14adl_serializerESB_IhSaIhEEEEESt10_Select1stISG_ESt4lessIvESaISG_EE8_M_eraseEPSt13_Rb_tree_nodeISG_E+0xac>)
10000e58:	f002 f828 	bl	10002eac <__assert_func>
10000e5c:	2138      	movs	r1, #56	; 0x38
10000e5e:	0020      	movs	r0, r4
10000e60:	f004 fbae 	bl	100055c0 <_ZdlPvj>
10000e64:	002c      	movs	r4, r5
10000e66:	2c00      	cmp	r4, #0
10000e68:	d01f      	beq.n	10000eaa <_ZNSt8_Rb_treeINSt7__cxx1112basic_stringIcSt11char_traitsIcESaIcEEESt4pairIKS5_N8nlohmann10basic_jsonISt3mapSt6vectorS5_bxydSaNS8_14adl_serializerESB_IhSaIhEEEEESt10_Select1stISG_ESt4lessIvESaISG_EE8_M_eraseEPSt13_Rb_tree_nodeISG_E+0x9e>
10000e6a:	68e1      	ldr	r1, [r4, #12]
10000e6c:	0030      	movs	r0, r6
10000e6e:	f7ff ffcd 	bl	10000e0c <_ZNSt8_Rb_treeINSt7__cxx1112basic_stringIcSt11char_traitsIcESaIcEEESt4pairIKS5_N8nlohmann10basic_jsonISt3mapSt6vectorS5_bxydSaNS8_14adl_serializerESB_IhSaIhEEEEESt10_Select1stISG_ESt4lessIvESaISG_EE8_M_eraseEPSt13_Rb_tree_nodeISG_E>
10000e72:	68a5      	ldr	r5, [r4, #8]
10000e74:	0020      	movs	r0, r4
10000e76:	3028      	adds	r0, #40	; 0x28
10000e78:	7802      	ldrb	r2, [r0, #0]
10000e7a:	2a01      	cmp	r2, #1
10000e7c:	d0ca      	beq.n	10000e14 <_ZNSt8_Rb_treeINSt7__cxx1112basic_stringIcSt11char_traitsIcESaIcEEESt4pairIKS5_N8nlohmann10basic_jsonISt3mapSt6vectorS5_bxydSaNS8_14adl_serializerESB_IhSaIhEEEEESt10_Select1stISG_ESt4lessIvESaISG_EE8_M_eraseEPSt13_Rb_tree_nodeISG_E+0x8>
10000e7e:	2a02      	cmp	r2, #2
10000e80:	d0d1      	beq.n	10000e26 <_ZNSt8_Rb_treeINSt7__cxx1112basic_stringIcSt11char_traitsIcESaIcEEESt4pairIKS5_N8nlohmann10basic_jsonISt3mapSt6vectorS5_bxydSaNS8_14adl_serializerESB_IhSaIhEEEEESt10_Select1stISG_ESt4lessIvESaISG_EE8_M_eraseEPSt13_Rb_tree_nodeISG_E+0x1a>
10000e82:	2a03      	cmp	r2, #3
10000e84:	d0d8      	beq.n	10000e38 <_ZNSt8_Rb_treeINSt7__cxx1112basic_stringIcSt11char_traitsIcESaIcEEESt4pairIKS5_N8nlohmann10basic_jsonISt3mapSt6vectorS5_bxydSaNS8_14adl_serializerESB_IhSaIhEEEEESt10_Select1stISG_ESt4lessIvESaISG_EE8_M_eraseEPSt13_Rb_tree_nodeISG_E+0x2c>
10000e86:	2a08      	cmp	r2, #8
10000e88:	d0df      	beq.n	10000e4a <_ZNSt8_Rb_treeINSt7__cxx1112basic_stringIcSt11char_traitsIcESaIcEEESt4pairIKS5_N8nlohmann10basic_jsonISt3mapSt6vectorS5_bxydSaNS8_14adl_serializerESB_IhSaIhEEEEESt10_Select1stISG_ESt4lessIvESaISG_EE8_M_eraseEPSt13_Rb_tree_nodeISG_E+0x3e>
10000e8a:	7801      	ldrb	r1, [r0, #0]
10000e8c:	3008      	adds	r0, #8
10000e8e:	f7ff fe0f 	bl	10000ab0 <_ZN8nlohmann10basic_jsonISt3mapSt6vectorNSt7__cxx1112basic_stringIcSt11char_traitsIcESaIcEEEbxydSaNS_14adl_serializerES2_IhSaIhEEE10json_value7destroyENS_6detail7value_tE>
10000e92:	0022      	movs	r2, r4
10000e94:	3210      	adds	r2, #16
10000e96:	6920      	ldr	r0, [r4, #16]
10000e98:	0023      	movs	r3, r4
10000e9a:	3318      	adds	r3, #24
10000e9c:	4298      	cmp	r0, r3
10000e9e:	d0dd      	beq.n	10000e5c <_ZNSt8_Rb_treeINSt7__cxx1112basic_stringIcSt11char_traitsIcESaIcEEESt4pairIKS5_N8nlohmann10basic_jsonISt3mapSt6vectorS5_bxydSaNS8_14adl_serializerESB_IhSaIhEEEEESt10_Select1stISG_ESt4lessIvESaISG_EE8_M_eraseEPSt13_Rb_tree_nodeISG_E+0x50>
10000ea0:	6891      	ldr	r1, [r2, #8]
10000ea2:	3101      	adds	r1, #1
10000ea4:	f004 fb8c 	bl	100055c0 <_ZdlPvj>
10000ea8:	e7d8      	b.n	10000e5c <_ZNSt8_Rb_treeINSt7__cxx1112basic_stringIcSt11char_traitsIcESaIcEEESt4pairIKS5_N8nlohmann10basic_jsonISt3mapSt6vectorS5_bxydSaNS8_14adl_serializerESB_IhSaIhEEEEESt10_Select1stISG_ESt4lessIvESaISG_EE8_M_eraseEPSt13_Rb_tree_nodeISG_E+0x50>
10000eaa:	bd70      	pop	{r4, r5, r6, pc}
10000eac:	10013598 	.word	0x10013598
10000eb0:	100135d0 	.word	0x100135d0
10000eb4:	000045b2 	.word	0x000045b2
10000eb8:	10013390 	.word	0x10013390
10000ebc:	100137f4 	.word	0x100137f4
10000ec0:	000045b3 	.word	0x000045b3
10000ec4:	1001382c 	.word	0x1001382c
10000ec8:	000045b4 	.word	0x000045b4
10000ecc:	10013864 	.word	0x10013864
10000ed0:	000045b5 	.word	0x000045b5

10000ed4 <_GLOBAL__sub_I___flash_uid>:
10000ed4:	b510      	push	{r4, lr}
10000ed6:	4902      	ldr	r1, [pc, #8]	; (10000ee0 <_GLOBAL__sub_I___flash_uid+0xc>)
10000ed8:	2001      	movs	r0, #1
10000eda:	f7ff ff7b 	bl	10000dd4 <_Z41__static_initialization_and_destruction_0ii>
10000ede:	bd10      	pop	{r4, pc}
10000ee0:	0000ffff 	.word	0x0000ffff

10000ee4 <_ZN5PwmInC1Ej>:
10000ee4:	b570      	push	{r4, r5, r6, lr}
10000ee6:	b084      	sub	sp, #16
10000ee8:	0004      	movs	r4, r0
10000eea:	000d      	movs	r5, r1
10000eec:	4b1e      	ldr	r3, [pc, #120]	; (10000f68 <_ZN5PwmInC1Ej+0x84>)
10000eee:	6003      	str	r3, [r0, #0]
10000ef0:	2300      	movs	r3, #0
10000ef2:	6043      	str	r3, [r0, #4]
10000ef4:	2106      	movs	r1, #6
10000ef6:	0028      	movs	r0, r5
10000ef8:	f000 f8f6 	bl	100010e8 <gpio_set_function>
10000efc:	491b      	ldr	r1, [pc, #108]	; (10000f6c <_ZN5PwmInC1Ej+0x88>)
10000efe:	6820      	ldr	r0, [r4, #0]
10000f00:	f007 ffb4 	bl	10008e6c <pio_add_program>
10000f04:	0006      	movs	r6, r0
10000f06:	2210      	movs	r2, #16
10000f08:	2100      	movs	r1, #0
10000f0a:	4668      	mov	r0, sp
10000f0c:	f004 fb44 	bl	10005598 <__wrap_memset>
10000f10:	2380      	movs	r3, #128	; 0x80
10000f12:	025b      	lsls	r3, r3, #9
10000f14:	9300      	str	r3, [sp, #0]
10000f16:	23f8      	movs	r3, #248	; 0xf8
10000f18:	025b      	lsls	r3, r3, #9
10000f1a:	9301      	str	r3, [sp, #4]
10000f1c:	2380      	movs	r3, #128	; 0x80
10000f1e:	02db      	lsls	r3, r3, #11
10000f20:	9302      	str	r3, [sp, #8]
10000f22:	23c0      	movs	r3, #192	; 0xc0
10000f24:	031b      	lsls	r3, r3, #12
10000f26:	9302      	str	r3, [sp, #8]
10000f28:	0031      	movs	r1, r6
10000f2a:	3109      	adds	r1, #9
10000f2c:	01f3      	lsls	r3, r6, #7
10000f2e:	0309      	lsls	r1, r1, #12
10000f30:	430b      	orrs	r3, r1
10000f32:	9301      	str	r3, [sp, #4]
10000f34:	490e      	ldr	r1, [pc, #56]	; (10000f70 <_ZN5PwmInC1Ej+0x8c>)
10000f36:	400b      	ands	r3, r1
10000f38:	062d      	lsls	r5, r5, #24
10000f3a:	432b      	orrs	r3, r5
10000f3c:	9301      	str	r3, [sp, #4]
10000f3e:	2380      	movs	r3, #128	; 0x80
10000f40:	031b      	lsls	r3, r3, #12
10000f42:	9302      	str	r3, [sp, #8]
10000f44:	466b      	mov	r3, sp
10000f46:	0032      	movs	r2, r6
10000f48:	6861      	ldr	r1, [r4, #4]
10000f4a:	6820      	ldr	r0, [r4, #0]
10000f4c:	f007 ffaa 	bl	10008ea4 <pio_sm_init>
10000f50:	6821      	ldr	r1, [r4, #0]
10000f52:	680a      	ldr	r2, [r1, #0]
10000f54:	2301      	movs	r3, #1
10000f56:	6860      	ldr	r0, [r4, #4]
10000f58:	4083      	lsls	r3, r0
10000f5a:	439a      	bics	r2, r3
10000f5c:	4313      	orrs	r3, r2
10000f5e:	600b      	str	r3, [r1, #0]
10000f60:	0020      	movs	r0, r4
10000f62:	b004      	add	sp, #16
10000f64:	bd70      	pop	{r4, r5, r6, pc}
10000f66:	46c0      	nop			; (mov r8, r8)
10000f68:	50200000 	.word	0x50200000
10000f6c:	100138c8 	.word	0x100138c8
10000f70:	e0ffffff 	.word	0xe0ffffff

10000f74 <_ZN5PwmIn4readEv>:
10000f74:	b530      	push	{r4, r5, lr}
10000f76:	6842      	ldr	r2, [r0, #4]
10000f78:	0053      	lsls	r3, r2, #1
10000f7a:	189b      	adds	r3, r3, r2
10000f7c:	00db      	lsls	r3, r3, #3
10000f7e:	33d0      	adds	r3, #208	; 0xd0
10000f80:	001a      	movs	r2, r3
10000f82:	6803      	ldr	r3, [r0, #0]
10000f84:	469c      	mov	ip, r3
10000f86:	4462      	add	r2, ip
10000f88:	2380      	movs	r3, #128	; 0x80
10000f8a:	015b      	lsls	r3, r3, #5
10000f8c:	4313      	orrs	r3, r2
10000f8e:	2280      	movs	r2, #128	; 0x80
10000f90:	0612      	lsls	r2, r2, #24
10000f92:	601a      	str	r2, [r3, #0]
10000f94:	601a      	str	r2, [r3, #0]
10000f96:	2100      	movs	r1, #0
10000f98:	6805      	ldr	r5, [r0, #0]
10000f9a:	6844      	ldr	r4, [r0, #4]
10000f9c:	00e2      	lsls	r2, r4, #3
10000f9e:	3204      	adds	r2, #4
10000fa0:	68eb      	ldr	r3, [r5, #12]
10000fa2:	40d3      	lsrs	r3, r2
10000fa4:	220e      	movs	r2, #14
10000fa6:	421a      	tst	r2, r3
10000fa8:	d103      	bne.n	10000fb2 <_ZN5PwmIn4readEv+0x3e>
10000faa:	3101      	adds	r1, #1
10000fac:	4b0b      	ldr	r3, [pc, #44]	; (10000fdc <_ZN5PwmIn4readEv+0x68>)
10000fae:	4299      	cmp	r1, r3
10000fb0:	ddf2      	ble.n	10000f98 <_ZN5PwmIn4readEv+0x24>
10000fb2:	3408      	adds	r4, #8
10000fb4:	00a4      	lsls	r4, r4, #2
10000fb6:	5963      	ldr	r3, [r4, r5]
10000fb8:	43db      	mvns	r3, r3
10000fba:	5962      	ldr	r2, [r4, r5]
10000fbc:	43d2      	mvns	r2, r2
10000fbe:	4293      	cmp	r3, r2
10000fc0:	d909      	bls.n	10000fd6 <_ZN5PwmIn4readEv+0x62>
10000fc2:	60c3      	str	r3, [r0, #12]
10000fc4:	6082      	str	r2, [r0, #8]
10000fc6:	6883      	ldr	r3, [r0, #8]
10000fc8:	005b      	lsls	r3, r3, #1
10000fca:	6083      	str	r3, [r0, #8]
10000fcc:	68c3      	ldr	r3, [r0, #12]
10000fce:	005b      	lsls	r3, r3, #1
10000fd0:	60c3      	str	r3, [r0, #12]
10000fd2:	2000      	movs	r0, #0
10000fd4:	bd30      	pop	{r4, r5, pc}
10000fd6:	60c2      	str	r2, [r0, #12]
10000fd8:	6083      	str	r3, [r0, #8]
10000fda:	e7f4      	b.n	10000fc6 <_ZN5PwmIn4readEv+0x52>
10000fdc:	0007a120 	.word	0x0007a120

10000fe0 <_ZN5PwmIn15read_pulsewidthEv>:
10000fe0:	b570      	push	{r4, r5, r6, lr}
10000fe2:	0005      	movs	r5, r0
10000fe4:	f7ff ffc6 	bl	10000f74 <_ZN5PwmIn4readEv>
10000fe8:	1c04      	adds	r4, r0, #0
10000fea:	4908      	ldr	r1, [pc, #32]	; (1000100c <_ZN5PwmIn15read_pulsewidthEv+0x2c>)
10000fec:	f004 fa20 	bl	10005430 <__wrap___aeabi_fcmpeq>
10000ff0:	2800      	cmp	r0, #0
10000ff2:	d109      	bne.n	10001008 <_ZN5PwmIn15read_pulsewidthEv+0x28>
10000ff4:	68a8      	ldr	r0, [r5, #8]
10000ff6:	f003 fbfb 	bl	100047f0 <__wrap___aeabi_ui2d>
10000ffa:	4a05      	ldr	r2, [pc, #20]	; (10001010 <_ZN5PwmIn15read_pulsewidthEv+0x30>)
10000ffc:	4b05      	ldr	r3, [pc, #20]	; (10001014 <_ZN5PwmIn15read_pulsewidthEv+0x34>)
10000ffe:	f003 fb86 	bl	1000470e <__wrap___aeabi_dmul>
10001002:	f003 fc3d 	bl	10004880 <__wrap___aeabi_d2f>
10001006:	1c04      	adds	r4, r0, #0
10001008:	1c20      	adds	r0, r4, #0
1000100a:	bd70      	pop	{r4, r5, r6, pc}
1000100c:	bf800000 	.word	0xbf800000
10001010:	e826d695 	.word	0xe826d695
10001014:	3e412e0b 	.word	0x3e412e0b

10001018 <_ZL21freq_from_note_numberi>:
10001018:	b510      	push	{r4, lr}
1000101a:	f003 fbed 	bl	100047f8 <__wrap___aeabi_i2d>
1000101e:	0002      	movs	r2, r0
10001020:	000b      	movs	r3, r1
10001022:	4804      	ldr	r0, [pc, #16]	; (10001034 <_ZL21freq_from_note_numberi+0x1c>)
10001024:	4904      	ldr	r1, [pc, #16]	; (10001038 <_ZL21freq_from_note_numberi+0x20>)
10001026:	f003 ffc5 	bl	10004fb4 <__wrap_pow>
1000102a:	4a04      	ldr	r2, [pc, #16]	; (1000103c <_ZL21freq_from_note_numberi+0x24>)
1000102c:	4b04      	ldr	r3, [pc, #16]	; (10001040 <_ZL21freq_from_note_numberi+0x28>)
1000102e:	f003 fb6e 	bl	1000470e <__wrap___aeabi_dmul>
10001032:	bd10      	pop	{r4, pc}
10001034:	92d97431 	.word	0x92d97431
10001038:	3ff0f38f 	.word	0x3ff0f38f
1000103c:	9999999a 	.word	0x9999999a
10001040:	40305999 	.word	0x40305999

10001044 <_ZN9QuadMusicC1Ev>:
10001044:	b570      	push	{r4, r5, r6, lr}
10001046:	0005      	movs	r5, r0
10001048:	20f0      	movs	r0, #240	; 0xf0
1000104a:	0080      	lsls	r0, r0, #2
1000104c:	f004 fa4e 	bl	100054ec <__wrap_malloc>
10001050:	6028      	str	r0, [r5, #0]
10001052:	2800      	cmp	r0, #0
10001054:	d003      	beq.n	1000105e <_ZN9QuadMusicC1Ev+0x1a>
10001056:	2300      	movs	r3, #0
10001058:	606b      	str	r3, [r5, #4]
1000105a:	2400      	movs	r4, #0
1000105c:	e00e      	b.n	1000107c <_ZN9QuadMusicC1Ev+0x38>
1000105e:	e7fe      	b.n	1000105e <_ZN9QuadMusicC1Ev+0x1a>
10001060:	686b      	ldr	r3, [r5, #4]
10001062:	00de      	lsls	r6, r3, #3
10001064:	682b      	ldr	r3, [r5, #0]
10001066:	469c      	mov	ip, r3
10001068:	4466      	add	r6, ip
1000106a:	0020      	movs	r0, r4
1000106c:	f7ff ffd4 	bl	10001018 <_ZL21freq_from_note_numberi>
10001070:	6030      	str	r0, [r6, #0]
10001072:	6071      	str	r1, [r6, #4]
10001074:	686b      	ldr	r3, [r5, #4]
10001076:	3301      	adds	r3, #1
10001078:	606b      	str	r3, [r5, #4]
1000107a:	3401      	adds	r4, #1
1000107c:	2c77      	cmp	r4, #119	; 0x77
1000107e:	dc0e      	bgt.n	1000109e <_ZN9QuadMusicC1Ev+0x5a>
10001080:	210c      	movs	r1, #12
10001082:	0020      	movs	r0, r4
10001084:	f003 f8bc 	bl	10004200 <__wrap___aeabi_idiv>
10001088:	2900      	cmp	r1, #0
1000108a:	d0e9      	beq.n	10001060 <_ZN9QuadMusicC1Ev+0x1c>
1000108c:	2902      	cmp	r1, #2
1000108e:	d0e7      	beq.n	10001060 <_ZN9QuadMusicC1Ev+0x1c>
10001090:	2904      	cmp	r1, #4
10001092:	d0e5      	beq.n	10001060 <_ZN9QuadMusicC1Ev+0x1c>
10001094:	2907      	cmp	r1, #7
10001096:	d0e3      	beq.n	10001060 <_ZN9QuadMusicC1Ev+0x1c>
10001098:	2909      	cmp	r1, #9
1000109a:	d1ee      	bne.n	1000107a <_ZN9QuadMusicC1Ev+0x36>
1000109c:	e7e0      	b.n	10001060 <_ZN9QuadMusicC1Ev+0x1c>
1000109e:	0028      	movs	r0, r5
100010a0:	bd70      	pop	{r4, r5, r6, pc}

100010a2 <_ZN9QuadMusic23FitFreqToAcceptableFreqEd>:
100010a2:	b5f0      	push	{r4, r5, r6, r7, lr}
100010a4:	b085      	sub	sp, #20
100010a6:	0007      	movs	r7, r0
100010a8:	9202      	str	r2, [sp, #8]
100010aa:	9303      	str	r3, [sp, #12]
100010ac:	2600      	movs	r6, #0
100010ae:	2300      	movs	r3, #0
100010b0:	2400      	movs	r4, #0
100010b2:	9300      	str	r3, [sp, #0]
100010b4:	9401      	str	r4, [sp, #4]
100010b6:	e002      	b.n	100010be <_ZN9QuadMusic23FitFreqToAcceptableFreqEd+0x1c>
100010b8:	3601      	adds	r6, #1
100010ba:	9400      	str	r4, [sp, #0]
100010bc:	9501      	str	r5, [sp, #4]
100010be:	687b      	ldr	r3, [r7, #4]
100010c0:	42b3      	cmp	r3, r6
100010c2:	dd0d      	ble.n	100010e0 <_ZN9QuadMusic23FitFreqToAcceptableFreqEd+0x3e>
100010c4:	00f3      	lsls	r3, r6, #3
100010c6:	683a      	ldr	r2, [r7, #0]
100010c8:	4694      	mov	ip, r2
100010ca:	4463      	add	r3, ip
100010cc:	681c      	ldr	r4, [r3, #0]
100010ce:	685d      	ldr	r5, [r3, #4]
100010d0:	9a02      	ldr	r2, [sp, #8]
100010d2:	9b03      	ldr	r3, [sp, #12]
100010d4:	0020      	movs	r0, r4
100010d6:	0029      	movs	r1, r5
100010d8:	f003 fb76 	bl	100047c8 <__wrap___aeabi_dcmpgt>
100010dc:	2800      	cmp	r0, #0
100010de:	d0eb      	beq.n	100010b8 <_ZN9QuadMusic23FitFreqToAcceptableFreqEd+0x16>
100010e0:	9800      	ldr	r0, [sp, #0]
100010e2:	9901      	ldr	r1, [sp, #4]
100010e4:	b005      	add	sp, #20
100010e6:	bdf0      	pop	{r4, r5, r6, r7, pc}

100010e8 <gpio_set_function>:
100010e8:	b510      	push	{r4, lr}
100010ea:	0083      	lsls	r3, r0, #2
100010ec:	4a08      	ldr	r2, [pc, #32]	; (10001110 <gpio_set_function+0x28>)
100010ee:	4694      	mov	ip, r2
100010f0:	4463      	add	r3, ip
100010f2:	681c      	ldr	r4, [r3, #0]
100010f4:	2240      	movs	r2, #64	; 0x40
100010f6:	4062      	eors	r2, r4
100010f8:	24c0      	movs	r4, #192	; 0xc0
100010fa:	4014      	ands	r4, r2
100010fc:	2280      	movs	r2, #128	; 0x80
100010fe:	0152      	lsls	r2, r2, #5
10001100:	4313      	orrs	r3, r2
10001102:	601c      	str	r4, [r3, #0]
10001104:	00c0      	lsls	r0, r0, #3
10001106:	4b03      	ldr	r3, [pc, #12]	; (10001114 <gpio_set_function+0x2c>)
10001108:	469c      	mov	ip, r3
1000110a:	4460      	add	r0, ip
1000110c:	6041      	str	r1, [r0, #4]
1000110e:	bd10      	pop	{r4, pc}
10001110:	4001c004 	.word	0x4001c004
10001114:	40014000 	.word	0x40014000

10001118 <gpio_set_pulls>:
10001118:	0080      	lsls	r0, r0, #2
1000111a:	4b0b      	ldr	r3, [pc, #44]	; (10001148 <gpio_set_pulls+0x30>)
1000111c:	469c      	mov	ip, r3
1000111e:	4460      	add	r0, ip
10001120:	2900      	cmp	r1, #0
10001122:	d00d      	beq.n	10001140 <gpio_set_pulls+0x28>
10001124:	2308      	movs	r3, #8
10001126:	2a00      	cmp	r2, #0
10001128:	d00c      	beq.n	10001144 <gpio_set_pulls+0x2c>
1000112a:	2204      	movs	r2, #4
1000112c:	4313      	orrs	r3, r2
1000112e:	6802      	ldr	r2, [r0, #0]
10001130:	4053      	eors	r3, r2
10001132:	220c      	movs	r2, #12
10001134:	4013      	ands	r3, r2
10001136:	2280      	movs	r2, #128	; 0x80
10001138:	0152      	lsls	r2, r2, #5
1000113a:	4310      	orrs	r0, r2
1000113c:	6003      	str	r3, [r0, #0]
1000113e:	4770      	bx	lr
10001140:	2300      	movs	r3, #0
10001142:	e7f0      	b.n	10001126 <gpio_set_pulls+0xe>
10001144:	2200      	movs	r2, #0
10001146:	e7f1      	b.n	1000112c <gpio_set_pulls+0x14>
10001148:	4001c004 	.word	0x4001c004

1000114c <gpio_set_input_enabled>:
1000114c:	2900      	cmp	r1, #0
1000114e:	d009      	beq.n	10001164 <gpio_set_input_enabled+0x18>
10001150:	0080      	lsls	r0, r0, #2
10001152:	4b09      	ldr	r3, [pc, #36]	; (10001178 <gpio_set_input_enabled+0x2c>)
10001154:	469c      	mov	ip, r3
10001156:	4460      	add	r0, ip
10001158:	2380      	movs	r3, #128	; 0x80
1000115a:	019b      	lsls	r3, r3, #6
1000115c:	4318      	orrs	r0, r3
1000115e:	2340      	movs	r3, #64	; 0x40
10001160:	6003      	str	r3, [r0, #0]
10001162:	4770      	bx	lr
10001164:	0080      	lsls	r0, r0, #2
10001166:	4b04      	ldr	r3, [pc, #16]	; (10001178 <gpio_set_input_enabled+0x2c>)
10001168:	469c      	mov	ip, r3
1000116a:	4460      	add	r0, ip
1000116c:	23c0      	movs	r3, #192	; 0xc0
1000116e:	019b      	lsls	r3, r3, #6
10001170:	4318      	orrs	r0, r3
10001172:	2340      	movs	r3, #64	; 0x40
10001174:	6003      	str	r3, [r0, #0]
10001176:	e7f4      	b.n	10001162 <gpio_set_input_enabled+0x16>
10001178:	4001c004 	.word	0x4001c004

1000117c <gpio_init>:
1000117c:	b510      	push	{r4, lr}
1000117e:	2301      	movs	r3, #1
10001180:	4083      	lsls	r3, r0
10001182:	22d0      	movs	r2, #208	; 0xd0
10001184:	0612      	lsls	r2, r2, #24
10001186:	6293      	str	r3, [r2, #40]	; 0x28
10001188:	6193      	str	r3, [r2, #24]
1000118a:	2105      	movs	r1, #5
1000118c:	f7ff ffac 	bl	100010e8 <gpio_set_function>
10001190:	bd10      	pop	{r4, pc}
	...

10001194 <running_on_fpga>:
10001194:	4b03      	ldr	r3, [pc, #12]	; (100011a4 <running_on_fpga+0x10>)
10001196:	681b      	ldr	r3, [r3, #0]
10001198:	2002      	movs	r0, #2
1000119a:	4018      	ands	r0, r3
1000119c:	1e43      	subs	r3, r0, #1
1000119e:	4198      	sbcs	r0, r3
100011a0:	b2c0      	uxtb	r0, r0
100011a2:	4770      	bx	lr
100011a4:	4006c000 	.word	0x4006c000

100011a8 <hw_claim_lock>:
100011a8:	f3ef 8010 	mrs	r0, PRIMASK
100011ac:	b672      	cpsid	i
100011ae:	4b03      	ldr	r3, [pc, #12]	; (100011bc <hw_claim_lock+0x14>)
100011b0:	681b      	ldr	r3, [r3, #0]
100011b2:	2b00      	cmp	r3, #0
100011b4:	d0fb      	beq.n	100011ae <hw_claim_lock+0x6>
100011b6:	f3bf 8f5f 	dmb	sy
100011ba:	4770      	bx	lr
100011bc:	d000012c 	.word	0xd000012c

100011c0 <hw_claim_unlock>:
100011c0:	f3bf 8f5f 	dmb	sy
100011c4:	4b02      	ldr	r3, [pc, #8]	; (100011d0 <hw_claim_unlock+0x10>)
100011c6:	2200      	movs	r2, #0
100011c8:	601a      	str	r2, [r3, #0]
100011ca:	f380 8810 	msr	PRIMASK, r0
100011ce:	4770      	bx	lr
100011d0:	d000012c 	.word	0xd000012c

100011d4 <hw_claim_or_assert>:
100011d4:	b5f8      	push	{r3, r4, r5, r6, r7, lr}
100011d6:	0006      	movs	r6, r0
100011d8:	000c      	movs	r4, r1
100011da:	0015      	movs	r5, r2
100011dc:	f7ff ffe4 	bl	100011a8 <hw_claim_lock>
100011e0:	08e3      	lsrs	r3, r4, #3
100011e2:	18f7      	adds	r7, r6, r3
100011e4:	5cf1      	ldrb	r1, [r6, r3]
100011e6:	2207      	movs	r2, #7
100011e8:	4022      	ands	r2, r4
100011ea:	2301      	movs	r3, #1
100011ec:	4093      	lsls	r3, r2
100011ee:	420b      	tst	r3, r1
100011f0:	d105      	bne.n	100011fe <hw_claim_or_assert+0x2a>
100011f2:	b2db      	uxtb	r3, r3
100011f4:	430b      	orrs	r3, r1
100011f6:	703b      	strb	r3, [r7, #0]
100011f8:	f7ff ffe2 	bl	100011c0 <hw_claim_unlock>
100011fc:	bdf8      	pop	{r3, r4, r5, r6, r7, pc}
100011fe:	0021      	movs	r1, r4
10001200:	0028      	movs	r0, r5
10001202:	f001 feed 	bl	10002fe0 <panic>
	...

10001208 <spin_locks_reset>:
10001208:	2300      	movs	r3, #0
1000120a:	e007      	b.n	1000121c <spin_locks_reset+0x14>
1000120c:	4a05      	ldr	r2, [pc, #20]	; (10001224 <spin_locks_reset+0x1c>)
1000120e:	189a      	adds	r2, r3, r2
10001210:	0092      	lsls	r2, r2, #2
10001212:	f3bf 8f5f 	dmb	sy
10001216:	2100      	movs	r1, #0
10001218:	6011      	str	r1, [r2, #0]
1000121a:	3301      	adds	r3, #1
1000121c:	2b1f      	cmp	r3, #31
1000121e:	d9f5      	bls.n	1000120c <spin_locks_reset+0x4>
10001220:	4770      	bx	lr
10001222:	46c0      	nop			; (mov r8, r8)
10001224:	34000040 	.word	0x34000040

10001228 <next_striped_spin_lock_num>:
10001228:	4a05      	ldr	r2, [pc, #20]	; (10001240 <next_striped_spin_lock_num+0x18>)
1000122a:	7810      	ldrb	r0, [r2, #0]
1000122c:	1c43      	adds	r3, r0, #1
1000122e:	b2db      	uxtb	r3, r3
10001230:	7013      	strb	r3, [r2, #0]
10001232:	2b17      	cmp	r3, #23
10001234:	d902      	bls.n	1000123c <next_striped_spin_lock_num+0x14>
10001236:	0013      	movs	r3, r2
10001238:	2210      	movs	r2, #16
1000123a:	701a      	strb	r2, [r3, #0]
1000123c:	4770      	bx	lr
1000123e:	46c0      	nop			; (mov r8, r8)
10001240:	20001314 	.word	0x20001314

10001244 <spin_lock_claim>:
10001244:	b510      	push	{r4, lr}
10001246:	0001      	movs	r1, r0
10001248:	4a02      	ldr	r2, [pc, #8]	; (10001254 <spin_lock_claim+0x10>)
1000124a:	4803      	ldr	r0, [pc, #12]	; (10001258 <spin_lock_claim+0x14>)
1000124c:	f7ff ffc2 	bl	100011d4 <hw_claim_or_assert>
10001250:	bd10      	pop	{r4, pc}
10001252:	46c0      	nop			; (mov r8, r8)
10001254:	100138e4 	.word	0x100138e4
10001258:	20001fd4 	.word	0x20001fd4

1000125c <set_raw_irq_handler_and_unlock>:
1000125c:	4b07      	ldr	r3, [pc, #28]	; (1000127c <set_raw_irq_handler_and_unlock+0x20>)
1000125e:	689b      	ldr	r3, [r3, #8]
10001260:	3010      	adds	r0, #16
10001262:	0080      	lsls	r0, r0, #2
10001264:	5019      	str	r1, [r3, r0]
10001266:	f3bf 8f5f 	dmb	sy
1000126a:	f3bf 8f5f 	dmb	sy
1000126e:	4b04      	ldr	r3, [pc, #16]	; (10001280 <set_raw_irq_handler_and_unlock+0x24>)
10001270:	2100      	movs	r1, #0
10001272:	6019      	str	r1, [r3, #0]
10001274:	f382 8810 	msr	PRIMASK, r2
10001278:	4770      	bx	lr
1000127a:	46c0      	nop			; (mov r8, r8)
1000127c:	e000ed00 	.word	0xe000ed00
10001280:	d0000124 	.word	0xd0000124

10001284 <make_branch>:
10001284:	b510      	push	{r4, lr}
10001286:	1a09      	subs	r1, r1, r0
10001288:	1f08      	subs	r0, r1, #4
1000128a:	4b0a      	ldr	r3, [pc, #40]	; (100012b4 <make_branch+0x30>)
1000128c:	469c      	mov	ip, r3
1000128e:	4461      	add	r1, ip
10001290:	4a09      	ldr	r2, [pc, #36]	; (100012b8 <make_branch+0x34>)
10001292:	4291      	cmp	r1, r2
10001294:	d808      	bhi.n	100012a8 <make_branch+0x24>
10001296:	07c3      	lsls	r3, r0, #31
10001298:	d406      	bmi.n	100012a8 <make_branch+0x24>
1000129a:	1040      	asrs	r0, r0, #1
1000129c:	0540      	lsls	r0, r0, #21
1000129e:	0d40      	lsrs	r0, r0, #21
100012a0:	4b06      	ldr	r3, [pc, #24]	; (100012bc <make_branch+0x38>)
100012a2:	4318      	orrs	r0, r3
100012a4:	b280      	uxth	r0, r0
100012a6:	bd10      	pop	{r4, pc}
100012a8:	4b05      	ldr	r3, [pc, #20]	; (100012c0 <make_branch+0x3c>)
100012aa:	4a06      	ldr	r2, [pc, #24]	; (100012c4 <make_branch+0x40>)
100012ac:	21a3      	movs	r1, #163	; 0xa3
100012ae:	4806      	ldr	r0, [pc, #24]	; (100012c8 <make_branch+0x44>)
100012b0:	f001 fdfc 	bl	10002eac <__assert_func>
100012b4:	000007fc 	.word	0x000007fc
100012b8:	00000ffe 	.word	0x00000ffe
100012bc:	ffffe000 	.word	0xffffe000
100012c0:	10013904 	.word	0x10013904
100012c4:	10013b74 	.word	0x10013b74
100012c8:	10013934 	.word	0x10013934

100012cc <insert_branch_and_link>:
100012cc:	b510      	push	{r4, lr}
100012ce:	1a09      	subs	r1, r1, r0
100012d0:	3904      	subs	r1, #4
100012d2:	084c      	lsrs	r4, r1, #1
100012d4:	0b09      	lsrs	r1, r1, #12
100012d6:	d108      	bne.n	100012ea <insert_branch_and_link+0x1e>
100012d8:	0549      	lsls	r1, r1, #21
100012da:	0d49      	lsrs	r1, r1, #21
100012dc:	4a06      	ldr	r2, [pc, #24]	; (100012f8 <insert_branch_and_link+0x2c>)
100012de:	4311      	orrs	r1, r2
100012e0:	8001      	strh	r1, [r0, #0]
100012e2:	4b06      	ldr	r3, [pc, #24]	; (100012fc <insert_branch_and_link+0x30>)
100012e4:	4323      	orrs	r3, r4
100012e6:	8043      	strh	r3, [r0, #2]
100012e8:	bd10      	pop	{r4, pc}
100012ea:	4b05      	ldr	r3, [pc, #20]	; (10001300 <insert_branch_and_link+0x34>)
100012ec:	4a05      	ldr	r2, [pc, #20]	; (10001304 <insert_branch_and_link+0x38>)
100012ee:	21ab      	movs	r1, #171	; 0xab
100012f0:	4805      	ldr	r0, [pc, #20]	; (10001308 <insert_branch_and_link+0x3c>)
100012f2:	f001 fddb 	bl	10002eac <__assert_func>
100012f6:	46c0      	nop			; (mov r8, r8)
100012f8:	fffff000 	.word	0xfffff000
100012fc:	fffff800 	.word	0xfffff800
10001300:	10013990 	.word	0x10013990
10001304:	10013b48 	.word	0x10013b48
10001308:	10013934 	.word	0x10013934

1000130c <irq_is_enabled>:
1000130c:	2301      	movs	r3, #1
1000130e:	4083      	lsls	r3, r0
10001310:	4a03      	ldr	r2, [pc, #12]	; (10001320 <irq_is_enabled+0x14>)
10001312:	6810      	ldr	r0, [r2, #0]
10001314:	4018      	ands	r0, r3
10001316:	1e43      	subs	r3, r0, #1
10001318:	4198      	sbcs	r0, r3
1000131a:	b2c0      	uxtb	r0, r0
1000131c:	4770      	bx	lr
1000131e:	46c0      	nop			; (mov r8, r8)
10001320:	e000e100 	.word	0xe000e100

10001324 <irq_set_mask_enabled>:
10001324:	2900      	cmp	r1, #0
10001326:	d004      	beq.n	10001332 <irq_set_mask_enabled+0xe>
10001328:	4b03      	ldr	r3, [pc, #12]	; (10001338 <irq_set_mask_enabled+0x14>)
1000132a:	6018      	str	r0, [r3, #0]
1000132c:	4b03      	ldr	r3, [pc, #12]	; (1000133c <irq_set_mask_enabled+0x18>)
1000132e:	6018      	str	r0, [r3, #0]
10001330:	4770      	bx	lr
10001332:	4b03      	ldr	r3, [pc, #12]	; (10001340 <irq_set_mask_enabled+0x1c>)
10001334:	6018      	str	r0, [r3, #0]
10001336:	e7fb      	b.n	10001330 <irq_set_mask_enabled+0xc>
10001338:	e000e280 	.word	0xe000e280
1000133c:	e000e100 	.word	0xe000e100
10001340:	e000e180 	.word	0xe000e180

10001344 <irq_set_enabled>:
10001344:	b510      	push	{r4, lr}
10001346:	2301      	movs	r3, #1
10001348:	4083      	lsls	r3, r0
1000134a:	0018      	movs	r0, r3
1000134c:	f7ff ffea 	bl	10001324 <irq_set_mask_enabled>
10001350:	bd10      	pop	{r4, pc}
	...

10001354 <irq_get_vtable_handler>:
10001354:	4b02      	ldr	r3, [pc, #8]	; (10001360 <irq_get_vtable_handler+0xc>)
10001356:	689b      	ldr	r3, [r3, #8]
10001358:	3010      	adds	r0, #16
1000135a:	0080      	lsls	r0, r0, #2
1000135c:	58c0      	ldr	r0, [r0, r3]
1000135e:	4770      	bx	lr
10001360:	e000ed00 	.word	0xe000ed00

10001364 <irq_set_exclusive_handler>:
10001364:	b570      	push	{r4, r5, r6, lr}
10001366:	0004      	movs	r4, r0
10001368:	000d      	movs	r5, r1
1000136a:	f3ef 8610 	mrs	r6, PRIMASK
1000136e:	b672      	cpsid	i
10001370:	4b0c      	ldr	r3, [pc, #48]	; (100013a4 <irq_set_exclusive_handler+0x40>)
10001372:	681b      	ldr	r3, [r3, #0]
10001374:	2b00      	cmp	r3, #0
10001376:	d0fb      	beq.n	10001370 <irq_set_exclusive_handler+0xc>
10001378:	f3bf 8f5f 	dmb	sy
1000137c:	0020      	movs	r0, r4
1000137e:	f7ff ffe9 	bl	10001354 <irq_get_vtable_handler>
10001382:	4b09      	ldr	r3, [pc, #36]	; (100013a8 <irq_set_exclusive_handler+0x44>)
10001384:	4298      	cmp	r0, r3
10001386:	d001      	beq.n	1000138c <irq_set_exclusive_handler+0x28>
10001388:	42a8      	cmp	r0, r5
1000138a:	d105      	bne.n	10001398 <irq_set_exclusive_handler+0x34>
1000138c:	0032      	movs	r2, r6
1000138e:	0029      	movs	r1, r5
10001390:	0020      	movs	r0, r4
10001392:	f7ff ff63 	bl	1000125c <set_raw_irq_handler_and_unlock>
10001396:	bd70      	pop	{r4, r5, r6, pc}
10001398:	4b04      	ldr	r3, [pc, #16]	; (100013ac <irq_set_exclusive_handler+0x48>)
1000139a:	4a05      	ldr	r2, [pc, #20]	; (100013b0 <irq_set_exclusive_handler+0x4c>)
1000139c:	2186      	movs	r1, #134	; 0x86
1000139e:	4805      	ldr	r0, [pc, #20]	; (100013b4 <irq_set_exclusive_handler+0x50>)
100013a0:	f001 fd84 	bl	10002eac <__assert_func>
100013a4:	d0000124 	.word	0xd0000124
100013a8:	100001cd 	.word	0x100001cd
100013ac:	100139a0 	.word	0x100139a0
100013b0:	10013b90 	.word	0x10013b90
100013b4:	10013934 	.word	0x10013934

100013b8 <irq_remove_handler>:
100013b8:	b5f0      	push	{r4, r5, r6, r7, lr}
100013ba:	46ce      	mov	lr, r9
100013bc:	4647      	mov	r7, r8
100013be:	b580      	push	{r7, lr}
100013c0:	b083      	sub	sp, #12
100013c2:	0006      	movs	r6, r0
100013c4:	000d      	movs	r5, r1
100013c6:	f3ef 8810 	mrs	r8, PRIMASK
100013ca:	b672      	cpsid	i
100013cc:	4b56      	ldr	r3, [pc, #344]	; (10001528 <irq_remove_handler+0x170>)
100013ce:	681b      	ldr	r3, [r3, #0]
100013d0:	2b00      	cmp	r3, #0
100013d2:	d0fb      	beq.n	100013cc <irq_remove_handler+0x14>
100013d4:	f3bf 8f5f 	dmb	sy
100013d8:	4b54      	ldr	r3, [pc, #336]	; (1000152c <irq_remove_handler+0x174>)
100013da:	689a      	ldr	r2, [r3, #8]
100013dc:	0034      	movs	r4, r6
100013de:	3410      	adds	r4, #16
100013e0:	00a3      	lsls	r3, r4, #2
100013e2:	58d7      	ldr	r7, [r2, r3]
100013e4:	4b52      	ldr	r3, [pc, #328]	; (10001530 <irq_remove_handler+0x178>)
100013e6:	429f      	cmp	r7, r3
100013e8:	d007      	beq.n	100013fa <irq_remove_handler+0x42>
100013ea:	42af      	cmp	r7, r5
100013ec:	d100      	bne.n	100013f0 <irq_remove_handler+0x38>
100013ee:	e098      	b.n	10001522 <irq_remove_handler+0x16a>
100013f0:	9701      	str	r7, [sp, #4]
100013f2:	4b50      	ldr	r3, [pc, #320]	; (10001534 <irq_remove_handler+0x17c>)
100013f4:	1afb      	subs	r3, r7, r3
100013f6:	2b2f      	cmp	r3, #47	; 0x2f
100013f8:	d909      	bls.n	1000140e <irq_remove_handler+0x56>
100013fa:	4642      	mov	r2, r8
100013fc:	0039      	movs	r1, r7
100013fe:	0030      	movs	r0, r6
10001400:	f7ff ff2c 	bl	1000125c <set_raw_irq_handler_and_unlock>
10001404:	b003      	add	sp, #12
10001406:	bcc0      	pop	{r6, r7}
10001408:	46b9      	mov	r9, r7
1000140a:	46b0      	mov	r8, r6
1000140c:	bdf0      	pop	{r4, r5, r6, r7, pc}
1000140e:	0030      	movs	r0, r6
10001410:	f7ff ff7c 	bl	1000130c <irq_is_enabled>
10001414:	4681      	mov	r9, r0
10001416:	2100      	movs	r1, #0
10001418:	0030      	movs	r0, r6
1000141a:	f7ff ff93 	bl	10001344 <irq_set_enabled>
1000141e:	f3bf 8f5f 	dmb	sy
10001422:	f3ef 8105 	mrs	r1, IPSR
10001426:	2900      	cmp	r1, #0
10001428:	d001      	beq.n	1000142e <irq_remove_handler+0x76>
1000142a:	428c      	cmp	r4, r1
1000142c:	d111      	bne.n	10001452 <irq_remove_handler+0x9a>
1000142e:	2301      	movs	r3, #1
10001430:	9c01      	ldr	r4, [sp, #4]
10001432:	439c      	bics	r4, r3
10001434:	2200      	movs	r2, #0
10001436:	68a3      	ldr	r3, [r4, #8]
10001438:	42ab      	cmp	r3, r5
1000143a:	d012      	beq.n	10001462 <irq_remove_handler+0xaa>
1000143c:	2206      	movs	r2, #6
1000143e:	56a2      	ldrsb	r2, [r4, r2]
10001440:	2a00      	cmp	r2, #0
10001442:	db0d      	blt.n	10001460 <irq_remove_handler+0xa8>
10001444:	0053      	lsls	r3, r2, #1
10001446:	189b      	adds	r3, r3, r2
10001448:	009b      	lsls	r3, r3, #2
1000144a:	0022      	movs	r2, r4
1000144c:	4c39      	ldr	r4, [pc, #228]	; (10001534 <irq_remove_handler+0x17c>)
1000144e:	18e4      	adds	r4, r4, r3
10001450:	e7f1      	b.n	10001436 <irq_remove_handler+0x7e>
10001452:	2136      	movs	r1, #54	; 0x36
10001454:	4b38      	ldr	r3, [pc, #224]	; (10001538 <irq_remove_handler+0x180>)
10001456:	4a39      	ldr	r2, [pc, #228]	; (1000153c <irq_remove_handler+0x184>)
10001458:	31ff      	adds	r1, #255	; 0xff
1000145a:	4839      	ldr	r0, [pc, #228]	; (10001540 <irq_remove_handler+0x188>)
1000145c:	f001 fd26 	bl	10002eac <__assert_func>
10001460:	0022      	movs	r2, r4
10001462:	42ab      	cmp	r3, r5
10001464:	d156      	bne.n	10001514 <irq_remove_handler+0x15c>
10001466:	2506      	movs	r5, #6
10001468:	5765      	ldrsb	r5, [r4, r5]
1000146a:	2d00      	cmp	r5, #0
1000146c:	db38      	blt.n	100014e0 <irq_remove_handler+0x128>
1000146e:	006b      	lsls	r3, r5, #1
10001470:	195b      	adds	r3, r3, r5
10001472:	009a      	lsls	r2, r3, #2
10001474:	4b2f      	ldr	r3, [pc, #188]	; (10001534 <irq_remove_handler+0x17c>)
10001476:	189b      	adds	r3, r3, r2
10001478:	689a      	ldr	r2, [r3, #8]
1000147a:	60a2      	str	r2, [r4, #8]
1000147c:	79da      	ldrb	r2, [r3, #7]
1000147e:	71e2      	strb	r2, [r4, #7]
10001480:	2206      	movs	r2, #6
10001482:	569a      	ldrsb	r2, [r3, r2]
10001484:	71a2      	strb	r2, [r4, #6]
10001486:	799b      	ldrb	r3, [r3, #6]
10001488:	b25b      	sxtb	r3, r3
1000148a:	2b00      	cmp	r3, #0
1000148c:	da0f      	bge.n	100014ae <irq_remove_handler+0xf6>
1000148e:	482d      	ldr	r0, [pc, #180]	; (10001544 <irq_remove_handler+0x18c>)
10001490:	80a0      	strh	r0, [r4, #4]
10001492:	006b      	lsls	r3, r5, #1
10001494:	195b      	adds	r3, r3, r5
10001496:	009b      	lsls	r3, r3, #2
10001498:	4a26      	ldr	r2, [pc, #152]	; (10001534 <irq_remove_handler+0x17c>)
1000149a:	18d3      	adds	r3, r2, r3
1000149c:	4a2a      	ldr	r2, [pc, #168]	; (10001548 <irq_remove_handler+0x190>)
1000149e:	7811      	ldrb	r1, [r2, #0]
100014a0:	7199      	strb	r1, [r3, #6]
100014a2:	7015      	strb	r5, [r2, #0]
100014a4:	4649      	mov	r1, r9
100014a6:	0030      	movs	r0, r6
100014a8:	f7ff ff4c 	bl	10001344 <irq_set_enabled>
100014ac:	e7a5      	b.n	100013fa <irq_remove_handler+0x42>
100014ae:	1d20      	adds	r0, r4, #4
100014b0:	006b      	lsls	r3, r5, #1
100014b2:	195b      	adds	r3, r3, r5
100014b4:	009b      	lsls	r3, r3, #2
100014b6:	4a1f      	ldr	r2, [pc, #124]	; (10001534 <irq_remove_handler+0x17c>)
100014b8:	189b      	adds	r3, r3, r2
100014ba:	1d1a      	adds	r2, r3, #4
100014bc:	889b      	ldrh	r3, [r3, #4]
100014be:	0ad9      	lsrs	r1, r3, #11
100014c0:	291c      	cmp	r1, #28
100014c2:	d107      	bne.n	100014d4 <irq_remove_handler+0x11c>
100014c4:	055b      	lsls	r3, r3, #21
100014c6:	155b      	asrs	r3, r3, #21
100014c8:	3302      	adds	r3, #2
100014ca:	0059      	lsls	r1, r3, #1
100014cc:	1851      	adds	r1, r2, r1
100014ce:	f7ff fed9 	bl	10001284 <make_branch>
100014d2:	e7dd      	b.n	10001490 <irq_remove_handler+0xd8>
100014d4:	4b1d      	ldr	r3, [pc, #116]	; (1000154c <irq_remove_handler+0x194>)
100014d6:	4a1e      	ldr	r2, [pc, #120]	; (10001550 <irq_remove_handler+0x198>)
100014d8:	21b1      	movs	r1, #177	; 0xb1
100014da:	4819      	ldr	r0, [pc, #100]	; (10001540 <irq_remove_handler+0x188>)
100014dc:	f001 fce6 	bl	10002eac <__assert_func>
100014e0:	2900      	cmp	r1, #0
100014e2:	d112      	bne.n	1000150a <irq_remove_handler+0x152>
100014e4:	2a00      	cmp	r2, #0
100014e6:	d00e      	beq.n	10001506 <irq_remove_handler+0x14e>
100014e8:	23ff      	movs	r3, #255	; 0xff
100014ea:	7193      	strb	r3, [r2, #6]
100014ec:	4b19      	ldr	r3, [pc, #100]	; (10001554 <irq_remove_handler+0x19c>)
100014ee:	8093      	strh	r3, [r2, #4]
100014f0:	4a15      	ldr	r2, [pc, #84]	; (10001548 <irq_remove_handler+0x190>)
100014f2:	7813      	ldrb	r3, [r2, #0]
100014f4:	71a3      	strb	r3, [r4, #6]
100014f6:	4b18      	ldr	r3, [pc, #96]	; (10001558 <irq_remove_handler+0x1a0>)
100014f8:	490e      	ldr	r1, [pc, #56]	; (10001534 <irq_remove_handler+0x17c>)
100014fa:	1a64      	subs	r4, r4, r1
100014fc:	4164      	adcs	r4, r4
100014fe:	4363      	muls	r3, r4
10001500:	0d1b      	lsrs	r3, r3, #20
10001502:	7013      	strb	r3, [r2, #0]
10001504:	e7ce      	b.n	100014a4 <irq_remove_handler+0xec>
10001506:	4f0a      	ldr	r7, [pc, #40]	; (10001530 <irq_remove_handler+0x178>)
10001508:	e7f2      	b.n	100014f0 <irq_remove_handler+0x138>
1000150a:	1d20      	adds	r0, r4, #4
1000150c:	4913      	ldr	r1, [pc, #76]	; (1000155c <irq_remove_handler+0x1a4>)
1000150e:	f7ff fedd 	bl	100012cc <insert_branch_and_link>
10001512:	e7c7      	b.n	100014a4 <irq_remove_handler+0xec>
10001514:	216a      	movs	r1, #106	; 0x6a
10001516:	4b12      	ldr	r3, [pc, #72]	; (10001560 <irq_remove_handler+0x1a8>)
10001518:	4a08      	ldr	r2, [pc, #32]	; (1000153c <irq_remove_handler+0x184>)
1000151a:	31ff      	adds	r1, #255	; 0xff
1000151c:	4808      	ldr	r0, [pc, #32]	; (10001540 <irq_remove_handler+0x188>)
1000151e:	f001 fcc5 	bl	10002eac <__assert_func>
10001522:	4f03      	ldr	r7, [pc, #12]	; (10001530 <irq_remove_handler+0x178>)
10001524:	e769      	b.n	100013fa <irq_remove_handler+0x42>
10001526:	46c0      	nop			; (mov r8, r8)
10001528:	d0000124 	.word	0xd0000124
1000152c:	e000ed00 	.word	0xe000ed00
10001530:	100001cd 	.word	0x100001cd
10001534:	20001318 	.word	0x20001318
10001538:	10013ab4 	.word	0x10013ab4
1000153c:	10013b60 	.word	0x10013b60
10001540:	10013934 	.word	0x10013934
10001544:	0000bd01 	.word	0x0000bd01
10001548:	2002266f 	.word	0x2002266f
1000154c:	10013a9c 	.word	0x10013a9c
10001550:	10013b80 	.word	0x10013b80
10001554:	ffffbd01 	.word	0xffffbd01
10001558:	0000aaaa 	.word	0x0000aaaa
1000155c:	20001352 	.word	0x20001352
10001560:	10013ae8 	.word	0x10013ae8

10001564 <irq_set_priority>:
10001564:	b510      	push	{r4, lr}
10001566:	2303      	movs	r3, #3
10001568:	0004      	movs	r4, r0
1000156a:	439c      	bics	r4, r3
1000156c:	4a06      	ldr	r2, [pc, #24]	; (10001588 <irq_set_priority+0x24>)
1000156e:	4694      	mov	ip, r2
10001570:	4464      	add	r4, ip
10001572:	6822      	ldr	r2, [r4, #0]
10001574:	4018      	ands	r0, r3
10001576:	00c0      	lsls	r0, r0, #3
10001578:	33fc      	adds	r3, #252	; 0xfc
1000157a:	4083      	lsls	r3, r0
1000157c:	439a      	bics	r2, r3
1000157e:	0013      	movs	r3, r2
10001580:	4081      	lsls	r1, r0
10001582:	430b      	orrs	r3, r1
10001584:	6023      	str	r3, [r4, #0]
10001586:	bd10      	pop	{r4, pc}
10001588:	e000e400 	.word	0xe000e400

1000158c <irq_add_tail_to_free_list>:
1000158c:	b570      	push	{r4, r5, r6, lr}
1000158e:	2101      	movs	r1, #1
10001590:	4301      	orrs	r1, r0
10001592:	4b2e      	ldr	r3, [pc, #184]	; (1000164c <irq_add_tail_to_free_list+0xc0>)
10001594:	1acb      	subs	r3, r1, r3
10001596:	2b2f      	cmp	r3, #47	; 0x2f
10001598:	d828      	bhi.n	100015ec <irq_add_tail_to_free_list+0x60>
1000159a:	f3ef 8305 	mrs	r3, IPSR
1000159e:	2b00      	cmp	r3, #0
100015a0:	d02b      	beq.n	100015fa <irq_add_tail_to_free_list+0x6e>
100015a2:	f3ef 8c10 	mrs	ip, PRIMASK
100015a6:	b672      	cpsid	i
100015a8:	4a29      	ldr	r2, [pc, #164]	; (10001650 <irq_add_tail_to_free_list+0xc4>)
100015aa:	6812      	ldr	r2, [r2, #0]
100015ac:	2a00      	cmp	r2, #0
100015ae:	d0fb      	beq.n	100015a8 <irq_add_tail_to_free_list+0x1c>
100015b0:	f3bf 8f5f 	dmb	sy
100015b4:	4a27      	ldr	r2, [pc, #156]	; (10001654 <irq_add_tail_to_free_list+0xc8>)
100015b6:	0004      	movs	r4, r0
100015b8:	4d24      	ldr	r5, [pc, #144]	; (1000164c <irq_add_tail_to_free_list+0xc0>)
100015ba:	1b64      	subs	r4, r4, r5
100015bc:	4164      	adcs	r4, r4
100015be:	4362      	muls	r2, r4
100015c0:	0d12      	lsrs	r2, r2, #20
100015c2:	b254      	sxtb	r4, r2
100015c4:	4a24      	ldr	r2, [pc, #144]	; (10001658 <irq_add_tail_to_free_list+0xcc>)
100015c6:	6892      	ldr	r2, [r2, #8]
100015c8:	009b      	lsls	r3, r3, #2
100015ca:	58d2      	ldr	r2, [r2, r3]
100015cc:	428a      	cmp	r2, r1
100015ce:	d01b      	beq.n	10001608 <irq_add_tail_to_free_list+0x7c>
100015d0:	2200      	movs	r2, #0
100015d2:	2a03      	cmp	r2, #3
100015d4:	d832      	bhi.n	1000163c <irq_add_tail_to_free_list+0xb0>
100015d6:	0053      	lsls	r3, r2, #1
100015d8:	189b      	adds	r3, r3, r2
100015da:	009b      	lsls	r3, r3, #2
100015dc:	491b      	ldr	r1, [pc, #108]	; (1000164c <irq_add_tail_to_free_list+0xc0>)
100015de:	18cb      	adds	r3, r1, r3
100015e0:	799b      	ldrb	r3, [r3, #6]
100015e2:	b25b      	sxtb	r3, r3
100015e4:	42a3      	cmp	r3, r4
100015e6:	d01f      	beq.n	10001628 <irq_add_tail_to_free_list+0x9c>
100015e8:	3201      	adds	r2, #1
100015ea:	e7f2      	b.n	100015d2 <irq_add_tail_to_free_list+0x46>
100015ec:	21c7      	movs	r1, #199	; 0xc7
100015ee:	4b1b      	ldr	r3, [pc, #108]	; (1000165c <irq_add_tail_to_free_list+0xd0>)
100015f0:	4a1b      	ldr	r2, [pc, #108]	; (10001660 <irq_add_tail_to_free_list+0xd4>)
100015f2:	0049      	lsls	r1, r1, #1
100015f4:	481b      	ldr	r0, [pc, #108]	; (10001664 <irq_add_tail_to_free_list+0xd8>)
100015f6:	f001 fc59 	bl	10002eac <__assert_func>
100015fa:	2192      	movs	r1, #146	; 0x92
100015fc:	4b1a      	ldr	r3, [pc, #104]	; (10001668 <irq_add_tail_to_free_list+0xdc>)
100015fe:	4a18      	ldr	r2, [pc, #96]	; (10001660 <irq_add_tail_to_free_list+0xd4>)
10001600:	31ff      	adds	r1, #255	; 0xff
10001602:	4818      	ldr	r0, [pc, #96]	; (10001664 <irq_add_tail_to_free_list+0xd8>)
10001604:	f001 fc52 	bl	10002eac <__assert_func>
10001608:	4a13      	ldr	r2, [pc, #76]	; (10001658 <irq_add_tail_to_free_list+0xcc>)
1000160a:	6892      	ldr	r2, [r2, #8]
1000160c:	4917      	ldr	r1, [pc, #92]	; (1000166c <irq_add_tail_to_free_list+0xe0>)
1000160e:	50d1      	str	r1, [r2, r3]
10001610:	4b17      	ldr	r3, [pc, #92]	; (10001670 <irq_add_tail_to_free_list+0xe4>)
10001612:	781a      	ldrb	r2, [r3, #0]
10001614:	7182      	strb	r2, [r0, #6]
10001616:	701c      	strb	r4, [r3, #0]
10001618:	f3bf 8f5f 	dmb	sy
1000161c:	4b0c      	ldr	r3, [pc, #48]	; (10001650 <irq_add_tail_to_free_list+0xc4>)
1000161e:	2200      	movs	r2, #0
10001620:	601a      	str	r2, [r3, #0]
10001622:	f38c 8810 	msr	PRIMASK, ip
10001626:	bd70      	pop	{r4, r5, r6, pc}
10001628:	000d      	movs	r5, r1
1000162a:	0053      	lsls	r3, r2, #1
1000162c:	1899      	adds	r1, r3, r2
1000162e:	0089      	lsls	r1, r1, #2
10001630:	1869      	adds	r1, r5, r1
10001632:	26ff      	movs	r6, #255	; 0xff
10001634:	718e      	strb	r6, [r1, #6]
10001636:	4a0f      	ldr	r2, [pc, #60]	; (10001674 <irq_add_tail_to_free_list+0xe8>)
10001638:	808a      	strh	r2, [r1, #4]
1000163a:	e7e9      	b.n	10001610 <irq_add_tail_to_free_list+0x84>
1000163c:	21d1      	movs	r1, #209	; 0xd1
1000163e:	4b0e      	ldr	r3, [pc, #56]	; (10001678 <irq_add_tail_to_free_list+0xec>)
10001640:	4a07      	ldr	r2, [pc, #28]	; (10001660 <irq_add_tail_to_free_list+0xd4>)
10001642:	0049      	lsls	r1, r1, #1
10001644:	4807      	ldr	r0, [pc, #28]	; (10001664 <irq_add_tail_to_free_list+0xd8>)
10001646:	f001 fc31 	bl	10002eac <__assert_func>
1000164a:	46c0      	nop			; (mov r8, r8)
1000164c:	20001318 	.word	0x20001318
10001650:	d0000124 	.word	0xd0000124
10001654:	0000aaaa 	.word	0x0000aaaa
10001658:	e000ed00 	.word	0xe000ed00
1000165c:	10013af0 	.word	0x10013af0
10001660:	10013b2c 	.word	0x10013b2c
10001664:	10013934 	.word	0x10013934
10001668:	10013b18 	.word	0x10013b18
1000166c:	100001cd 	.word	0x100001cd
10001670:	2002266f 	.word	0x2002266f
10001674:	ffffbd01 	.word	0xffffbd01
10001678:	10013b24 	.word	0x10013b24

1000167c <irq_init_priorities>:
1000167c:	2200      	movs	r2, #0
1000167e:	4b04      	ldr	r3, [pc, #16]	; (10001690 <irq_init_priorities+0x14>)
10001680:	e002      	b.n	10001688 <irq_init_priorities+0xc>
10001682:	4904      	ldr	r1, [pc, #16]	; (10001694 <irq_init_priorities+0x18>)
10001684:	c302      	stmia	r3!, {r1}
10001686:	3201      	adds	r2, #1
10001688:	2a07      	cmp	r2, #7
1000168a:	d9fa      	bls.n	10001682 <irq_init_priorities+0x6>
1000168c:	4770      	bx	lr
1000168e:	46c0      	nop			; (mov r8, r8)
10001690:	e000e400 	.word	0xe000e400
10001694:	80808080 	.word	0x80808080

10001698 <lock_init>:
10001698:	4b02      	ldr	r3, [pc, #8]	; (100016a4 <lock_init+0xc>)
1000169a:	469c      	mov	ip, r3
1000169c:	4461      	add	r1, ip
1000169e:	0089      	lsls	r1, r1, #2
100016a0:	6001      	str	r1, [r0, #0]
100016a2:	4770      	bx	lr
100016a4:	34000040 	.word	0x34000040

100016a8 <mutex_init>:
100016a8:	b510      	push	{r4, lr}
100016aa:	0004      	movs	r4, r0
100016ac:	f7ff fdbc 	bl	10001228 <next_striped_spin_lock_num>
100016b0:	0001      	movs	r1, r0
100016b2:	0020      	movs	r0, r4
100016b4:	f7ff fff0 	bl	10001698 <lock_init>
100016b8:	2301      	movs	r3, #1
100016ba:	425b      	negs	r3, r3
100016bc:	6063      	str	r3, [r4, #4]
100016be:	f3bf 8f5f 	dmb	sy
100016c2:	bd10      	pop	{r4, pc}

100016c4 <recursive_mutex_init>:
100016c4:	b510      	push	{r4, lr}
100016c6:	0004      	movs	r4, r0
100016c8:	f7ff fdae 	bl	10001228 <next_striped_spin_lock_num>
100016cc:	0001      	movs	r1, r0
100016ce:	0020      	movs	r0, r4
100016d0:	f7ff ffe2 	bl	10001698 <lock_init>
100016d4:	2301      	movs	r3, #1
100016d6:	425b      	negs	r3, r3
100016d8:	6063      	str	r3, [r4, #4]
100016da:	2300      	movs	r3, #0
100016dc:	7223      	strb	r3, [r4, #8]
100016de:	f3bf 8f5f 	dmb	sy
100016e2:	bd10      	pop	{r4, pc}

100016e4 <alarm_pool_post_alloc_init>:
100016e4:	b570      	push	{r4, r5, r6, lr}
100016e6:	0005      	movs	r5, r0
100016e8:	000c      	movs	r4, r1
100016ea:	0008      	movs	r0, r1
100016ec:	f000 fef4 	bl	100024d8 <hardware_alarm_cancel>
100016f0:	4909      	ldr	r1, [pc, #36]	; (10001718 <alarm_pool_post_alloc_init+0x34>)
100016f2:	0020      	movs	r0, r4
100016f4:	f000 fe34 	bl	10002360 <hardware_alarm_set_callback>
100016f8:	f7ff fd96 	bl	10001228 <next_striped_spin_lock_num>
100016fc:	4b07      	ldr	r3, [pc, #28]	; (1000171c <alarm_pool_post_alloc_init+0x38>)
100016fe:	469c      	mov	ip, r3
10001700:	4460      	add	r0, ip
10001702:	0080      	lsls	r0, r0, #2
10001704:	6068      	str	r0, [r5, #4]
10001706:	752c      	strb	r4, [r5, #20]
10001708:	23d0      	movs	r3, #208	; 0xd0
1000170a:	061b      	lsls	r3, r3, #24
1000170c:	781b      	ldrb	r3, [r3, #0]
1000170e:	756b      	strb	r3, [r5, #21]
10001710:	00a4      	lsls	r4, r4, #2
10001712:	4b03      	ldr	r3, [pc, #12]	; (10001720 <alarm_pool_post_alloc_init+0x3c>)
10001714:	50e5      	str	r5, [r4, r3]
10001716:	bd70      	pop	{r4, r5, r6, pc}
10001718:	10001a21 	.word	0x10001a21
1000171c:	34000040 	.word	0x34000040
10001720:	20002050 	.word	0x20002050

10001724 <sleep_until_callback>:
10001724:	b510      	push	{r4, lr}
10001726:	4b08      	ldr	r3, [pc, #32]	; (10001748 <sleep_until_callback+0x24>)
10001728:	681a      	ldr	r2, [r3, #0]
1000172a:	f3ef 8110 	mrs	r1, PRIMASK
1000172e:	b672      	cpsid	i
10001730:	6813      	ldr	r3, [r2, #0]
10001732:	2b00      	cmp	r3, #0
10001734:	d0fc      	beq.n	10001730 <sleep_until_callback+0xc>
10001736:	f3bf 8f5f 	dmb	sy
1000173a:	4803      	ldr	r0, [pc, #12]	; (10001748 <sleep_until_callback+0x24>)
1000173c:	f004 fd8c 	bl	10006258 <vPortLockInternalSpinUnlockWithNotify>
10001740:	2000      	movs	r0, #0
10001742:	2100      	movs	r1, #0
10001744:	bd10      	pop	{r4, pc}
10001746:	46c0      	nop			; (mov r8, r8)
10001748:	20002510 	.word	0x20002510

1000174c <timer_pool_entry_comparator>:
1000174c:	b510      	push	{r4, lr}
1000174e:	2900      	cmp	r1, #0
10001750:	d022      	beq.n	10001798 <timer_pool_entry_comparator+0x4c>
10001752:	6803      	ldr	r3, [r0, #0]
10001754:	7b1b      	ldrb	r3, [r3, #12]
10001756:	4299      	cmp	r1, r3
10001758:	d81e      	bhi.n	10001798 <timer_pool_entry_comparator+0x4c>
1000175a:	4b17      	ldr	r3, [pc, #92]	; (100017b8 <timer_pool_entry_comparator+0x6c>)
1000175c:	469c      	mov	ip, r3
1000175e:	4461      	add	r1, ip
10001760:	0109      	lsls	r1, r1, #4
10001762:	6883      	ldr	r3, [r0, #8]
10001764:	469c      	mov	ip, r3
10001766:	4461      	add	r1, ip
10001768:	680c      	ldr	r4, [r1, #0]
1000176a:	6849      	ldr	r1, [r1, #4]
1000176c:	2a00      	cmp	r2, #0
1000176e:	d019      	beq.n	100017a4 <timer_pool_entry_comparator+0x58>
10001770:	6803      	ldr	r3, [r0, #0]
10001772:	7b1b      	ldrb	r3, [r3, #12]
10001774:	429a      	cmp	r2, r3
10001776:	d815      	bhi.n	100017a4 <timer_pool_entry_comparator+0x58>
10001778:	6883      	ldr	r3, [r0, #8]
1000177a:	480f      	ldr	r0, [pc, #60]	; (100017b8 <timer_pool_entry_comparator+0x6c>)
1000177c:	4684      	mov	ip, r0
1000177e:	4462      	add	r2, ip
10001780:	0112      	lsls	r2, r2, #4
10001782:	189a      	adds	r2, r3, r2
10001784:	6810      	ldr	r0, [r2, #0]
10001786:	6853      	ldr	r3, [r2, #4]
10001788:	0002      	movs	r2, r0
1000178a:	2001      	movs	r0, #1
1000178c:	428b      	cmp	r3, r1
1000178e:	d801      	bhi.n	10001794 <timer_pool_entry_comparator+0x48>
10001790:	d00e      	beq.n	100017b0 <timer_pool_entry_comparator+0x64>
10001792:	2000      	movs	r0, #0
10001794:	b2c0      	uxtb	r0, r0
10001796:	bd10      	pop	{r4, pc}
10001798:	4b08      	ldr	r3, [pc, #32]	; (100017bc <timer_pool_entry_comparator+0x70>)
1000179a:	4a09      	ldr	r2, [pc, #36]	; (100017c0 <timer_pool_entry_comparator+0x74>)
1000179c:	213c      	movs	r1, #60	; 0x3c
1000179e:	4809      	ldr	r0, [pc, #36]	; (100017c4 <timer_pool_entry_comparator+0x78>)
100017a0:	f001 fb84 	bl	10002eac <__assert_func>
100017a4:	4b05      	ldr	r3, [pc, #20]	; (100017bc <timer_pool_entry_comparator+0x70>)
100017a6:	4a06      	ldr	r2, [pc, #24]	; (100017c0 <timer_pool_entry_comparator+0x74>)
100017a8:	213c      	movs	r1, #60	; 0x3c
100017aa:	4806      	ldr	r0, [pc, #24]	; (100017c4 <timer_pool_entry_comparator+0x78>)
100017ac:	f001 fb7e 	bl	10002eac <__assert_func>
100017b0:	42a2      	cmp	r2, r4
100017b2:	d8ef      	bhi.n	10001794 <timer_pool_entry_comparator+0x48>
100017b4:	e7ed      	b.n	10001792 <timer_pool_entry_comparator+0x46>
100017b6:	46c0      	nop			; (mov r8, r8)
100017b8:	0fffffff 	.word	0x0fffffff
100017bc:	10013d60 	.word	0x10013d60
100017c0:	10013fe0 	.word	0x10013fe0
100017c4:	10013d0c 	.word	0x10013d0c

100017c8 <ph_add_child_node>:
100017c8:	b510      	push	{r4, lr}
100017ca:	2900      	cmp	r1, #0
100017cc:	d01e      	beq.n	1000180c <ph_add_child_node+0x44>
100017ce:	7b03      	ldrb	r3, [r0, #12]
100017d0:	4299      	cmp	r1, r3
100017d2:	d81b      	bhi.n	1000180c <ph_add_child_node+0x44>
100017d4:	004b      	lsls	r3, r1, #1
100017d6:	185b      	adds	r3, r3, r1
100017d8:	3b03      	subs	r3, #3
100017da:	6804      	ldr	r4, [r0, #0]
100017dc:	46a4      	mov	ip, r4
100017de:	4463      	add	r3, ip
100017e0:	2900      	cmp	r1, #0
100017e2:	d019      	beq.n	10001818 <ph_add_child_node+0x50>
100017e4:	2a00      	cmp	r2, #0
100017e6:	d01d      	beq.n	10001824 <ph_add_child_node+0x5c>
100017e8:	4291      	cmp	r1, r2
100017ea:	d021      	beq.n	10001830 <ph_add_child_node+0x68>
100017ec:	2a00      	cmp	r2, #0
100017ee:	d025      	beq.n	1000183c <ph_add_child_node+0x74>
100017f0:	7b04      	ldrb	r4, [r0, #12]
100017f2:	42a2      	cmp	r2, r4
100017f4:	d822      	bhi.n	1000183c <ph_add_child_node+0x74>
100017f6:	6804      	ldr	r4, [r0, #0]
100017f8:	0050      	lsls	r0, r2, #1
100017fa:	1880      	adds	r0, r0, r2
100017fc:	3803      	subs	r0, #3
100017fe:	1820      	adds	r0, r4, r0
10001800:	7081      	strb	r1, [r0, #2]
10001802:	7819      	ldrb	r1, [r3, #0]
10001804:	2900      	cmp	r1, #0
10001806:	d11f      	bne.n	10001848 <ph_add_child_node+0x80>
10001808:	701a      	strb	r2, [r3, #0]
1000180a:	bd10      	pop	{r4, pc}
1000180c:	4b10      	ldr	r3, [pc, #64]	; (10001850 <ph_add_child_node+0x88>)
1000180e:	4a11      	ldr	r2, [pc, #68]	; (10001854 <ph_add_child_node+0x8c>)
10001810:	2168      	movs	r1, #104	; 0x68
10001812:	4811      	ldr	r0, [pc, #68]	; (10001858 <ph_add_child_node+0x90>)
10001814:	f001 fb4a 	bl	10002eac <__assert_func>
10001818:	4b10      	ldr	r3, [pc, #64]	; (1000185c <ph_add_child_node+0x94>)
1000181a:	4a11      	ldr	r2, [pc, #68]	; (10001860 <ph_add_child_node+0x98>)
1000181c:	316f      	adds	r1, #111	; 0x6f
1000181e:	480e      	ldr	r0, [pc, #56]	; (10001858 <ph_add_child_node+0x90>)
10001820:	f001 fb44 	bl	10002eac <__assert_func>
10001824:	4b0f      	ldr	r3, [pc, #60]	; (10001864 <ph_add_child_node+0x9c>)
10001826:	4a0e      	ldr	r2, [pc, #56]	; (10001860 <ph_add_child_node+0x98>)
10001828:	2170      	movs	r1, #112	; 0x70
1000182a:	480b      	ldr	r0, [pc, #44]	; (10001858 <ph_add_child_node+0x90>)
1000182c:	f001 fb3e 	bl	10002eac <__assert_func>
10001830:	4b0d      	ldr	r3, [pc, #52]	; (10001868 <ph_add_child_node+0xa0>)
10001832:	4a0b      	ldr	r2, [pc, #44]	; (10001860 <ph_add_child_node+0x98>)
10001834:	2171      	movs	r1, #113	; 0x71
10001836:	4808      	ldr	r0, [pc, #32]	; (10001858 <ph_add_child_node+0x90>)
10001838:	f001 fb38 	bl	10002eac <__assert_func>
1000183c:	4b04      	ldr	r3, [pc, #16]	; (10001850 <ph_add_child_node+0x88>)
1000183e:	4a05      	ldr	r2, [pc, #20]	; (10001854 <ph_add_child_node+0x8c>)
10001840:	2168      	movs	r1, #104	; 0x68
10001842:	4805      	ldr	r0, [pc, #20]	; (10001858 <ph_add_child_node+0x90>)
10001844:	f001 fb32 	bl	10002eac <__assert_func>
10001848:	7041      	strb	r1, [r0, #1]
1000184a:	701a      	strb	r2, [r3, #0]
1000184c:	e7dd      	b.n	1000180a <ph_add_child_node+0x42>
1000184e:	46c0      	nop			; (mov r8, r8)
10001850:	10013d84 	.word	0x10013d84
10001854:	1001404c 	.word	0x1001404c
10001858:	10013da0 	.word	0x10013da0
1000185c:	10013e08 	.word	0x10013e08
10001860:	10014028 	.word	0x10014028
10001864:	10013e14 	.word	0x10013e14
10001868:	10013e20 	.word	0x10013e20

1000186c <ph_merge_nodes>:
1000186c:	b570      	push	{r4, r5, r6, lr}
1000186e:	0006      	movs	r6, r0
10001870:	000d      	movs	r5, r1
10001872:	0014      	movs	r4, r2
10001874:	2900      	cmp	r1, #0
10001876:	d014      	beq.n	100018a2 <ph_merge_nodes+0x36>
10001878:	2a00      	cmp	r2, #0
1000187a:	d014      	beq.n	100018a6 <ph_merge_nodes+0x3a>
1000187c:	6880      	ldr	r0, [r0, #8]
1000187e:	6873      	ldr	r3, [r6, #4]
10001880:	4798      	blx	r3
10001882:	2800      	cmp	r0, #0
10001884:	d006      	beq.n	10001894 <ph_merge_nodes+0x28>
10001886:	0022      	movs	r2, r4
10001888:	0029      	movs	r1, r5
1000188a:	0030      	movs	r0, r6
1000188c:	f7ff ff9c 	bl	100017c8 <ph_add_child_node>
10001890:	0028      	movs	r0, r5
10001892:	e007      	b.n	100018a4 <ph_merge_nodes+0x38>
10001894:	002a      	movs	r2, r5
10001896:	0021      	movs	r1, r4
10001898:	0030      	movs	r0, r6
1000189a:	f7ff ff95 	bl	100017c8 <ph_add_child_node>
1000189e:	0020      	movs	r0, r4
100018a0:	e000      	b.n	100018a4 <ph_merge_nodes+0x38>
100018a2:	0010      	movs	r0, r2
100018a4:	bd70      	pop	{r4, r5, r6, pc}
100018a6:	0008      	movs	r0, r1
100018a8:	e7fc      	b.n	100018a4 <ph_merge_nodes+0x38>
	...

100018ac <add_alarm_under_lock>:
100018ac:	b5f0      	push	{r4, r5, r6, r7, lr}
100018ae:	b083      	sub	sp, #12
100018b0:	0005      	movs	r5, r0
100018b2:	9200      	str	r2, [sp, #0]
100018b4:	9301      	str	r3, [sp, #4]
100018b6:	ab0a      	add	r3, sp, #40	; 0x28
100018b8:	781c      	ldrb	r4, [r3, #0]
100018ba:	ab0b      	add	r3, sp, #44	; 0x2c
100018bc:	781f      	ldrb	r7, [r3, #0]
100018be:	2c00      	cmp	r4, #0
100018c0:	d026      	beq.n	10001910 <add_alarm_under_lock+0x64>
100018c2:	6803      	ldr	r3, [r0, #0]
100018c4:	7b5a      	ldrb	r2, [r3, #13]
100018c6:	4294      	cmp	r4, r2
100018c8:	d107      	bne.n	100018da <add_alarm_under_lock+0x2e>
100018ca:	2301      	movs	r3, #1
100018cc:	2b00      	cmp	r3, #0
100018ce:	d119      	bne.n	10001904 <add_alarm_under_lock+0x58>
100018d0:	2c00      	cmp	r4, #0
100018d2:	d13b      	bne.n	1000194c <add_alarm_under_lock+0xa0>
100018d4:	0020      	movs	r0, r4
100018d6:	b003      	add	sp, #12
100018d8:	bdf0      	pop	{r4, r5, r6, r7, pc}
100018da:	2c00      	cmp	r4, #0
100018dc:	d00c      	beq.n	100018f8 <add_alarm_under_lock+0x4c>
100018de:	7b1a      	ldrb	r2, [r3, #12]
100018e0:	4294      	cmp	r4, r2
100018e2:	d809      	bhi.n	100018f8 <add_alarm_under_lock+0x4c>
100018e4:	681a      	ldr	r2, [r3, #0]
100018e6:	0063      	lsls	r3, r4, #1
100018e8:	191b      	adds	r3, r3, r4
100018ea:	3b03      	subs	r3, #3
100018ec:	18d3      	adds	r3, r2, r3
100018ee:	789b      	ldrb	r3, [r3, #2]
100018f0:	2b00      	cmp	r3, #0
100018f2:	d0eb      	beq.n	100018cc <add_alarm_under_lock+0x20>
100018f4:	2301      	movs	r3, #1
100018f6:	e7e9      	b.n	100018cc <add_alarm_under_lock+0x20>
100018f8:	4b3e      	ldr	r3, [pc, #248]	; (100019f4 <add_alarm_under_lock+0x148>)
100018fa:	4a3f      	ldr	r2, [pc, #252]	; (100019f8 <add_alarm_under_lock+0x14c>)
100018fc:	2168      	movs	r1, #104	; 0x68
100018fe:	483f      	ldr	r0, [pc, #252]	; (100019fc <add_alarm_under_lock+0x150>)
10001900:	f001 fad4 	bl	10002eac <__assert_func>
10001904:	4b3e      	ldr	r3, [pc, #248]	; (10001a00 <add_alarm_under_lock+0x154>)
10001906:	4a3f      	ldr	r2, [pc, #252]	; (10001a04 <add_alarm_under_lock+0x158>)
10001908:	2167      	movs	r1, #103	; 0x67
1000190a:	483f      	ldr	r0, [pc, #252]	; (10001a08 <add_alarm_under_lock+0x15c>)
1000190c:	f001 face 	bl	10002eac <__assert_func>
10001910:	6803      	ldr	r3, [r0, #0]
10001912:	7b9c      	ldrb	r4, [r3, #14]
10001914:	2c00      	cmp	r4, #0
10001916:	d0db      	beq.n	100018d0 <add_alarm_under_lock+0x24>
10001918:	d012      	beq.n	10001940 <add_alarm_under_lock+0x94>
1000191a:	7b1a      	ldrb	r2, [r3, #12]
1000191c:	4294      	cmp	r4, r2
1000191e:	d80f      	bhi.n	10001940 <add_alarm_under_lock+0x94>
10001920:	0062      	lsls	r2, r4, #1
10001922:	1912      	adds	r2, r2, r4
10001924:	3a03      	subs	r2, #3
10001926:	6819      	ldr	r1, [r3, #0]
10001928:	468c      	mov	ip, r1
1000192a:	4462      	add	r2, ip
1000192c:	7851      	ldrb	r1, [r2, #1]
1000192e:	7399      	strb	r1, [r3, #14]
10001930:	2900      	cmp	r1, #0
10001932:	d100      	bne.n	10001936 <add_alarm_under_lock+0x8a>
10001934:	73d9      	strb	r1, [r3, #15]
10001936:	2300      	movs	r3, #0
10001938:	7093      	strb	r3, [r2, #2]
1000193a:	7053      	strb	r3, [r2, #1]
1000193c:	7013      	strb	r3, [r2, #0]
1000193e:	e7c7      	b.n	100018d0 <add_alarm_under_lock+0x24>
10001940:	4b2c      	ldr	r3, [pc, #176]	; (100019f4 <add_alarm_under_lock+0x148>)
10001942:	4a2d      	ldr	r2, [pc, #180]	; (100019f8 <add_alarm_under_lock+0x14c>)
10001944:	2168      	movs	r1, #104	; 0x68
10001946:	482d      	ldr	r0, [pc, #180]	; (100019fc <add_alarm_under_lock+0x150>)
10001948:	f001 fab0 	bl	10002eac <__assert_func>
1000194c:	2c00      	cmp	r4, #0
1000194e:	d03a      	beq.n	100019c6 <add_alarm_under_lock+0x11a>
10001950:	682b      	ldr	r3, [r5, #0]
10001952:	7b1b      	ldrb	r3, [r3, #12]
10001954:	429c      	cmp	r4, r3
10001956:	d836      	bhi.n	100019c6 <add_alarm_under_lock+0x11a>
10001958:	4b2c      	ldr	r3, [pc, #176]	; (10001a0c <add_alarm_under_lock+0x160>)
1000195a:	18e3      	adds	r3, r4, r3
1000195c:	011b      	lsls	r3, r3, #4
1000195e:	68aa      	ldr	r2, [r5, #8]
10001960:	4694      	mov	ip, r2
10001962:	4463      	add	r3, ip
10001964:	9a00      	ldr	r2, [sp, #0]
10001966:	601a      	str	r2, [r3, #0]
10001968:	9a01      	ldr	r2, [sp, #4]
1000196a:	605a      	str	r2, [r3, #4]
1000196c:	9a08      	ldr	r2, [sp, #32]
1000196e:	609a      	str	r2, [r3, #8]
10001970:	9a09      	ldr	r2, [sp, #36]	; 0x24
10001972:	60da      	str	r2, [r3, #12]
10001974:	682e      	ldr	r6, [r5, #0]
10001976:	2c00      	cmp	r4, #0
10001978:	d02b      	beq.n	100019d2 <add_alarm_under_lock+0x126>
1000197a:	d030      	beq.n	100019de <add_alarm_under_lock+0x132>
1000197c:	7b33      	ldrb	r3, [r6, #12]
1000197e:	429c      	cmp	r4, r3
10001980:	d82d      	bhi.n	100019de <add_alarm_under_lock+0x132>
10001982:	0063      	lsls	r3, r4, #1
10001984:	191b      	adds	r3, r3, r4
10001986:	3b03      	subs	r3, #3
10001988:	6832      	ldr	r2, [r6, #0]
1000198a:	4694      	mov	ip, r2
1000198c:	4463      	add	r3, ip
1000198e:	2200      	movs	r2, #0
10001990:	709a      	strb	r2, [r3, #2]
10001992:	705a      	strb	r2, [r3, #1]
10001994:	701a      	strb	r2, [r3, #0]
10001996:	7b71      	ldrb	r1, [r6, #13]
10001998:	0022      	movs	r2, r4
1000199a:	0030      	movs	r0, r6
1000199c:	f7ff ff66 	bl	1000186c <ph_merge_nodes>
100019a0:	7370      	strb	r0, [r6, #13]
100019a2:	4284      	cmp	r4, r0
100019a4:	d000      	beq.n	100019a8 <add_alarm_under_lock+0xfc>
100019a6:	e795      	b.n	100018d4 <add_alarm_under_lock+0x28>
100019a8:	7d28      	ldrb	r0, [r5, #20]
100019aa:	9a00      	ldr	r2, [sp, #0]
100019ac:	9b01      	ldr	r3, [sp, #4]
100019ae:	f000 fd1f 	bl	100023f0 <hardware_alarm_set_target>
100019b2:	1e06      	subs	r6, r0, #0
100019b4:	d001      	beq.n	100019ba <add_alarm_under_lock+0x10e>
100019b6:	2f00      	cmp	r7, #0
100019b8:	d017      	beq.n	100019ea <add_alarm_under_lock+0x13e>
100019ba:	9b0c      	ldr	r3, [sp, #48]	; 0x30
100019bc:	2b00      	cmp	r3, #0
100019be:	d100      	bne.n	100019c2 <add_alarm_under_lock+0x116>
100019c0:	e788      	b.n	100018d4 <add_alarm_under_lock+0x28>
100019c2:	701e      	strb	r6, [r3, #0]
100019c4:	e786      	b.n	100018d4 <add_alarm_under_lock+0x28>
100019c6:	4b12      	ldr	r3, [pc, #72]	; (10001a10 <add_alarm_under_lock+0x164>)
100019c8:	4a12      	ldr	r2, [pc, #72]	; (10001a14 <add_alarm_under_lock+0x168>)
100019ca:	213c      	movs	r1, #60	; 0x3c
100019cc:	480e      	ldr	r0, [pc, #56]	; (10001a08 <add_alarm_under_lock+0x15c>)
100019ce:	f001 fa6d 	bl	10002eac <__assert_func>
100019d2:	4b11      	ldr	r3, [pc, #68]	; (10001a18 <add_alarm_under_lock+0x16c>)
100019d4:	4a11      	ldr	r2, [pc, #68]	; (10001a1c <add_alarm_under_lock+0x170>)
100019d6:	21a5      	movs	r1, #165	; 0xa5
100019d8:	4808      	ldr	r0, [pc, #32]	; (100019fc <add_alarm_under_lock+0x150>)
100019da:	f001 fa67 	bl	10002eac <__assert_func>
100019de:	4b05      	ldr	r3, [pc, #20]	; (100019f4 <add_alarm_under_lock+0x148>)
100019e0:	4a05      	ldr	r2, [pc, #20]	; (100019f8 <add_alarm_under_lock+0x14c>)
100019e2:	2168      	movs	r1, #104	; 0x68
100019e4:	4805      	ldr	r0, [pc, #20]	; (100019fc <add_alarm_under_lock+0x150>)
100019e6:	f001 fa61 	bl	10002eac <__assert_func>
100019ea:	6828      	ldr	r0, [r5, #0]
100019ec:	0021      	movs	r1, r4
100019ee:	f000 ff37 	bl	10002860 <ph_remove_and_free_node>
100019f2:	e7e2      	b.n	100019ba <add_alarm_under_lock+0x10e>
100019f4:	10013d84 	.word	0x10013d84
100019f8:	1001404c 	.word	0x1001404c
100019fc:	10013da0 	.word	0x10013da0
10001a00:	10013e38 	.word	0x10013e38
10001a04:	10014058 	.word	0x10014058
10001a08:	10013d0c 	.word	0x10013d0c
10001a0c:	0fffffff 	.word	0x0fffffff
10001a10:	10013d60 	.word	0x10013d60
10001a14:	10013fe0 	.word	0x10013fe0
10001a18:	10013d08 	.word	0x10013d08
10001a1c:	1001403c 	.word	0x1001403c

10001a20 <alarm_pool_alarm_callback>:
10001a20:	b5f0      	push	{r4, r5, r6, r7, lr}
10001a22:	46de      	mov	lr, fp
10001a24:	4657      	mov	r7, sl
10001a26:	464e      	mov	r6, r9
10001a28:	4645      	mov	r5, r8
10001a2a:	b5e0      	push	{r5, r6, r7, lr}
10001a2c:	b08b      	sub	sp, #44	; 0x2c
10001a2e:	9009      	str	r0, [sp, #36]	; 0x24
10001a30:	2300      	movs	r3, #0
10001a32:	9308      	str	r3, [sp, #32]
10001a34:	0082      	lsls	r2, r0, #2
10001a36:	4bb5      	ldr	r3, [pc, #724]	; (10001d0c <alarm_pool_alarm_callback+0x2ec>)
10001a38:	58d6      	ldr	r6, [r2, r3]
10001a3a:	0037      	movs	r7, r6
10001a3c:	e052      	b.n	10001ae4 <alarm_pool_alarm_callback+0xc4>
10001a3e:	4bb4      	ldr	r3, [pc, #720]	; (10001d10 <alarm_pool_alarm_callback+0x2f0>)
10001a40:	4ab4      	ldr	r2, [pc, #720]	; (10001d14 <alarm_pool_alarm_callback+0x2f4>)
10001a42:	213f      	movs	r1, #63	; 0x3f
10001a44:	48b4      	ldr	r0, [pc, #720]	; (10001d18 <alarm_pool_alarm_callback+0x2f8>)
10001a46:	f001 fa31 	bl	10002eac <__assert_func>
10001a4a:	4bb4      	ldr	r3, [pc, #720]	; (10001d1c <alarm_pool_alarm_callback+0x2fc>)
10001a4c:	4ab4      	ldr	r2, [pc, #720]	; (10001d20 <alarm_pool_alarm_callback+0x300>)
10001a4e:	213c      	movs	r1, #60	; 0x3c
10001a50:	48b4      	ldr	r0, [pc, #720]	; (10001d24 <alarm_pool_alarm_callback+0x304>)
10001a52:	f001 fa2b 	bl	10002eac <__assert_func>
10001a56:	2900      	cmp	r1, #0
10001a58:	d101      	bne.n	10001a5e <alarm_pool_alarm_callback+0x3e>
10001a5a:	2800      	cmp	r0, #0
10001a5c:	d169      	bne.n	10001b32 <alarm_pool_alarm_callback+0x112>
10001a5e:	2100      	movs	r1, #0
10001a60:	4640      	mov	r0, r8
10001a62:	f000 fef3 	bl	1000284c <ph_remove_head>
10001a66:	42a0      	cmp	r0, r4
10001a68:	d119      	bne.n	10001a9e <alarm_pool_alarm_callback+0x7e>
10001a6a:	682a      	ldr	r2, [r5, #0]
10001a6c:	686b      	ldr	r3, [r5, #4]
10001a6e:	9206      	str	r2, [sp, #24]
10001a70:	9307      	str	r3, [sp, #28]
10001a72:	68ab      	ldr	r3, [r5, #8]
10001a74:	4698      	mov	r8, r3
10001a76:	68eb      	ldr	r3, [r5, #12]
10001a78:	469a      	mov	sl, r3
10001a7a:	4643      	mov	r3, r8
10001a7c:	2b00      	cmp	r3, #0
10001a7e:	d014      	beq.n	10001aaa <alarm_pool_alarm_callback+0x8a>
10001a80:	2c00      	cmp	r4, #0
10001a82:	d018      	beq.n	10001ab6 <alarm_pool_alarm_callback+0x96>
10001a84:	683b      	ldr	r3, [r7, #0]
10001a86:	7b1b      	ldrb	r3, [r3, #12]
10001a88:	429c      	cmp	r4, r3
10001a8a:	d814      	bhi.n	10001ab6 <alarm_pool_alarm_callback+0x96>
10001a8c:	1e63      	subs	r3, r4, #1
10001a8e:	68fa      	ldr	r2, [r7, #12]
10001a90:	5cd3      	ldrb	r3, [r2, r3]
10001a92:	9308      	str	r3, [sp, #32]
10001a94:	021b      	lsls	r3, r3, #8
10001a96:	4318      	orrs	r0, r3
10001a98:	6138      	str	r0, [r7, #16]
10001a9a:	2000      	movs	r0, #0
10001a9c:	e015      	b.n	10001aca <alarm_pool_alarm_callback+0xaa>
10001a9e:	4ba2      	ldr	r3, [pc, #648]	; (10001d28 <alarm_pool_alarm_callback+0x308>)
10001aa0:	4aa2      	ldr	r2, [pc, #648]	; (10001d2c <alarm_pool_alarm_callback+0x30c>)
10001aa2:	218e      	movs	r1, #142	; 0x8e
10001aa4:	489f      	ldr	r0, [pc, #636]	; (10001d24 <alarm_pool_alarm_callback+0x304>)
10001aa6:	f001 fa01 	bl	10002eac <__assert_func>
10001aaa:	4ba1      	ldr	r3, [pc, #644]	; (10001d30 <alarm_pool_alarm_callback+0x310>)
10001aac:	4a9f      	ldr	r2, [pc, #636]	; (10001d2c <alarm_pool_alarm_callback+0x30c>)
10001aae:	2192      	movs	r1, #146	; 0x92
10001ab0:	489c      	ldr	r0, [pc, #624]	; (10001d24 <alarm_pool_alarm_callback+0x304>)
10001ab2:	f001 f9fb 	bl	10002eac <__assert_func>
10001ab6:	4b99      	ldr	r3, [pc, #612]	; (10001d1c <alarm_pool_alarm_callback+0x2fc>)
10001ab8:	4a9e      	ldr	r2, [pc, #632]	; (10001d34 <alarm_pool_alarm_callback+0x314>)
10001aba:	2141      	movs	r1, #65	; 0x41
10001abc:	4899      	ldr	r0, [pc, #612]	; (10001d24 <alarm_pool_alarm_callback+0x304>)
10001abe:	f001 f9f5 	bl	10002eac <__assert_func>
10001ac2:	2300      	movs	r3, #0
10001ac4:	469a      	mov	sl, r3
10001ac6:	4698      	mov	r8, r3
10001ac8:	2000      	movs	r0, #0
10001aca:	687b      	ldr	r3, [r7, #4]
10001acc:	f3bf 8f5f 	dmb	sy
10001ad0:	2200      	movs	r2, #0
10001ad2:	601a      	str	r2, [r3, #0]
10001ad4:	f386 8810 	msr	PRIMASK, r6
10001ad8:	4643      	mov	r3, r8
10001ada:	2b00      	cmp	r3, #0
10001adc:	d132      	bne.n	10001b44 <alarm_pool_alarm_callback+0x124>
10001ade:	2800      	cmp	r0, #0
10001ae0:	d100      	bne.n	10001ae4 <alarm_pool_alarm_callback+0xc4>
10001ae2:	e10c      	b.n	10001cfe <alarm_pool_alarm_callback+0x2de>
10001ae4:	f000 fbf8 	bl	100022d8 <time_us_64>
10001ae8:	0002      	movs	r2, r0
10001aea:	1e0b      	subs	r3, r1, #0
10001aec:	dba7      	blt.n	10001a3e <alarm_pool_alarm_callback+0x1e>
10001aee:	2000      	movs	r0, #0
10001af0:	2100      	movs	r1, #0
10001af2:	9006      	str	r0, [sp, #24]
10001af4:	9107      	str	r1, [sp, #28]
10001af6:	6878      	ldr	r0, [r7, #4]
10001af8:	f3ef 8610 	mrs	r6, PRIMASK
10001afc:	b672      	cpsid	i
10001afe:	6801      	ldr	r1, [r0, #0]
10001b00:	2900      	cmp	r1, #0
10001b02:	d0fc      	beq.n	10001afe <alarm_pool_alarm_callback+0xde>
10001b04:	f3bf 8f5f 	dmb	sy
10001b08:	6839      	ldr	r1, [r7, #0]
10001b0a:	4688      	mov	r8, r1
10001b0c:	7b4c      	ldrb	r4, [r1, #13]
10001b0e:	2c00      	cmp	r4, #0
10001b10:	d0d7      	beq.n	10001ac2 <alarm_pool_alarm_callback+0xa2>
10001b12:	d09a      	beq.n	10001a4a <alarm_pool_alarm_callback+0x2a>
10001b14:	7b09      	ldrb	r1, [r1, #12]
10001b16:	428c      	cmp	r4, r1
10001b18:	d897      	bhi.n	10001a4a <alarm_pool_alarm_callback+0x2a>
10001b1a:	4987      	ldr	r1, [pc, #540]	; (10001d38 <alarm_pool_alarm_callback+0x318>)
10001b1c:	1865      	adds	r5, r4, r1
10001b1e:	012d      	lsls	r5, r5, #4
10001b20:	68b9      	ldr	r1, [r7, #8]
10001b22:	468c      	mov	ip, r1
10001b24:	4465      	add	r5, ip
10001b26:	6828      	ldr	r0, [r5, #0]
10001b28:	6869      	ldr	r1, [r5, #4]
10001b2a:	1a80      	subs	r0, r0, r2
10001b2c:	4199      	sbcs	r1, r3
10001b2e:	2900      	cmp	r1, #0
10001b30:	dd91      	ble.n	10001a56 <alarm_pool_alarm_callback+0x36>
10001b32:	682a      	ldr	r2, [r5, #0]
10001b34:	686b      	ldr	r3, [r5, #4]
10001b36:	9809      	ldr	r0, [sp, #36]	; 0x24
10001b38:	f000 fc5a 	bl	100023f0 <hardware_alarm_set_target>
10001b3c:	2300      	movs	r3, #0
10001b3e:	469a      	mov	sl, r3
10001b40:	4698      	mov	r8, r3
10001b42:	e7c2      	b.n	10001aca <alarm_pool_alarm_callback+0xaa>
10001b44:	9b08      	ldr	r3, [sp, #32]
10001b46:	021b      	lsls	r3, r3, #8
10001b48:	4323      	orrs	r3, r4
10001b4a:	4699      	mov	r9, r3
10001b4c:	4651      	mov	r1, sl
10001b4e:	0018      	movs	r0, r3
10001b50:	47c0      	blx	r8
10001b52:	0005      	movs	r5, r0
10001b54:	000e      	movs	r6, r1
10001b56:	687a      	ldr	r2, [r7, #4]
10001b58:	f3ef 8b10 	mrs	fp, PRIMASK
10001b5c:	b672      	cpsid	i
10001b5e:	6813      	ldr	r3, [r2, #0]
10001b60:	4259      	negs	r1, r3
10001b62:	414b      	adcs	r3, r1
10001b64:	b2d9      	uxtb	r1, r3
10001b66:	2b00      	cmp	r3, #0
10001b68:	d1f9      	bne.n	10001b5e <alarm_pool_alarm_callback+0x13e>
10001b6a:	f3bf 8f5f 	dmb	sy
10001b6e:	2e00      	cmp	r6, #0
10001b70:	db1e      	blt.n	10001bb0 <alarm_pool_alarm_callback+0x190>
10001b72:	2e00      	cmp	r6, #0
10001b74:	dd46      	ble.n	10001c04 <alarm_pool_alarm_callback+0x1e4>
10001b76:	693b      	ldr	r3, [r7, #16]
10001b78:	2b00      	cmp	r3, #0
10001b7a:	d047      	beq.n	10001c0c <alarm_pool_alarm_callback+0x1ec>
10001b7c:	454b      	cmp	r3, r9
10001b7e:	d16d      	bne.n	10001c5c <alarm_pool_alarm_callback+0x23c>
10001b80:	f000 fbaa 	bl	100022d8 <time_us_64>
10001b84:	0002      	movs	r2, r0
10001b86:	1e0b      	subs	r3, r1, #0
10001b88:	db6e      	blt.n	10001c68 <alarm_pool_alarm_callback+0x248>
10001b8a:	1952      	adds	r2, r2, r5
10001b8c:	4173      	adcs	r3, r6
10001b8e:	2b00      	cmp	r3, #0
10001b90:	db70      	blt.n	10001c74 <alarm_pool_alarm_callback+0x254>
10001b92:	2b00      	cmp	r3, #0
10001b94:	db72      	blt.n	10001c7c <alarm_pool_alarm_callback+0x25c>
10001b96:	2100      	movs	r1, #0
10001b98:	9104      	str	r1, [sp, #16]
10001b9a:	3101      	adds	r1, #1
10001b9c:	9103      	str	r1, [sp, #12]
10001b9e:	9402      	str	r4, [sp, #8]
10001ba0:	4651      	mov	r1, sl
10001ba2:	9101      	str	r1, [sp, #4]
10001ba4:	4641      	mov	r1, r8
10001ba6:	9100      	str	r1, [sp, #0]
10001ba8:	0038      	movs	r0, r7
10001baa:	f7ff fe7f 	bl	100018ac <add_alarm_under_lock>
10001bae:	e04c      	b.n	10001c4a <alarm_pool_alarm_callback+0x22a>
10001bb0:	693b      	ldr	r3, [r7, #16]
10001bb2:	2b00      	cmp	r3, #0
10001bb4:	d0dd      	beq.n	10001b72 <alarm_pool_alarm_callback+0x152>
10001bb6:	454b      	cmp	r3, r9
10001bb8:	d114      	bne.n	10001be4 <alarm_pool_alarm_callback+0x1c4>
10001bba:	9a06      	ldr	r2, [sp, #24]
10001bbc:	9b07      	ldr	r3, [sp, #28]
10001bbe:	1b52      	subs	r2, r2, r5
10001bc0:	41b3      	sbcs	r3, r6
10001bc2:	2b00      	cmp	r3, #0
10001bc4:	db14      	blt.n	10001bf0 <alarm_pool_alarm_callback+0x1d0>
10001bc6:	2b00      	cmp	r3, #0
10001bc8:	db16      	blt.n	10001bf8 <alarm_pool_alarm_callback+0x1d8>
10001bca:	2100      	movs	r1, #0
10001bcc:	9104      	str	r1, [sp, #16]
10001bce:	3101      	adds	r1, #1
10001bd0:	9103      	str	r1, [sp, #12]
10001bd2:	9402      	str	r4, [sp, #8]
10001bd4:	4651      	mov	r1, sl
10001bd6:	9101      	str	r1, [sp, #4]
10001bd8:	4641      	mov	r1, r8
10001bda:	9100      	str	r1, [sp, #0]
10001bdc:	0038      	movs	r0, r7
10001bde:	f7ff fe65 	bl	100018ac <add_alarm_under_lock>
10001be2:	e032      	b.n	10001c4a <alarm_pool_alarm_callback+0x22a>
10001be4:	4b55      	ldr	r3, [pc, #340]	; (10001d3c <alarm_pool_alarm_callback+0x31c>)
10001be6:	4a51      	ldr	r2, [pc, #324]	; (10001d2c <alarm_pool_alarm_callback+0x30c>)
10001be8:	21a1      	movs	r1, #161	; 0xa1
10001bea:	484e      	ldr	r0, [pc, #312]	; (10001d24 <alarm_pool_alarm_callback+0x304>)
10001bec:	f001 f95e 	bl	10002eac <__assert_func>
10001bf0:	2201      	movs	r2, #1
10001bf2:	4252      	negs	r2, r2
10001bf4:	4b52      	ldr	r3, [pc, #328]	; (10001d40 <alarm_pool_alarm_callback+0x320>)
10001bf6:	e7e6      	b.n	10001bc6 <alarm_pool_alarm_callback+0x1a6>
10001bf8:	4b45      	ldr	r3, [pc, #276]	; (10001d10 <alarm_pool_alarm_callback+0x2f0>)
10001bfa:	4a46      	ldr	r2, [pc, #280]	; (10001d14 <alarm_pool_alarm_callback+0x2f4>)
10001bfc:	213f      	movs	r1, #63	; 0x3f
10001bfe:	4846      	ldr	r0, [pc, #280]	; (10001d18 <alarm_pool_alarm_callback+0x2f8>)
10001c00:	f001 f954 	bl	10002eac <__assert_func>
10001c04:	2e00      	cmp	r6, #0
10001c06:	d101      	bne.n	10001c0c <alarm_pool_alarm_callback+0x1ec>
10001c08:	2d00      	cmp	r5, #0
10001c0a:	d1b4      	bne.n	10001b76 <alarm_pool_alarm_callback+0x156>
10001c0c:	683b      	ldr	r3, [r7, #0]
10001c0e:	2c00      	cmp	r4, #0
10001c10:	d050      	beq.n	10001cb4 <alarm_pool_alarm_callback+0x294>
10001c12:	7b5a      	ldrb	r2, [r3, #13]
10001c14:	4294      	cmp	r4, r2
10001c16:	d137      	bne.n	10001c88 <alarm_pool_alarm_callback+0x268>
10001c18:	2101      	movs	r1, #1
10001c1a:	2900      	cmp	r1, #0
10001c1c:	d14a      	bne.n	10001cb4 <alarm_pool_alarm_callback+0x294>
10001c1e:	7bda      	ldrb	r2, [r3, #15]
10001c20:	2a00      	cmp	r2, #0
10001c22:	d14d      	bne.n	10001cc0 <alarm_pool_alarm_callback+0x2a0>
10001c24:	7b9a      	ldrb	r2, [r3, #14]
10001c26:	2a00      	cmp	r2, #0
10001c28:	d103      	bne.n	10001c32 <alarm_pool_alarm_callback+0x212>
10001c2a:	7bda      	ldrb	r2, [r3, #15]
10001c2c:	2a00      	cmp	r2, #0
10001c2e:	d15a      	bne.n	10001ce6 <alarm_pool_alarm_callback+0x2c6>
10001c30:	739c      	strb	r4, [r3, #14]
10001c32:	73dc      	strb	r4, [r3, #15]
10001c34:	2c00      	cmp	r4, #0
10001c36:	d05c      	beq.n	10001cf2 <alarm_pool_alarm_callback+0x2d2>
10001c38:	683b      	ldr	r3, [r7, #0]
10001c3a:	7b1b      	ldrb	r3, [r3, #12]
10001c3c:	429c      	cmp	r4, r3
10001c3e:	d858      	bhi.n	10001cf2 <alarm_pool_alarm_callback+0x2d2>
10001c40:	68fa      	ldr	r2, [r7, #12]
10001c42:	3c01      	subs	r4, #1
10001c44:	5d13      	ldrb	r3, [r2, r4]
10001c46:	3301      	adds	r3, #1
10001c48:	5513      	strb	r3, [r2, r4]
10001c4a:	2300      	movs	r3, #0
10001c4c:	613b      	str	r3, [r7, #16]
10001c4e:	687a      	ldr	r2, [r7, #4]
10001c50:	f3bf 8f5f 	dmb	sy
10001c54:	6013      	str	r3, [r2, #0]
10001c56:	f38b 8810 	msr	PRIMASK, fp
10001c5a:	e743      	b.n	10001ae4 <alarm_pool_alarm_callback+0xc4>
10001c5c:	4b37      	ldr	r3, [pc, #220]	; (10001d3c <alarm_pool_alarm_callback+0x31c>)
10001c5e:	4a33      	ldr	r2, [pc, #204]	; (10001d2c <alarm_pool_alarm_callback+0x30c>)
10001c60:	21a4      	movs	r1, #164	; 0xa4
10001c62:	4830      	ldr	r0, [pc, #192]	; (10001d24 <alarm_pool_alarm_callback+0x304>)
10001c64:	f001 f922 	bl	10002eac <__assert_func>
10001c68:	4b29      	ldr	r3, [pc, #164]	; (10001d10 <alarm_pool_alarm_callback+0x2f0>)
10001c6a:	4a2a      	ldr	r2, [pc, #168]	; (10001d14 <alarm_pool_alarm_callback+0x2f4>)
10001c6c:	213f      	movs	r1, #63	; 0x3f
10001c6e:	482a      	ldr	r0, [pc, #168]	; (10001d18 <alarm_pool_alarm_callback+0x2f8>)
10001c70:	f001 f91c 	bl	10002eac <__assert_func>
10001c74:	2201      	movs	r2, #1
10001c76:	4252      	negs	r2, r2
10001c78:	4b31      	ldr	r3, [pc, #196]	; (10001d40 <alarm_pool_alarm_callback+0x320>)
10001c7a:	e78a      	b.n	10001b92 <alarm_pool_alarm_callback+0x172>
10001c7c:	4b24      	ldr	r3, [pc, #144]	; (10001d10 <alarm_pool_alarm_callback+0x2f0>)
10001c7e:	4a25      	ldr	r2, [pc, #148]	; (10001d14 <alarm_pool_alarm_callback+0x2f4>)
10001c80:	213f      	movs	r1, #63	; 0x3f
10001c82:	4825      	ldr	r0, [pc, #148]	; (10001d18 <alarm_pool_alarm_callback+0x2f8>)
10001c84:	f001 f912 	bl	10002eac <__assert_func>
10001c88:	2c00      	cmp	r4, #0
10001c8a:	d00d      	beq.n	10001ca8 <alarm_pool_alarm_callback+0x288>
10001c8c:	7b1a      	ldrb	r2, [r3, #12]
10001c8e:	4294      	cmp	r4, r2
10001c90:	d80a      	bhi.n	10001ca8 <alarm_pool_alarm_callback+0x288>
10001c92:	0062      	lsls	r2, r4, #1
10001c94:	1912      	adds	r2, r2, r4
10001c96:	3a03      	subs	r2, #3
10001c98:	6818      	ldr	r0, [r3, #0]
10001c9a:	4684      	mov	ip, r0
10001c9c:	4462      	add	r2, ip
10001c9e:	7892      	ldrb	r2, [r2, #2]
10001ca0:	2a00      	cmp	r2, #0
10001ca2:	d0ba      	beq.n	10001c1a <alarm_pool_alarm_callback+0x1fa>
10001ca4:	2101      	movs	r1, #1
10001ca6:	e7b8      	b.n	10001c1a <alarm_pool_alarm_callback+0x1fa>
10001ca8:	4b26      	ldr	r3, [pc, #152]	; (10001d44 <alarm_pool_alarm_callback+0x324>)
10001caa:	4a27      	ldr	r2, [pc, #156]	; (10001d48 <alarm_pool_alarm_callback+0x328>)
10001cac:	2168      	movs	r1, #104	; 0x68
10001cae:	4827      	ldr	r0, [pc, #156]	; (10001d4c <alarm_pool_alarm_callback+0x32c>)
10001cb0:	f001 f8fc 	bl	10002eac <__assert_func>
10001cb4:	4b26      	ldr	r3, [pc, #152]	; (10001d50 <alarm_pool_alarm_callback+0x330>)
10001cb6:	4a27      	ldr	r2, [pc, #156]	; (10001d54 <alarm_pool_alarm_callback+0x334>)
10001cb8:	21f6      	movs	r1, #246	; 0xf6
10001cba:	4824      	ldr	r0, [pc, #144]	; (10001d4c <alarm_pool_alarm_callback+0x32c>)
10001cbc:	f001 f8f6 	bl	10002eac <__assert_func>
10001cc0:	2a00      	cmp	r2, #0
10001cc2:	d00a      	beq.n	10001cda <alarm_pool_alarm_callback+0x2ba>
10001cc4:	7b19      	ldrb	r1, [r3, #12]
10001cc6:	428a      	cmp	r2, r1
10001cc8:	d807      	bhi.n	10001cda <alarm_pool_alarm_callback+0x2ba>
10001cca:	0051      	lsls	r1, r2, #1
10001ccc:	188a      	adds	r2, r1, r2
10001cce:	3a03      	subs	r2, #3
10001cd0:	6819      	ldr	r1, [r3, #0]
10001cd2:	468c      	mov	ip, r1
10001cd4:	4462      	add	r2, ip
10001cd6:	7054      	strb	r4, [r2, #1]
10001cd8:	e7a4      	b.n	10001c24 <alarm_pool_alarm_callback+0x204>
10001cda:	4b1a      	ldr	r3, [pc, #104]	; (10001d44 <alarm_pool_alarm_callback+0x324>)
10001cdc:	4a1a      	ldr	r2, [pc, #104]	; (10001d48 <alarm_pool_alarm_callback+0x328>)
10001cde:	2168      	movs	r1, #104	; 0x68
10001ce0:	481a      	ldr	r0, [pc, #104]	; (10001d4c <alarm_pool_alarm_callback+0x32c>)
10001ce2:	f001 f8e3 	bl	10002eac <__assert_func>
10001ce6:	4b1c      	ldr	r3, [pc, #112]	; (10001d58 <alarm_pool_alarm_callback+0x338>)
10001ce8:	4a1a      	ldr	r2, [pc, #104]	; (10001d54 <alarm_pool_alarm_callback+0x334>)
10001cea:	21fb      	movs	r1, #251	; 0xfb
10001cec:	4817      	ldr	r0, [pc, #92]	; (10001d4c <alarm_pool_alarm_callback+0x32c>)
10001cee:	f001 f8dd 	bl	10002eac <__assert_func>
10001cf2:	4b0a      	ldr	r3, [pc, #40]	; (10001d1c <alarm_pool_alarm_callback+0x2fc>)
10001cf4:	4a0f      	ldr	r2, [pc, #60]	; (10001d34 <alarm_pool_alarm_callback+0x314>)
10001cf6:	2141      	movs	r1, #65	; 0x41
10001cf8:	480a      	ldr	r0, [pc, #40]	; (10001d24 <alarm_pool_alarm_callback+0x304>)
10001cfa:	f001 f8d7 	bl	10002eac <__assert_func>
10001cfe:	b00b      	add	sp, #44	; 0x2c
10001d00:	bcf0      	pop	{r4, r5, r6, r7}
10001d02:	46bb      	mov	fp, r7
10001d04:	46b2      	mov	sl, r6
10001d06:	46a9      	mov	r9, r5
10001d08:	46a0      	mov	r8, r4
10001d0a:	bdf0      	pop	{r4, r5, r6, r7, pc}
10001d0c:	20002050 	.word	0x20002050
10001d10:	10013c1c 	.word	0x10013c1c
10001d14:	10013fac 	.word	0x10013fac
10001d18:	10013c38 	.word	0x10013c38
10001d1c:	10013d60 	.word	0x10013d60
10001d20:	10013fe0 	.word	0x10013fe0
10001d24:	10013d0c 	.word	0x10013d0c
10001d28:	10013e60 	.word	0x10013e60
10001d2c:	10013fc4 	.word	0x10013fc4
10001d30:	10013e78 	.word	0x10013e78
10001d34:	10014004 	.word	0x10014004
10001d38:	0fffffff 	.word	0x0fffffff
10001d3c:	10013e84 	.word	0x10013e84
10001d40:	7fffffff 	.word	0x7fffffff
10001d44:	10013d84 	.word	0x10013d84
10001d48:	1001404c 	.word	0x1001404c
10001d4c:	10013da0 	.word	0x10013da0
10001d50:	10013ec0 	.word	0x10013ec0
10001d54:	10014018 	.word	0x10014018
10001d58:	10013ee4 	.word	0x10013ee4

10001d5c <alarm_pool_init_default>:
10001d5c:	b510      	push	{r4, lr}
10001d5e:	4b0c      	ldr	r3, [pc, #48]	; (10001d90 <alarm_pool_init_default+0x34>)
10001d60:	685b      	ldr	r3, [r3, #4]
10001d62:	2b00      	cmp	r3, #0
10001d64:	d004      	beq.n	10001d70 <alarm_pool_init_default+0x14>
10001d66:	210a      	movs	r1, #10
10001d68:	480a      	ldr	r0, [pc, #40]	; (10001d94 <alarm_pool_init_default+0x38>)
10001d6a:	f7ff fc95 	bl	10001698 <lock_init>
10001d6e:	bd10      	pop	{r4, pc}
10001d70:	4c07      	ldr	r4, [pc, #28]	; (10001d90 <alarm_pool_init_default+0x34>)
10001d72:	0023      	movs	r3, r4
10001d74:	4a08      	ldr	r2, [pc, #32]	; (10001d98 <alarm_pool_init_default+0x3c>)
10001d76:	2110      	movs	r1, #16
10001d78:	6820      	ldr	r0, [r4, #0]
10001d7a:	f000 fc77 	bl	1000266c <ph_post_alloc_init>
10001d7e:	2003      	movs	r0, #3
10001d80:	f000 fa9e 	bl	100022c0 <hardware_alarm_claim>
10001d84:	2103      	movs	r1, #3
10001d86:	0020      	movs	r0, r4
10001d88:	f7ff fcac 	bl	100016e4 <alarm_pool_post_alloc_init>
10001d8c:	e7eb      	b.n	10001d66 <alarm_pool_init_default+0xa>
10001d8e:	46c0      	nop			; (mov r8, r8)
10001d90:	20001360 	.word	0x20001360
10001d94:	20002510 	.word	0x20002510
10001d98:	1000174d 	.word	0x1000174d

10001d9c <alarm_pool_get_default>:
10001d9c:	b510      	push	{r4, lr}
10001d9e:	4b06      	ldr	r3, [pc, #24]	; (10001db8 <alarm_pool_get_default+0x1c>)
10001da0:	685b      	ldr	r3, [r3, #4]
10001da2:	2b00      	cmp	r3, #0
10001da4:	d001      	beq.n	10001daa <alarm_pool_get_default+0xe>
10001da6:	4804      	ldr	r0, [pc, #16]	; (10001db8 <alarm_pool_get_default+0x1c>)
10001da8:	bd10      	pop	{r4, pc}
10001daa:	4b04      	ldr	r3, [pc, #16]	; (10001dbc <alarm_pool_get_default+0x20>)
10001dac:	4a04      	ldr	r2, [pc, #16]	; (10001dc0 <alarm_pool_get_default+0x24>)
10001dae:	215e      	movs	r1, #94	; 0x5e
10001db0:	4804      	ldr	r0, [pc, #16]	; (10001dc4 <alarm_pool_get_default+0x28>)
10001db2:	f001 f87b 	bl	10002eac <__assert_func>
10001db6:	46c0      	nop			; (mov r8, r8)
10001db8:	20001360 	.word	0x20001360
10001dbc:	10013ef8 	.word	0x10013ef8
10001dc0:	10013fec 	.word	0x10013fec
10001dc4:	10013d0c 	.word	0x10013d0c

10001dc8 <alarm_pool_add_alarm_at>:
10001dc8:	b5f0      	push	{r4, r5, r6, r7, lr}
10001dca:	46de      	mov	lr, fp
10001dcc:	4657      	mov	r7, sl
10001dce:	464e      	mov	r6, r9
10001dd0:	4645      	mov	r5, r8
10001dd2:	b5e0      	push	{r5, r6, r7, lr}
10001dd4:	b08b      	sub	sp, #44	; 0x2c
10001dd6:	4680      	mov	r8, r0
10001dd8:	0016      	movs	r6, r2
10001dda:	001f      	movs	r7, r3
10001ddc:	9b14      	ldr	r3, [sp, #80]	; 0x50
10001dde:	469a      	mov	sl, r3
10001de0:	9b15      	ldr	r3, [sp, #84]	; 0x54
10001de2:	4699      	mov	r9, r3
10001de4:	ab16      	add	r3, sp, #88	; 0x58
10001de6:	781b      	ldrb	r3, [r3, #0]
10001de8:	469b      	mov	fp, r3
10001dea:	231f      	movs	r3, #31
10001dec:	aa02      	add	r2, sp, #8
10001dee:	4694      	mov	ip, r2
10001df0:	4463      	add	r3, ip
10001df2:	2200      	movs	r2, #0
10001df4:	701a      	strb	r2, [r3, #0]
10001df6:	e02b      	b.n	10001e50 <alarm_pool_add_alarm_at+0x88>
10001df8:	2800      	cmp	r0, #0
10001dfa:	d009      	beq.n	10001e10 <alarm_pool_add_alarm_at+0x48>
10001dfc:	4642      	mov	r2, r8
10001dfe:	6812      	ldr	r2, [r2, #0]
10001e00:	7b12      	ldrb	r2, [r2, #12]
10001e02:	4290      	cmp	r0, r2
10001e04:	d804      	bhi.n	10001e10 <alarm_pool_add_alarm_at+0x48>
10001e06:	1e42      	subs	r2, r0, #1
10001e08:	4641      	mov	r1, r8
10001e0a:	68c9      	ldr	r1, [r1, #12]
10001e0c:	5c8a      	ldrb	r2, [r1, r2]
10001e0e:	e041      	b.n	10001e94 <alarm_pool_add_alarm_at+0xcc>
10001e10:	4b40      	ldr	r3, [pc, #256]	; (10001f14 <alarm_pool_add_alarm_at+0x14c>)
10001e12:	4a41      	ldr	r2, [pc, #260]	; (10001f18 <alarm_pool_add_alarm_at+0x150>)
10001e14:	2141      	movs	r1, #65	; 0x41
10001e16:	4841      	ldr	r0, [pc, #260]	; (10001f1c <alarm_pool_add_alarm_at+0x154>)
10001e18:	f001 f848 	bl	10002eac <__assert_func>
10001e1c:	9807      	ldr	r0, [sp, #28]
10001e1e:	e04c      	b.n	10001eba <alarm_pool_add_alarm_at+0xf2>
10001e20:	1b36      	subs	r6, r6, r4
10001e22:	41af      	sbcs	r7, r5
10001e24:	2f00      	cmp	r7, #0
10001e26:	db07      	blt.n	10001e38 <alarm_pool_add_alarm_at+0x70>
10001e28:	2f00      	cmp	r7, #0
10001e2a:	da11      	bge.n	10001e50 <alarm_pool_add_alarm_at+0x88>
10001e2c:	4b3c      	ldr	r3, [pc, #240]	; (10001f20 <alarm_pool_add_alarm_at+0x158>)
10001e2e:	4a3d      	ldr	r2, [pc, #244]	; (10001f24 <alarm_pool_add_alarm_at+0x15c>)
10001e30:	213f      	movs	r1, #63	; 0x3f
10001e32:	483d      	ldr	r0, [pc, #244]	; (10001f28 <alarm_pool_add_alarm_at+0x160>)
10001e34:	f001 f83a 	bl	10002eac <__assert_func>
10001e38:	2601      	movs	r6, #1
10001e3a:	4276      	negs	r6, r6
10001e3c:	4f3b      	ldr	r7, [pc, #236]	; (10001f2c <alarm_pool_add_alarm_at+0x164>)
10001e3e:	e7f3      	b.n	10001e28 <alarm_pool_add_alarm_at+0x60>
10001e40:	4b37      	ldr	r3, [pc, #220]	; (10001f20 <alarm_pool_add_alarm_at+0x158>)
10001e42:	4a38      	ldr	r2, [pc, #224]	; (10001f24 <alarm_pool_add_alarm_at+0x15c>)
10001e44:	213f      	movs	r1, #63	; 0x3f
10001e46:	4838      	ldr	r0, [pc, #224]	; (10001f28 <alarm_pool_add_alarm_at+0x160>)
10001e48:	f001 f830 	bl	10002eac <__assert_func>
10001e4c:	2f00      	cmp	r7, #0
10001e4e:	db4f      	blt.n	10001ef0 <alarm_pool_add_alarm_at+0x128>
10001e50:	4643      	mov	r3, r8
10001e52:	685a      	ldr	r2, [r3, #4]
10001e54:	f3ef 8410 	mrs	r4, PRIMASK
10001e58:	b672      	cpsid	i
10001e5a:	6813      	ldr	r3, [r2, #0]
10001e5c:	4259      	negs	r1, r3
10001e5e:	414b      	adcs	r3, r1
10001e60:	b2d9      	uxtb	r1, r3
10001e62:	9107      	str	r1, [sp, #28]
10001e64:	2b00      	cmp	r3, #0
10001e66:	d1f8      	bne.n	10001e5a <alarm_pool_add_alarm_at+0x92>
10001e68:	f3bf 8f5f 	dmb	sy
10001e6c:	331f      	adds	r3, #31
10001e6e:	aa02      	add	r2, sp, #8
10001e70:	4694      	mov	ip, r2
10001e72:	4463      	add	r3, ip
10001e74:	9304      	str	r3, [sp, #16]
10001e76:	2300      	movs	r3, #0
10001e78:	9303      	str	r3, [sp, #12]
10001e7a:	9302      	str	r3, [sp, #8]
10001e7c:	464b      	mov	r3, r9
10001e7e:	9301      	str	r3, [sp, #4]
10001e80:	4653      	mov	r3, sl
10001e82:	9300      	str	r3, [sp, #0]
10001e84:	0032      	movs	r2, r6
10001e86:	003b      	movs	r3, r7
10001e88:	4640      	mov	r0, r8
10001e8a:	f7ff fd0f 	bl	100018ac <add_alarm_under_lock>
10001e8e:	1e03      	subs	r3, r0, #0
10001e90:	d1b2      	bne.n	10001df8 <alarm_pool_add_alarm_at+0x30>
10001e92:	0002      	movs	r2, r0
10001e94:	4641      	mov	r1, r8
10001e96:	6849      	ldr	r1, [r1, #4]
10001e98:	f3bf 8f5f 	dmb	sy
10001e9c:	2500      	movs	r5, #0
10001e9e:	600d      	str	r5, [r1, #0]
10001ea0:	f384 8810 	msr	PRIMASK, r4
10001ea4:	2b00      	cmp	r3, #0
10001ea6:	d029      	beq.n	10001efc <alarm_pool_add_alarm_at+0x134>
10001ea8:	231f      	movs	r3, #31
10001eaa:	a902      	add	r1, sp, #8
10001eac:	468c      	mov	ip, r1
10001eae:	4463      	add	r3, ip
10001eb0:	781b      	ldrb	r3, [r3, #0]
10001eb2:	2b00      	cmp	r3, #0
10001eb4:	d1b2      	bne.n	10001e1c <alarm_pool_add_alarm_at+0x54>
10001eb6:	0212      	lsls	r2, r2, #8
10001eb8:	4310      	orrs	r0, r2
10001eba:	2b00      	cmp	r3, #0
10001ebc:	d020      	beq.n	10001f00 <alarm_pool_add_alarm_at+0x138>
10001ebe:	465b      	mov	r3, fp
10001ec0:	2b00      	cmp	r3, #0
10001ec2:	d01d      	beq.n	10001f00 <alarm_pool_add_alarm_at+0x138>
10001ec4:	4649      	mov	r1, r9
10001ec6:	47d0      	blx	sl
10001ec8:	0004      	movs	r4, r0
10001eca:	000d      	movs	r5, r1
10001ecc:	0003      	movs	r3, r0
10001ece:	430b      	orrs	r3, r1
10001ed0:	d01d      	beq.n	10001f0e <alarm_pool_add_alarm_at+0x146>
10001ed2:	2900      	cmp	r1, #0
10001ed4:	dba4      	blt.n	10001e20 <alarm_pool_add_alarm_at+0x58>
10001ed6:	f000 f9ff 	bl	100022d8 <time_us_64>
10001eda:	0006      	movs	r6, r0
10001edc:	1e0f      	subs	r7, r1, #0
10001ede:	dbaf      	blt.n	10001e40 <alarm_pool_add_alarm_at+0x78>
10001ee0:	1936      	adds	r6, r6, r4
10001ee2:	416f      	adcs	r7, r5
10001ee4:	2f00      	cmp	r7, #0
10001ee6:	dab1      	bge.n	10001e4c <alarm_pool_add_alarm_at+0x84>
10001ee8:	2601      	movs	r6, #1
10001eea:	4276      	negs	r6, r6
10001eec:	4f0f      	ldr	r7, [pc, #60]	; (10001f2c <alarm_pool_add_alarm_at+0x164>)
10001eee:	e7ad      	b.n	10001e4c <alarm_pool_add_alarm_at+0x84>
10001ef0:	4b0b      	ldr	r3, [pc, #44]	; (10001f20 <alarm_pool_add_alarm_at+0x158>)
10001ef2:	4a0c      	ldr	r2, [pc, #48]	; (10001f24 <alarm_pool_add_alarm_at+0x15c>)
10001ef4:	213f      	movs	r1, #63	; 0x3f
10001ef6:	480c      	ldr	r0, [pc, #48]	; (10001f28 <alarm_pool_add_alarm_at+0x160>)
10001ef8:	f000 ffd8 	bl	10002eac <__assert_func>
10001efc:	2001      	movs	r0, #1
10001efe:	4240      	negs	r0, r0
10001f00:	b00b      	add	sp, #44	; 0x2c
10001f02:	bcf0      	pop	{r4, r5, r6, r7}
10001f04:	46bb      	mov	fp, r7
10001f06:	46b2      	mov	sl, r6
10001f08:	46a9      	mov	r9, r5
10001f0a:	46a0      	mov	r8, r4
10001f0c:	bdf0      	pop	{r4, r5, r6, r7, pc}
10001f0e:	9807      	ldr	r0, [sp, #28]
10001f10:	e7f6      	b.n	10001f00 <alarm_pool_add_alarm_at+0x138>
10001f12:	46c0      	nop			; (mov r8, r8)
10001f14:	10013d60 	.word	0x10013d60
10001f18:	10014004 	.word	0x10014004
10001f1c:	10013d0c 	.word	0x10013d0c
10001f20:	10013c1c 	.word	0x10013c1c
10001f24:	10013fac 	.word	0x10013fac
10001f28:	10013c38 	.word	0x10013c38
10001f2c:	7fffffff 	.word	0x7fffffff

10001f30 <alarm_pool_cancel_alarm>:
10001f30:	b5f8      	push	{r3, r4, r5, r6, r7, lr}
10001f32:	0004      	movs	r4, r0
10001f34:	2900      	cmp	r1, #0
10001f36:	d100      	bne.n	10001f3a <alarm_pool_cancel_alarm+0xa>
10001f38:	e062      	b.n	10002000 <alarm_pool_cancel_alarm+0xd0>
10001f3a:	6842      	ldr	r2, [r0, #4]
10001f3c:	f3ef 8510 	mrs	r5, PRIMASK
10001f40:	b672      	cpsid	i
10001f42:	6813      	ldr	r3, [r2, #0]
10001f44:	4258      	negs	r0, r3
10001f46:	4143      	adcs	r3, r0
10001f48:	b2d8      	uxtb	r0, r3
10001f4a:	2b00      	cmp	r3, #0
10001f4c:	d1f9      	bne.n	10001f42 <alarm_pool_cancel_alarm+0x12>
10001f4e:	f3bf 8f5f 	dmb	sy
10001f52:	b2cb      	uxtb	r3, r1
10001f54:	6822      	ldr	r2, [r4, #0]
10001f56:	7b56      	ldrb	r6, [r2, #13]
10001f58:	42b3      	cmp	r3, r6
10001f5a:	d11b      	bne.n	10001f94 <alarm_pool_cancel_alarm+0x64>
10001f5c:	2001      	movs	r0, #1
10001f5e:	2800      	cmp	r0, #0
10001f60:	d048      	beq.n	10001ff4 <alarm_pool_cancel_alarm+0xc4>
10001f62:	6920      	ldr	r0, [r4, #16]
10001f64:	4288      	cmp	r0, r1
10001f66:	d02b      	beq.n	10001fc0 <alarm_pool_cancel_alarm+0x90>
10001f68:	0a09      	lsrs	r1, r1, #8
10001f6a:	b2c9      	uxtb	r1, r1
10001f6c:	2b00      	cmp	r3, #0
10001f6e:	d02e      	beq.n	10001fce <alarm_pool_cancel_alarm+0x9e>
10001f70:	6820      	ldr	r0, [r4, #0]
10001f72:	7b00      	ldrb	r0, [r0, #12]
10001f74:	4283      	cmp	r3, r0
10001f76:	d82a      	bhi.n	10001fce <alarm_pool_cancel_alarm+0x9e>
10001f78:	1e58      	subs	r0, r3, #1
10001f7a:	68e6      	ldr	r6, [r4, #12]
10001f7c:	5c30      	ldrb	r0, [r6, r0]
10001f7e:	4288      	cmp	r0, r1
10001f80:	d02b      	beq.n	10001fda <alarm_pool_cancel_alarm+0xaa>
10001f82:	2000      	movs	r0, #0
10001f84:	6863      	ldr	r3, [r4, #4]
10001f86:	f3bf 8f5f 	dmb	sy
10001f8a:	2200      	movs	r2, #0
10001f8c:	601a      	str	r2, [r3, #0]
10001f8e:	f385 8810 	msr	PRIMASK, r5
10001f92:	bdf8      	pop	{r3, r4, r5, r6, r7, pc}
10001f94:	2b00      	cmp	r3, #0
10001f96:	d00d      	beq.n	10001fb4 <alarm_pool_cancel_alarm+0x84>
10001f98:	7b16      	ldrb	r6, [r2, #12]
10001f9a:	42b3      	cmp	r3, r6
10001f9c:	d80a      	bhi.n	10001fb4 <alarm_pool_cancel_alarm+0x84>
10001f9e:	005e      	lsls	r6, r3, #1
10001fa0:	18f6      	adds	r6, r6, r3
10001fa2:	3e03      	subs	r6, #3
10001fa4:	6817      	ldr	r7, [r2, #0]
10001fa6:	46bc      	mov	ip, r7
10001fa8:	4466      	add	r6, ip
10001faa:	78b6      	ldrb	r6, [r6, #2]
10001fac:	2e00      	cmp	r6, #0
10001fae:	d0d6      	beq.n	10001f5e <alarm_pool_cancel_alarm+0x2e>
10001fb0:	2001      	movs	r0, #1
10001fb2:	e7d4      	b.n	10001f5e <alarm_pool_cancel_alarm+0x2e>
10001fb4:	4b13      	ldr	r3, [pc, #76]	; (10002004 <alarm_pool_cancel_alarm+0xd4>)
10001fb6:	4a14      	ldr	r2, [pc, #80]	; (10002008 <alarm_pool_cancel_alarm+0xd8>)
10001fb8:	2168      	movs	r1, #104	; 0x68
10001fba:	4814      	ldr	r0, [pc, #80]	; (1000200c <alarm_pool_cancel_alarm+0xdc>)
10001fbc:	f000 ff76 	bl	10002eac <__assert_func>
10001fc0:	212c      	movs	r1, #44	; 0x2c
10001fc2:	4b13      	ldr	r3, [pc, #76]	; (10002010 <alarm_pool_cancel_alarm+0xe0>)
10001fc4:	4a13      	ldr	r2, [pc, #76]	; (10002014 <alarm_pool_cancel_alarm+0xe4>)
10001fc6:	31ff      	adds	r1, #255	; 0xff
10001fc8:	4813      	ldr	r0, [pc, #76]	; (10002018 <alarm_pool_cancel_alarm+0xe8>)
10001fca:	f000 ff6f 	bl	10002eac <__assert_func>
10001fce:	4b13      	ldr	r3, [pc, #76]	; (1000201c <alarm_pool_cancel_alarm+0xec>)
10001fd0:	4a13      	ldr	r2, [pc, #76]	; (10002020 <alarm_pool_cancel_alarm+0xf0>)
10001fd2:	2141      	movs	r1, #65	; 0x41
10001fd4:	4810      	ldr	r0, [pc, #64]	; (10002018 <alarm_pool_cancel_alarm+0xe8>)
10001fd6:	f000 ff69 	bl	10002eac <__assert_func>
10001fda:	0019      	movs	r1, r3
10001fdc:	0010      	movs	r0, r2
10001fde:	f000 fc3f 	bl	10002860 <ph_remove_and_free_node>
10001fe2:	2800      	cmp	r0, #0
10001fe4:	d1ce      	bne.n	10001f84 <alarm_pool_cancel_alarm+0x54>
10001fe6:	2199      	movs	r1, #153	; 0x99
10001fe8:	4b0e      	ldr	r3, [pc, #56]	; (10002024 <alarm_pool_cancel_alarm+0xf4>)
10001fea:	4a0a      	ldr	r2, [pc, #40]	; (10002014 <alarm_pool_cancel_alarm+0xe4>)
10001fec:	0049      	lsls	r1, r1, #1
10001fee:	480a      	ldr	r0, [pc, #40]	; (10002018 <alarm_pool_cancel_alarm+0xe8>)
10001ff0:	f000 ff5c 	bl	10002eac <__assert_func>
10001ff4:	6923      	ldr	r3, [r4, #16]
10001ff6:	428b      	cmp	r3, r1
10001ff8:	d1c4      	bne.n	10001f84 <alarm_pool_cancel_alarm+0x54>
10001ffa:	2300      	movs	r3, #0
10001ffc:	6123      	str	r3, [r4, #16]
10001ffe:	e7c1      	b.n	10001f84 <alarm_pool_cancel_alarm+0x54>
10002000:	2000      	movs	r0, #0
10002002:	e7c6      	b.n	10001f92 <alarm_pool_cancel_alarm+0x62>
10002004:	10013d84 	.word	0x10013d84
10002008:	1001404c 	.word	0x1001404c
1000200c:	10013da0 	.word	0x10013da0
10002010:	10013f1c 	.word	0x10013f1c
10002014:	10013f94 	.word	0x10013f94
10002018:	10013d0c 	.word	0x10013d0c
1000201c:	10013d60 	.word	0x10013d60
10002020:	10014004 	.word	0x10014004
10002024:	10013f40 	.word	0x10013f40

10002028 <sleep_until>:
10002028:	b5f0      	push	{r4, r5, r6, r7, lr}
1000202a:	b087      	sub	sp, #28
1000202c:	0006      	movs	r6, r0
1000202e:	000f      	movs	r7, r1
10002030:	f3ef 8305 	mrs	r3, IPSR
10002034:	2b00      	cmp	r3, #0
10002036:	d11f      	bne.n	10002078 <sleep_until+0x50>
10002038:	2496      	movs	r4, #150	; 0x96
1000203a:	4264      	negs	r4, r4
1000203c:	17e5      	asrs	r5, r4, #31
1000203e:	19a4      	adds	r4, r4, r6
10002040:	417d      	adcs	r5, r7
10002042:	428d      	cmp	r5, r1
10002044:	d802      	bhi.n	1000204c <sleep_until+0x24>
10002046:	d103      	bne.n	10002050 <sleep_until+0x28>
10002048:	4284      	cmp	r4, r0
1000204a:	d901      	bls.n	10002050 <sleep_until+0x28>
1000204c:	2400      	movs	r4, #0
1000204e:	2500      	movs	r5, #0
10002050:	2d00      	cmp	r5, #0
10002052:	db14      	blt.n	1000207e <sleep_until+0x56>
10002054:	9404      	str	r4, [sp, #16]
10002056:	9505      	str	r5, [sp, #20]
10002058:	f000 f93e 	bl	100022d8 <time_us_64>
1000205c:	0002      	movs	r2, r0
1000205e:	1e0b      	subs	r3, r1, #0
10002060:	db13      	blt.n	1000208a <sleep_until+0x62>
10002062:	1aa4      	subs	r4, r4, r2
10002064:	419d      	sbcs	r5, r3
10002066:	2d00      	cmp	r5, #0
10002068:	dc17      	bgt.n	1000209a <sleep_until+0x72>
1000206a:	d014      	beq.n	10002096 <sleep_until+0x6e>
1000206c:	0030      	movs	r0, r6
1000206e:	0039      	movs	r1, r7
10002070:	f000 f93e 	bl	100022f0 <busy_wait_until>
10002074:	b007      	add	sp, #28
10002076:	bdf0      	pop	{r4, r5, r6, r7, pc}
10002078:	4820      	ldr	r0, [pc, #128]	; (100020fc <sleep_until+0xd4>)
1000207a:	f000 ffb1 	bl	10002fe0 <panic>
1000207e:	4b20      	ldr	r3, [pc, #128]	; (10002100 <sleep_until+0xd8>)
10002080:	4a20      	ldr	r2, [pc, #128]	; (10002104 <sleep_until+0xdc>)
10002082:	213f      	movs	r1, #63	; 0x3f
10002084:	4820      	ldr	r0, [pc, #128]	; (10002108 <sleep_until+0xe0>)
10002086:	f000 ff11 	bl	10002eac <__assert_func>
1000208a:	4b1d      	ldr	r3, [pc, #116]	; (10002100 <sleep_until+0xd8>)
1000208c:	4a1d      	ldr	r2, [pc, #116]	; (10002104 <sleep_until+0xdc>)
1000208e:	213f      	movs	r1, #63	; 0x3f
10002090:	481d      	ldr	r0, [pc, #116]	; (10002108 <sleep_until+0xe0>)
10002092:	f000 ff0b 	bl	10002eac <__assert_func>
10002096:	2c00      	cmp	r4, #0
10002098:	d0e8      	beq.n	1000206c <sleep_until+0x44>
1000209a:	f7ff fe7f 	bl	10001d9c <alarm_pool_get_default>
1000209e:	2300      	movs	r3, #0
100020a0:	9302      	str	r3, [sp, #8]
100020a2:	9301      	str	r3, [sp, #4]
100020a4:	4b19      	ldr	r3, [pc, #100]	; (1000210c <sleep_until+0xe4>)
100020a6:	9300      	str	r3, [sp, #0]
100020a8:	9a04      	ldr	r2, [sp, #16]
100020aa:	9b05      	ldr	r3, [sp, #20]
100020ac:	f7ff fe8c 	bl	10001dc8 <alarm_pool_add_alarm_at>
100020b0:	2800      	cmp	r0, #0
100020b2:	da12      	bge.n	100020da <sleep_until+0xb2>
100020b4:	e7da      	b.n	1000206c <sleep_until+0x44>
100020b6:	2300      	movs	r3, #0
100020b8:	e000      	b.n	100020bc <sleep_until+0x94>
100020ba:	2300      	movs	r3, #0
100020bc:	2b00      	cmp	r3, #0
100020be:	d1d5      	bne.n	1000206c <sleep_until+0x44>
100020c0:	4b13      	ldr	r3, [pc, #76]	; (10002110 <sleep_until+0xe8>)
100020c2:	681a      	ldr	r2, [r3, #0]
100020c4:	f3ef 8110 	mrs	r1, PRIMASK
100020c8:	b672      	cpsid	i
100020ca:	6813      	ldr	r3, [r2, #0]
100020cc:	2b00      	cmp	r3, #0
100020ce:	d0fc      	beq.n	100020ca <sleep_until+0xa2>
100020d0:	f3bf 8f5f 	dmb	sy
100020d4:	480e      	ldr	r0, [pc, #56]	; (10002110 <sleep_until+0xe8>)
100020d6:	f004 f85b 	bl	10006190 <vPortLockInternalSpinUnlockWithWait>
100020da:	9904      	ldr	r1, [sp, #16]
100020dc:	9a05      	ldr	r2, [sp, #20]
100020de:	4b0d      	ldr	r3, [pc, #52]	; (10002114 <sleep_until+0xec>)
100020e0:	6a5b      	ldr	r3, [r3, #36]	; 0x24
100020e2:	429a      	cmp	r2, r3
100020e4:	d8e9      	bhi.n	100020ba <sleep_until+0x92>
100020e6:	480b      	ldr	r0, [pc, #44]	; (10002114 <sleep_until+0xec>)
100020e8:	6a80      	ldr	r0, [r0, #40]	; 0x28
100020ea:	4288      	cmp	r0, r1
100020ec:	d203      	bcs.n	100020f6 <sleep_until+0xce>
100020ee:	429a      	cmp	r2, r3
100020f0:	d0e1      	beq.n	100020b6 <sleep_until+0x8e>
100020f2:	2301      	movs	r3, #1
100020f4:	e7e2      	b.n	100020bc <sleep_until+0x94>
100020f6:	2301      	movs	r3, #1
100020f8:	e7e0      	b.n	100020bc <sleep_until+0x94>
100020fa:	46c0      	nop			; (mov r8, r8)
100020fc:	10013f44 	.word	0x10013f44
10002100:	10013c1c 	.word	0x10013c1c
10002104:	10013fac 	.word	0x10013fac
10002108:	10013c38 	.word	0x10013c38
1000210c:	10001725 	.word	0x10001725
10002110:	20002510 	.word	0x20002510
10002114:	40054000 	.word	0x40054000

10002118 <sleep_us>:
10002118:	b570      	push	{r4, r5, r6, lr}
1000211a:	0004      	movs	r4, r0
1000211c:	000d      	movs	r5, r1
1000211e:	f000 f8db 	bl	100022d8 <time_us_64>
10002122:	0002      	movs	r2, r0
10002124:	1e0b      	subs	r3, r1, #0
10002126:	db0a      	blt.n	1000213e <sleep_us+0x26>
10002128:	0020      	movs	r0, r4
1000212a:	0029      	movs	r1, r5
1000212c:	1880      	adds	r0, r0, r2
1000212e:	4159      	adcs	r1, r3
10002130:	2900      	cmp	r1, #0
10002132:	db0a      	blt.n	1000214a <sleep_us+0x32>
10002134:	2900      	cmp	r1, #0
10002136:	db0c      	blt.n	10002152 <sleep_us+0x3a>
10002138:	f7ff ff76 	bl	10002028 <sleep_until>
1000213c:	bd70      	pop	{r4, r5, r6, pc}
1000213e:	4b08      	ldr	r3, [pc, #32]	; (10002160 <sleep_us+0x48>)
10002140:	4a08      	ldr	r2, [pc, #32]	; (10002164 <sleep_us+0x4c>)
10002142:	213f      	movs	r1, #63	; 0x3f
10002144:	4808      	ldr	r0, [pc, #32]	; (10002168 <sleep_us+0x50>)
10002146:	f000 feb1 	bl	10002eac <__assert_func>
1000214a:	2001      	movs	r0, #1
1000214c:	4240      	negs	r0, r0
1000214e:	4907      	ldr	r1, [pc, #28]	; (1000216c <sleep_us+0x54>)
10002150:	e7f0      	b.n	10002134 <sleep_us+0x1c>
10002152:	4b03      	ldr	r3, [pc, #12]	; (10002160 <sleep_us+0x48>)
10002154:	4a03      	ldr	r2, [pc, #12]	; (10002164 <sleep_us+0x4c>)
10002156:	213f      	movs	r1, #63	; 0x3f
10002158:	4803      	ldr	r0, [pc, #12]	; (10002168 <sleep_us+0x50>)
1000215a:	f000 fea7 	bl	10002eac <__assert_func>
1000215e:	46c0      	nop			; (mov r8, r8)
10002160:	10013c1c 	.word	0x10013c1c
10002164:	10013fac 	.word	0x10013fac
10002168:	10013c38 	.word	0x10013c38
1000216c:	7fffffff 	.word	0x7fffffff

10002170 <sleep_ms>:
10002170:	b510      	push	{r4, lr}
10002172:	22fa      	movs	r2, #250	; 0xfa
10002174:	0092      	lsls	r2, r2, #2
10002176:	2300      	movs	r3, #0
10002178:	2100      	movs	r1, #0
1000217a:	f003 f8f3 	bl	10005364 <__wrap___aeabi_lmul>
1000217e:	f7ff ffcb 	bl	10002118 <sleep_us>
10002182:	bd10      	pop	{r4, pc}

10002184 <best_effort_wfe_or_timeout>:
10002184:	b570      	push	{r4, r5, r6, lr}
10002186:	b084      	sub	sp, #16
10002188:	0005      	movs	r5, r0
1000218a:	000c      	movs	r4, r1
1000218c:	f3ef 8305 	mrs	r3, IPSR
10002190:	2b00      	cmp	r3, #0
10002192:	d11e      	bne.n	100021d2 <best_effort_wfe_or_timeout+0x4e>
10002194:	f7ff fe02 	bl	10001d9c <alarm_pool_get_default>
10002198:	2300      	movs	r3, #0
1000219a:	9302      	str	r3, [sp, #8]
1000219c:	9301      	str	r3, [sp, #4]
1000219e:	4b22      	ldr	r3, [pc, #136]	; (10002228 <best_effort_wfe_or_timeout+0xa4>)
100021a0:	9300      	str	r3, [sp, #0]
100021a2:	002a      	movs	r2, r5
100021a4:	0023      	movs	r3, r4
100021a6:	f7ff fe0f 	bl	10001dc8 <alarm_pool_add_alarm_at>
100021aa:	1e06      	subs	r6, r0, #0
100021ac:	dd23      	ble.n	100021f6 <best_effort_wfe_or_timeout+0x72>
100021ae:	bf20      	wfe
100021b0:	f7ff fdf4 	bl	10001d9c <alarm_pool_get_default>
100021b4:	0031      	movs	r1, r6
100021b6:	f7ff febb 	bl	10001f30 <alarm_pool_cancel_alarm>
100021ba:	4b1c      	ldr	r3, [pc, #112]	; (1000222c <best_effort_wfe_or_timeout+0xa8>)
100021bc:	6a5b      	ldr	r3, [r3, #36]	; 0x24
100021be:	429c      	cmp	r4, r3
100021c0:	d82d      	bhi.n	1000221e <best_effort_wfe_or_timeout+0x9a>
100021c2:	4a1a      	ldr	r2, [pc, #104]	; (1000222c <best_effort_wfe_or_timeout+0xa8>)
100021c4:	6a92      	ldr	r2, [r2, #40]	; 0x28
100021c6:	42aa      	cmp	r2, r5
100021c8:	d22c      	bcs.n	10002224 <best_effort_wfe_or_timeout+0xa0>
100021ca:	429c      	cmp	r4, r3
100021cc:	d025      	beq.n	1000221a <best_effort_wfe_or_timeout+0x96>
100021ce:	2001      	movs	r0, #1
100021d0:	e026      	b.n	10002220 <best_effort_wfe_or_timeout+0x9c>
100021d2:	4b16      	ldr	r3, [pc, #88]	; (1000222c <best_effort_wfe_or_timeout+0xa8>)
100021d4:	6a5b      	ldr	r3, [r3, #36]	; 0x24
100021d6:	4299      	cmp	r1, r3
100021d8:	d809      	bhi.n	100021ee <best_effort_wfe_or_timeout+0x6a>
100021da:	4a14      	ldr	r2, [pc, #80]	; (1000222c <best_effort_wfe_or_timeout+0xa8>)
100021dc:	6a92      	ldr	r2, [r2, #40]	; 0x28
100021de:	4282      	cmp	r2, r0
100021e0:	d207      	bcs.n	100021f2 <best_effort_wfe_or_timeout+0x6e>
100021e2:	4299      	cmp	r1, r3
100021e4:	d001      	beq.n	100021ea <best_effort_wfe_or_timeout+0x66>
100021e6:	2001      	movs	r0, #1
100021e8:	e01a      	b.n	10002220 <best_effort_wfe_or_timeout+0x9c>
100021ea:	2000      	movs	r0, #0
100021ec:	e018      	b.n	10002220 <best_effort_wfe_or_timeout+0x9c>
100021ee:	2000      	movs	r0, #0
100021f0:	e016      	b.n	10002220 <best_effort_wfe_or_timeout+0x9c>
100021f2:	2001      	movs	r0, #1
100021f4:	e014      	b.n	10002220 <best_effort_wfe_or_timeout+0x9c>
100021f6:	4b0d      	ldr	r3, [pc, #52]	; (1000222c <best_effort_wfe_or_timeout+0xa8>)
100021f8:	6a5b      	ldr	r3, [r3, #36]	; 0x24
100021fa:	429c      	cmp	r4, r3
100021fc:	d809      	bhi.n	10002212 <best_effort_wfe_or_timeout+0x8e>
100021fe:	4a0b      	ldr	r2, [pc, #44]	; (1000222c <best_effort_wfe_or_timeout+0xa8>)
10002200:	6a92      	ldr	r2, [r2, #40]	; 0x28
10002202:	42aa      	cmp	r2, r5
10002204:	d207      	bcs.n	10002216 <best_effort_wfe_or_timeout+0x92>
10002206:	429c      	cmp	r4, r3
10002208:	d001      	beq.n	1000220e <best_effort_wfe_or_timeout+0x8a>
1000220a:	2001      	movs	r0, #1
1000220c:	e008      	b.n	10002220 <best_effort_wfe_or_timeout+0x9c>
1000220e:	2000      	movs	r0, #0
10002210:	e006      	b.n	10002220 <best_effort_wfe_or_timeout+0x9c>
10002212:	2000      	movs	r0, #0
10002214:	e004      	b.n	10002220 <best_effort_wfe_or_timeout+0x9c>
10002216:	2001      	movs	r0, #1
10002218:	e002      	b.n	10002220 <best_effort_wfe_or_timeout+0x9c>
1000221a:	2000      	movs	r0, #0
1000221c:	e000      	b.n	10002220 <best_effort_wfe_or_timeout+0x9c>
1000221e:	2000      	movs	r0, #0
10002220:	b004      	add	sp, #16
10002222:	bd70      	pop	{r4, r5, r6, pc}
10002224:	2001      	movs	r0, #1
10002226:	e7fb      	b.n	10002220 <best_effort_wfe_or_timeout+0x9c>
10002228:	10001725 	.word	0x10001725
1000222c:	40054000 	.word	0x40054000

10002230 <hardware_alarm_irq_handler>:
10002230:	b570      	push	{r4, r5, r6, lr}
10002232:	f3ef 8005 	mrs	r0, IPSR
10002236:	3810      	subs	r0, #16
10002238:	f3ef 8c10 	mrs	ip, PRIMASK
1000223c:	b672      	cpsid	i
1000223e:	4b1a      	ldr	r3, [pc, #104]	; (100022a8 <hardware_alarm_irq_handler+0x78>)
10002240:	681b      	ldr	r3, [r3, #0]
10002242:	2b00      	cmp	r3, #0
10002244:	d0fb      	beq.n	1000223e <hardware_alarm_irq_handler+0xe>
10002246:	f3bf 8f5f 	dmb	sy
1000224a:	2201      	movs	r2, #1
1000224c:	0013      	movs	r3, r2
1000224e:	4083      	lsls	r3, r0
10002250:	4916      	ldr	r1, [pc, #88]	; (100022ac <hardware_alarm_irq_handler+0x7c>)
10002252:	634b      	str	r3, [r1, #52]	; 0x34
10002254:	4916      	ldr	r1, [pc, #88]	; (100022b0 <hardware_alarm_irq_handler+0x80>)
10002256:	600b      	str	r3, [r1, #0]
10002258:	4916      	ldr	r1, [pc, #88]	; (100022b4 <hardware_alarm_irq_handler+0x84>)
1000225a:	7809      	ldrb	r1, [r1, #0]
1000225c:	000c      	movs	r4, r1
1000225e:	40c4      	lsrs	r4, r0
10002260:	4222      	tst	r2, r4
10002262:	d014      	beq.n	1000228e <hardware_alarm_irq_handler+0x5e>
10002264:	4a11      	ldr	r2, [pc, #68]	; (100022ac <hardware_alarm_irq_handler+0x7c>)
10002266:	6a54      	ldr	r4, [r2, #36]	; 0x24
10002268:	0082      	lsls	r2, r0, #2
1000226a:	4d13      	ldr	r5, [pc, #76]	; (100022b8 <hardware_alarm_irq_handler+0x88>)
1000226c:	5952      	ldr	r2, [r2, r5]
1000226e:	4294      	cmp	r4, r2
10002270:	d306      	bcc.n	10002280 <hardware_alarm_irq_handler+0x50>
10002272:	0082      	lsls	r2, r0, #2
10002274:	4c11      	ldr	r4, [pc, #68]	; (100022bc <hardware_alarm_irq_handler+0x8c>)
10002276:	5912      	ldr	r2, [r2, r4]
10002278:	4399      	bics	r1, r3
1000227a:	4b0e      	ldr	r3, [pc, #56]	; (100022b4 <hardware_alarm_irq_handler+0x84>)
1000227c:	7019      	strb	r1, [r3, #0]
1000227e:	e007      	b.n	10002290 <hardware_alarm_irq_handler+0x60>
10002280:	4a0a      	ldr	r2, [pc, #40]	; (100022ac <hardware_alarm_irq_handler+0x7c>)
10002282:	1d03      	adds	r3, r0, #4
10002284:	009b      	lsls	r3, r3, #2
10002286:	5899      	ldr	r1, [r3, r2]
10002288:	5099      	str	r1, [r3, r2]
1000228a:	2200      	movs	r2, #0
1000228c:	e000      	b.n	10002290 <hardware_alarm_irq_handler+0x60>
1000228e:	2200      	movs	r2, #0
10002290:	f3bf 8f5f 	dmb	sy
10002294:	4b04      	ldr	r3, [pc, #16]	; (100022a8 <hardware_alarm_irq_handler+0x78>)
10002296:	2100      	movs	r1, #0
10002298:	6019      	str	r1, [r3, #0]
1000229a:	f38c 8810 	msr	PRIMASK, ip
1000229e:	2a00      	cmp	r2, #0
100022a0:	d000      	beq.n	100022a4 <hardware_alarm_irq_handler+0x74>
100022a2:	4790      	blx	r2
100022a4:	bd70      	pop	{r4, r5, r6, pc}
100022a6:	46c0      	nop			; (mov r8, r8)
100022a8:	d0000128 	.word	0xd0000128
100022ac:	40054000 	.word	0x40054000
100022b0:	4005703c 	.word	0x4005703c
100022b4:	20022670 	.word	0x20022670
100022b8:	20002514 	.word	0x20002514
100022bc:	20001ebc 	.word	0x20001ebc

100022c0 <hardware_alarm_claim>:
100022c0:	b510      	push	{r4, lr}
100022c2:	0001      	movs	r1, r0
100022c4:	4a02      	ldr	r2, [pc, #8]	; (100022d0 <hardware_alarm_claim+0x10>)
100022c6:	4803      	ldr	r0, [pc, #12]	; (100022d4 <hardware_alarm_claim+0x14>)
100022c8:	f7fe ff84 	bl	100011d4 <hw_claim_or_assert>
100022cc:	bd10      	pop	{r4, pc}
100022ce:	46c0      	nop			; (mov r8, r8)
100022d0:	10014078 	.word	0x10014078
100022d4:	2002266e 	.word	0x2002266e

100022d8 <time_us_64>:
100022d8:	4b04      	ldr	r3, [pc, #16]	; (100022ec <time_us_64+0x14>)
100022da:	6a5b      	ldr	r3, [r3, #36]	; 0x24
100022dc:	4a03      	ldr	r2, [pc, #12]	; (100022ec <time_us_64+0x14>)
100022de:	6a90      	ldr	r0, [r2, #40]	; 0x28
100022e0:	0019      	movs	r1, r3
100022e2:	6a53      	ldr	r3, [r2, #36]	; 0x24
100022e4:	4299      	cmp	r1, r3
100022e6:	d1f9      	bne.n	100022dc <time_us_64+0x4>
100022e8:	4770      	bx	lr
100022ea:	46c0      	nop			; (mov r8, r8)
100022ec:	40054000 	.word	0x40054000

100022f0 <busy_wait_until>:
100022f0:	4b08      	ldr	r3, [pc, #32]	; (10002314 <busy_wait_until+0x24>)
100022f2:	6a5b      	ldr	r3, [r3, #36]	; 0x24
100022f4:	e001      	b.n	100022fa <busy_wait_until+0xa>
100022f6:	4b07      	ldr	r3, [pc, #28]	; (10002314 <busy_wait_until+0x24>)
100022f8:	6a5b      	ldr	r3, [r3, #36]	; 0x24
100022fa:	428b      	cmp	r3, r1
100022fc:	d3fb      	bcc.n	100022f6 <busy_wait_until+0x6>
100022fe:	e001      	b.n	10002304 <busy_wait_until+0x14>
10002300:	4b04      	ldr	r3, [pc, #16]	; (10002314 <busy_wait_until+0x24>)
10002302:	6a5b      	ldr	r3, [r3, #36]	; 0x24
10002304:	428b      	cmp	r3, r1
10002306:	d103      	bne.n	10002310 <busy_wait_until+0x20>
10002308:	4b02      	ldr	r3, [pc, #8]	; (10002314 <busy_wait_until+0x24>)
1000230a:	6a9b      	ldr	r3, [r3, #40]	; 0x28
1000230c:	4283      	cmp	r3, r0
1000230e:	d3f7      	bcc.n	10002300 <busy_wait_until+0x10>
10002310:	4770      	bx	lr
10002312:	46c0      	nop			; (mov r8, r8)
10002314:	40054000 	.word	0x40054000

10002318 <busy_wait_us>:
10002318:	b570      	push	{r4, r5, r6, lr}
1000231a:	0004      	movs	r4, r0
1000231c:	000d      	movs	r5, r1
1000231e:	f7ff ffdb 	bl	100022d8 <time_us_64>
10002322:	0002      	movs	r2, r0
10002324:	000b      	movs	r3, r1
10002326:	0020      	movs	r0, r4
10002328:	0029      	movs	r1, r5
1000232a:	1880      	adds	r0, r0, r2
1000232c:	4159      	adcs	r1, r3
1000232e:	428b      	cmp	r3, r1
10002330:	d802      	bhi.n	10002338 <busy_wait_us+0x20>
10002332:	d104      	bne.n	1000233e <busy_wait_us+0x26>
10002334:	4282      	cmp	r2, r0
10002336:	d902      	bls.n	1000233e <busy_wait_us+0x26>
10002338:	2001      	movs	r0, #1
1000233a:	4240      	negs	r0, r0
1000233c:	17c1      	asrs	r1, r0, #31
1000233e:	2900      	cmp	r1, #0
10002340:	db02      	blt.n	10002348 <busy_wait_us+0x30>
10002342:	f7ff ffd5 	bl	100022f0 <busy_wait_until>
10002346:	bd70      	pop	{r4, r5, r6, pc}
10002348:	4b02      	ldr	r3, [pc, #8]	; (10002354 <busy_wait_us+0x3c>)
1000234a:	4a03      	ldr	r2, [pc, #12]	; (10002358 <busy_wait_us+0x40>)
1000234c:	213f      	movs	r1, #63	; 0x3f
1000234e:	4803      	ldr	r0, [pc, #12]	; (1000235c <busy_wait_us+0x44>)
10002350:	f000 fdac 	bl	10002eac <__assert_func>
10002354:	10013c1c 	.word	0x10013c1c
10002358:	1001413c 	.word	0x1001413c
1000235c:	10013c38 	.word	0x10013c38

10002360 <hardware_alarm_set_callback>:
10002360:	b570      	push	{r4, r5, r6, lr}
10002362:	0004      	movs	r4, r0
10002364:	000d      	movs	r5, r1
10002366:	f3ef 8610 	mrs	r6, PRIMASK
1000236a:	b672      	cpsid	i
1000236c:	4b1b      	ldr	r3, [pc, #108]	; (100023dc <hardware_alarm_set_callback+0x7c>)
1000236e:	681b      	ldr	r3, [r3, #0]
10002370:	2b00      	cmp	r3, #0
10002372:	d0fb      	beq.n	1000236c <hardware_alarm_set_callback+0xc>
10002374:	f3bf 8f5f 	dmb	sy
10002378:	2d00      	cmp	r5, #0
1000237a:	d01c      	beq.n	100023b6 <hardware_alarm_set_callback+0x56>
1000237c:	0020      	movs	r0, r4
1000237e:	f7fe ffe9 	bl	10001354 <irq_get_vtable_handler>
10002382:	4b17      	ldr	r3, [pc, #92]	; (100023e0 <hardware_alarm_set_callback+0x80>)
10002384:	4283      	cmp	r3, r0
10002386:	d00b      	beq.n	100023a0 <hardware_alarm_set_callback+0x40>
10002388:	0019      	movs	r1, r3
1000238a:	0020      	movs	r0, r4
1000238c:	f7fe ffea 	bl	10001364 <irq_set_exclusive_handler>
10002390:	2101      	movs	r1, #1
10002392:	0020      	movs	r0, r4
10002394:	f7fe ffd6 	bl	10001344 <irq_set_enabled>
10002398:	2301      	movs	r3, #1
1000239a:	40a3      	lsls	r3, r4
1000239c:	4a11      	ldr	r2, [pc, #68]	; (100023e4 <hardware_alarm_set_callback+0x84>)
1000239e:	6013      	str	r3, [r2, #0]
100023a0:	00a4      	lsls	r4, r4, #2
100023a2:	4b11      	ldr	r3, [pc, #68]	; (100023e8 <hardware_alarm_set_callback+0x88>)
100023a4:	50e5      	str	r5, [r4, r3]
100023a6:	f3bf 8f5f 	dmb	sy
100023aa:	4b0c      	ldr	r3, [pc, #48]	; (100023dc <hardware_alarm_set_callback+0x7c>)
100023ac:	2200      	movs	r2, #0
100023ae:	601a      	str	r2, [r3, #0]
100023b0:	f386 8810 	msr	PRIMASK, r6
100023b4:	bd70      	pop	{r4, r5, r6, pc}
100023b6:	00a2      	lsls	r2, r4, #2
100023b8:	4b0b      	ldr	r3, [pc, #44]	; (100023e8 <hardware_alarm_set_callback+0x88>)
100023ba:	2100      	movs	r1, #0
100023bc:	50d1      	str	r1, [r2, r3]
100023be:	2201      	movs	r2, #1
100023c0:	40a2      	lsls	r2, r4
100023c2:	490a      	ldr	r1, [pc, #40]	; (100023ec <hardware_alarm_set_callback+0x8c>)
100023c4:	780b      	ldrb	r3, [r1, #0]
100023c6:	4393      	bics	r3, r2
100023c8:	700b      	strb	r3, [r1, #0]
100023ca:	4905      	ldr	r1, [pc, #20]	; (100023e0 <hardware_alarm_set_callback+0x80>)
100023cc:	0020      	movs	r0, r4
100023ce:	f7fe fff3 	bl	100013b8 <irq_remove_handler>
100023d2:	2100      	movs	r1, #0
100023d4:	0020      	movs	r0, r4
100023d6:	f7fe ffb5 	bl	10001344 <irq_set_enabled>
100023da:	e7e4      	b.n	100023a6 <hardware_alarm_set_callback+0x46>
100023dc:	d0000128 	.word	0xd0000128
100023e0:	10002231 	.word	0x10002231
100023e4:	40056038 	.word	0x40056038
100023e8:	20001ebc 	.word	0x20001ebc
100023ec:	20022670 	.word	0x20022670

100023f0 <hardware_alarm_set_target>:
100023f0:	b5f0      	push	{r4, r5, r6, r7, lr}
100023f2:	46de      	mov	lr, fp
100023f4:	b500      	push	{lr}
100023f6:	b084      	sub	sp, #16
100023f8:	0004      	movs	r4, r0
100023fa:	0015      	movs	r5, r2
100023fc:	9201      	str	r2, [sp, #4]
100023fe:	001e      	movs	r6, r3
10002400:	9302      	str	r3, [sp, #8]
10002402:	f7ff ff69 	bl	100022d8 <time_us_64>
10002406:	9503      	str	r5, [sp, #12]
10002408:	428e      	cmp	r6, r1
1000240a:	d802      	bhi.n	10002412 <hardware_alarm_set_target+0x22>
1000240c:	d14e      	bne.n	100024ac <hardware_alarm_set_target+0xbc>
1000240e:	4285      	cmp	r5, r0
10002410:	d94c      	bls.n	100024ac <hardware_alarm_set_target+0xbc>
10002412:	f3ef 8b10 	mrs	fp, PRIMASK
10002416:	b672      	cpsid	i
10002418:	4b27      	ldr	r3, [pc, #156]	; (100024b8 <hardware_alarm_set_target+0xc8>)
1000241a:	681b      	ldr	r3, [r3, #0]
1000241c:	2b00      	cmp	r3, #0
1000241e:	d0fb      	beq.n	10002418 <hardware_alarm_set_target+0x28>
10002420:	f3bf 8f5f 	dmb	sy
10002424:	4a25      	ldr	r2, [pc, #148]	; (100024bc <hardware_alarm_set_target+0xcc>)
10002426:	7817      	ldrb	r7, [r2, #0]
10002428:	2501      	movs	r5, #1
1000242a:	40a5      	lsls	r5, r4
1000242c:	b2eb      	uxtb	r3, r5
1000242e:	433b      	orrs	r3, r7
10002430:	7013      	strb	r3, [r2, #0]
10002432:	4b23      	ldr	r3, [pc, #140]	; (100024c0 <hardware_alarm_set_target+0xd0>)
10002434:	635d      	str	r5, [r3, #52]	; 0x34
10002436:	1d22      	adds	r2, r4, #4
10002438:	0092      	lsls	r2, r2, #2
1000243a:	9901      	ldr	r1, [sp, #4]
1000243c:	50d1      	str	r1, [r2, r3]
1000243e:	00a2      	lsls	r2, r4, #2
10002440:	4920      	ldr	r1, [pc, #128]	; (100024c4 <hardware_alarm_set_target+0xd4>)
10002442:	9802      	ldr	r0, [sp, #8]
10002444:	5050      	str	r0, [r2, r1]
10002446:	6a1b      	ldr	r3, [r3, #32]
10002448:	422b      	tst	r3, r5
1000244a:	d112      	bne.n	10002472 <hardware_alarm_set_target+0x82>
1000244c:	4b1c      	ldr	r3, [pc, #112]	; (100024c0 <hardware_alarm_set_target+0xd0>)
1000244e:	6c1b      	ldr	r3, [r3, #64]	; 0x40
10002450:	422b      	tst	r3, r5
10002452:	d008      	beq.n	10002466 <hardware_alarm_set_target+0x76>
10002454:	2000      	movs	r0, #0
10002456:	f3bf 8f5f 	dmb	sy
1000245a:	4b17      	ldr	r3, [pc, #92]	; (100024b8 <hardware_alarm_set_target+0xc8>)
1000245c:	2200      	movs	r2, #0
1000245e:	601a      	str	r2, [r3, #0]
10002460:	f38b 8810 	msr	PRIMASK, fp
10002464:	e023      	b.n	100024ae <hardware_alarm_set_target+0xbe>
10002466:	4b18      	ldr	r3, [pc, #96]	; (100024c8 <hardware_alarm_set_target+0xd8>)
10002468:	4a18      	ldr	r2, [pc, #96]	; (100024cc <hardware_alarm_set_target+0xdc>)
1000246a:	21c5      	movs	r1, #197	; 0xc5
1000246c:	4818      	ldr	r0, [pc, #96]	; (100024d0 <hardware_alarm_set_target+0xe0>)
1000246e:	f000 fd1d 	bl	10002eac <__assert_func>
10002472:	f7ff ff31 	bl	100022d8 <time_us_64>
10002476:	428e      	cmp	r6, r1
10002478:	d814      	bhi.n	100024a4 <hardware_alarm_set_target+0xb4>
1000247a:	d102      	bne.n	10002482 <hardware_alarm_set_target+0x92>
1000247c:	9b03      	ldr	r3, [sp, #12]
1000247e:	4283      	cmp	r3, r0
10002480:	d810      	bhi.n	100024a4 <hardware_alarm_set_target+0xb4>
10002482:	4b0e      	ldr	r3, [pc, #56]	; (100024bc <hardware_alarm_set_target+0xcc>)
10002484:	781b      	ldrb	r3, [r3, #0]
10002486:	42bb      	cmp	r3, r7
10002488:	d00e      	beq.n	100024a8 <hardware_alarm_set_target+0xb8>
1000248a:	4b0d      	ldr	r3, [pc, #52]	; (100024c0 <hardware_alarm_set_target+0xd0>)
1000248c:	621d      	str	r5, [r3, #32]
1000248e:	635d      	str	r5, [r3, #52]	; 0x34
10002490:	201f      	movs	r0, #31
10002492:	4004      	ands	r4, r0
10002494:	2301      	movs	r3, #1
10002496:	40a3      	lsls	r3, r4
10002498:	4a0e      	ldr	r2, [pc, #56]	; (100024d4 <hardware_alarm_set_target+0xe4>)
1000249a:	6013      	str	r3, [r2, #0]
1000249c:	4b07      	ldr	r3, [pc, #28]	; (100024bc <hardware_alarm_set_target+0xcc>)
1000249e:	701f      	strb	r7, [r3, #0]
100024a0:	381e      	subs	r0, #30
100024a2:	e7d8      	b.n	10002456 <hardware_alarm_set_target+0x66>
100024a4:	2000      	movs	r0, #0
100024a6:	e7d6      	b.n	10002456 <hardware_alarm_set_target+0x66>
100024a8:	2001      	movs	r0, #1
100024aa:	e7d4      	b.n	10002456 <hardware_alarm_set_target+0x66>
100024ac:	2001      	movs	r0, #1
100024ae:	b004      	add	sp, #16
100024b0:	bc80      	pop	{r7}
100024b2:	46bb      	mov	fp, r7
100024b4:	bdf0      	pop	{r4, r5, r6, r7, pc}
100024b6:	46c0      	nop			; (mov r8, r8)
100024b8:	d0000128 	.word	0xd0000128
100024bc:	20022670 	.word	0x20022670
100024c0:	40054000 	.word	0x40054000
100024c4:	20002514 	.word	0x20002514
100024c8:	1001409c 	.word	0x1001409c
100024cc:	10014120 	.word	0x10014120
100024d0:	100140c0 	.word	0x100140c0
100024d4:	e000e280 	.word	0xe000e280

100024d8 <hardware_alarm_cancel>:
100024d8:	f3ef 8c10 	mrs	ip, PRIMASK
100024dc:	b672      	cpsid	i
100024de:	4b0b      	ldr	r3, [pc, #44]	; (1000250c <hardware_alarm_cancel+0x34>)
100024e0:	681b      	ldr	r3, [r3, #0]
100024e2:	2b00      	cmp	r3, #0
100024e4:	d0fb      	beq.n	100024de <hardware_alarm_cancel+0x6>
100024e6:	f3bf 8f5f 	dmb	sy
100024ea:	2301      	movs	r3, #1
100024ec:	4083      	lsls	r3, r0
100024ee:	4a08      	ldr	r2, [pc, #32]	; (10002510 <hardware_alarm_cancel+0x38>)
100024f0:	6213      	str	r3, [r2, #32]
100024f2:	4908      	ldr	r1, [pc, #32]	; (10002514 <hardware_alarm_cancel+0x3c>)
100024f4:	780a      	ldrb	r2, [r1, #0]
100024f6:	439a      	bics	r2, r3
100024f8:	700a      	strb	r2, [r1, #0]
100024fa:	f3bf 8f5f 	dmb	sy
100024fe:	4b03      	ldr	r3, [pc, #12]	; (1000250c <hardware_alarm_cancel+0x34>)
10002500:	2200      	movs	r2, #0
10002502:	601a      	str	r2, [r3, #0]
10002504:	f38c 8810 	msr	PRIMASK, ip
10002508:	4770      	bx	lr
1000250a:	46c0      	nop			; (mov r8, r8)
1000250c:	d0000128 	.word	0xd0000128
10002510:	40054000 	.word	0x40054000
10002514:	20022670 	.word	0x20022670

10002518 <ph_add_child_node>:
10002518:	b510      	push	{r4, lr}
1000251a:	2900      	cmp	r1, #0
1000251c:	d01e      	beq.n	1000255c <ph_add_child_node+0x44>
1000251e:	7b03      	ldrb	r3, [r0, #12]
10002520:	4299      	cmp	r1, r3
10002522:	d81b      	bhi.n	1000255c <ph_add_child_node+0x44>
10002524:	004b      	lsls	r3, r1, #1
10002526:	185b      	adds	r3, r3, r1
10002528:	3b03      	subs	r3, #3
1000252a:	6804      	ldr	r4, [r0, #0]
1000252c:	46a4      	mov	ip, r4
1000252e:	4463      	add	r3, ip
10002530:	2900      	cmp	r1, #0
10002532:	d019      	beq.n	10002568 <ph_add_child_node+0x50>
10002534:	2a00      	cmp	r2, #0
10002536:	d01d      	beq.n	10002574 <ph_add_child_node+0x5c>
10002538:	4291      	cmp	r1, r2
1000253a:	d021      	beq.n	10002580 <ph_add_child_node+0x68>
1000253c:	2a00      	cmp	r2, #0
1000253e:	d025      	beq.n	1000258c <ph_add_child_node+0x74>
10002540:	7b04      	ldrb	r4, [r0, #12]
10002542:	42a2      	cmp	r2, r4
10002544:	d822      	bhi.n	1000258c <ph_add_child_node+0x74>
10002546:	6804      	ldr	r4, [r0, #0]
10002548:	0050      	lsls	r0, r2, #1
1000254a:	1880      	adds	r0, r0, r2
1000254c:	3803      	subs	r0, #3
1000254e:	1820      	adds	r0, r4, r0
10002550:	7081      	strb	r1, [r0, #2]
10002552:	7819      	ldrb	r1, [r3, #0]
10002554:	2900      	cmp	r1, #0
10002556:	d11f      	bne.n	10002598 <ph_add_child_node+0x80>
10002558:	701a      	strb	r2, [r3, #0]
1000255a:	bd10      	pop	{r4, pc}
1000255c:	4b10      	ldr	r3, [pc, #64]	; (100025a0 <ph_add_child_node+0x88>)
1000255e:	4a11      	ldr	r2, [pc, #68]	; (100025a4 <ph_add_child_node+0x8c>)
10002560:	2168      	movs	r1, #104	; 0x68
10002562:	4811      	ldr	r0, [pc, #68]	; (100025a8 <ph_add_child_node+0x90>)
10002564:	f000 fca2 	bl	10002eac <__assert_func>
10002568:	4b10      	ldr	r3, [pc, #64]	; (100025ac <ph_add_child_node+0x94>)
1000256a:	4a11      	ldr	r2, [pc, #68]	; (100025b0 <ph_add_child_node+0x98>)
1000256c:	316f      	adds	r1, #111	; 0x6f
1000256e:	480e      	ldr	r0, [pc, #56]	; (100025a8 <ph_add_child_node+0x90>)
10002570:	f000 fc9c 	bl	10002eac <__assert_func>
10002574:	4b0f      	ldr	r3, [pc, #60]	; (100025b4 <ph_add_child_node+0x9c>)
10002576:	4a0e      	ldr	r2, [pc, #56]	; (100025b0 <ph_add_child_node+0x98>)
10002578:	2170      	movs	r1, #112	; 0x70
1000257a:	480b      	ldr	r0, [pc, #44]	; (100025a8 <ph_add_child_node+0x90>)
1000257c:	f000 fc96 	bl	10002eac <__assert_func>
10002580:	4b0d      	ldr	r3, [pc, #52]	; (100025b8 <ph_add_child_node+0xa0>)
10002582:	4a0b      	ldr	r2, [pc, #44]	; (100025b0 <ph_add_child_node+0x98>)
10002584:	2171      	movs	r1, #113	; 0x71
10002586:	4808      	ldr	r0, [pc, #32]	; (100025a8 <ph_add_child_node+0x90>)
10002588:	f000 fc90 	bl	10002eac <__assert_func>
1000258c:	4b04      	ldr	r3, [pc, #16]	; (100025a0 <ph_add_child_node+0x88>)
1000258e:	4a05      	ldr	r2, [pc, #20]	; (100025a4 <ph_add_child_node+0x8c>)
10002590:	2168      	movs	r1, #104	; 0x68
10002592:	4805      	ldr	r0, [pc, #20]	; (100025a8 <ph_add_child_node+0x90>)
10002594:	f000 fc8a 	bl	10002eac <__assert_func>
10002598:	7041      	strb	r1, [r0, #1]
1000259a:	701a      	strb	r2, [r3, #0]
1000259c:	e7dd      	b.n	1000255a <ph_add_child_node+0x42>
1000259e:	46c0      	nop			; (mov r8, r8)
100025a0:	10013d84 	.word	0x10013d84
100025a4:	1001425c 	.word	0x1001425c
100025a8:	10013da0 	.word	0x10013da0
100025ac:	10013e08 	.word	0x10013e08
100025b0:	10014248 	.word	0x10014248
100025b4:	10013e14 	.word	0x10013e14
100025b8:	10013e20 	.word	0x10013e20

100025bc <ph_merge_nodes>:
100025bc:	b570      	push	{r4, r5, r6, lr}
100025be:	0006      	movs	r6, r0
100025c0:	000d      	movs	r5, r1
100025c2:	0014      	movs	r4, r2
100025c4:	2900      	cmp	r1, #0
100025c6:	d014      	beq.n	100025f2 <ph_merge_nodes+0x36>
100025c8:	2a00      	cmp	r2, #0
100025ca:	d014      	beq.n	100025f6 <ph_merge_nodes+0x3a>
100025cc:	6880      	ldr	r0, [r0, #8]
100025ce:	6873      	ldr	r3, [r6, #4]
100025d0:	4798      	blx	r3
100025d2:	2800      	cmp	r0, #0
100025d4:	d006      	beq.n	100025e4 <ph_merge_nodes+0x28>
100025d6:	0022      	movs	r2, r4
100025d8:	0029      	movs	r1, r5
100025da:	0030      	movs	r0, r6
100025dc:	f7ff ff9c 	bl	10002518 <ph_add_child_node>
100025e0:	0028      	movs	r0, r5
100025e2:	e007      	b.n	100025f4 <ph_merge_nodes+0x38>
100025e4:	002a      	movs	r2, r5
100025e6:	0021      	movs	r1, r4
100025e8:	0030      	movs	r0, r6
100025ea:	f7ff ff95 	bl	10002518 <ph_add_child_node>
100025ee:	0020      	movs	r0, r4
100025f0:	e000      	b.n	100025f4 <ph_merge_nodes+0x38>
100025f2:	0010      	movs	r0, r2
100025f4:	bd70      	pop	{r4, r5, r6, pc}
100025f6:	0008      	movs	r0, r1
100025f8:	e7fc      	b.n	100025f4 <ph_merge_nodes+0x38>
	...

100025fc <ph_clear>:
100025fc:	b510      	push	{r4, lr}
100025fe:	2300      	movs	r3, #0
10002600:	7343      	strb	r3, [r0, #13]
10002602:	3301      	adds	r3, #1
10002604:	7383      	strb	r3, [r0, #14]
10002606:	7b03      	ldrb	r3, [r0, #12]
10002608:	73c3      	strb	r3, [r0, #15]
1000260a:	2301      	movs	r3, #1
1000260c:	7b02      	ldrb	r2, [r0, #12]
1000260e:	429a      	cmp	r2, r3
10002610:	d914      	bls.n	1000263c <ph_clear+0x40>
10002612:	2b00      	cmp	r3, #0
10002614:	d00c      	beq.n	10002630 <ph_clear+0x34>
10002616:	7b02      	ldrb	r2, [r0, #12]
10002618:	4293      	cmp	r3, r2
1000261a:	d809      	bhi.n	10002630 <ph_clear+0x34>
1000261c:	005a      	lsls	r2, r3, #1
1000261e:	18d2      	adds	r2, r2, r3
10002620:	3a03      	subs	r2, #3
10002622:	6801      	ldr	r1, [r0, #0]
10002624:	468c      	mov	ip, r1
10002626:	4462      	add	r2, ip
10002628:	3301      	adds	r3, #1
1000262a:	b2db      	uxtb	r3, r3
1000262c:	7053      	strb	r3, [r2, #1]
1000262e:	e7ed      	b.n	1000260c <ph_clear+0x10>
10002630:	4b0b      	ldr	r3, [pc, #44]	; (10002660 <ph_clear+0x64>)
10002632:	4a0c      	ldr	r2, [pc, #48]	; (10002664 <ph_clear+0x68>)
10002634:	2168      	movs	r1, #104	; 0x68
10002636:	480c      	ldr	r0, [pc, #48]	; (10002668 <ph_clear+0x6c>)
10002638:	f000 fc38 	bl	10002eac <__assert_func>
1000263c:	2a00      	cmp	r2, #0
1000263e:	d009      	beq.n	10002654 <ph_clear+0x58>
10002640:	4292      	cmp	r2, r2
10002642:	d807      	bhi.n	10002654 <ph_clear+0x58>
10002644:	6801      	ldr	r1, [r0, #0]
10002646:	0053      	lsls	r3, r2, #1
10002648:	189a      	adds	r2, r3, r2
1000264a:	3a03      	subs	r2, #3
1000264c:	188a      	adds	r2, r1, r2
1000264e:	2300      	movs	r3, #0
10002650:	7053      	strb	r3, [r2, #1]
10002652:	bd10      	pop	{r4, pc}
10002654:	4b02      	ldr	r3, [pc, #8]	; (10002660 <ph_clear+0x64>)
10002656:	4a03      	ldr	r2, [pc, #12]	; (10002664 <ph_clear+0x68>)
10002658:	2168      	movs	r1, #104	; 0x68
1000265a:	4803      	ldr	r0, [pc, #12]	; (10002668 <ph_clear+0x6c>)
1000265c:	f000 fc26 	bl	10002eac <__assert_func>
10002660:	10013d84 	.word	0x10013d84
10002664:	1001425c 	.word	0x1001425c
10002668:	10013da0 	.word	0x10013da0

1000266c <ph_post_alloc_init>:
1000266c:	b510      	push	{r4, lr}
1000266e:	7301      	strb	r1, [r0, #12]
10002670:	6042      	str	r2, [r0, #4]
10002672:	6083      	str	r3, [r0, #8]
10002674:	f7ff ffc2 	bl	100025fc <ph_clear>
10002678:	bd10      	pop	{r4, pc}
	...

1000267c <ph_merge_two_pass>:
1000267c:	b570      	push	{r4, r5, r6, lr}
1000267e:	0004      	movs	r4, r0
10002680:	1e08      	subs	r0, r1, #0
10002682:	d100      	bne.n	10002686 <ph_merge_two_pass+0xa>
10002684:	bd70      	pop	{r4, r5, r6, pc}
10002686:	2900      	cmp	r1, #0
10002688:	d034      	beq.n	100026f4 <ph_merge_two_pass+0x78>
1000268a:	7b23      	ldrb	r3, [r4, #12]
1000268c:	4299      	cmp	r1, r3
1000268e:	d831      	bhi.n	100026f4 <ph_merge_two_pass+0x78>
10002690:	004b      	lsls	r3, r1, #1
10002692:	185b      	adds	r3, r3, r1
10002694:	3b03      	subs	r3, #3
10002696:	6822      	ldr	r2, [r4, #0]
10002698:	4694      	mov	ip, r2
1000269a:	4463      	add	r3, ip
1000269c:	785a      	ldrb	r2, [r3, #1]
1000269e:	2a00      	cmp	r2, #0
100026a0:	d0f0      	beq.n	10002684 <ph_merge_two_pass+0x8>
100026a2:	d02d      	beq.n	10002700 <ph_merge_two_pass+0x84>
100026a4:	7b23      	ldrb	r3, [r4, #12]
100026a6:	429a      	cmp	r2, r3
100026a8:	d82a      	bhi.n	10002700 <ph_merge_two_pass+0x84>
100026aa:	0053      	lsls	r3, r2, #1
100026ac:	189b      	adds	r3, r3, r2
100026ae:	3b03      	subs	r3, #3
100026b0:	6821      	ldr	r1, [r4, #0]
100026b2:	468c      	mov	ip, r1
100026b4:	4463      	add	r3, ip
100026b6:	785d      	ldrb	r5, [r3, #1]
100026b8:	2100      	movs	r1, #0
100026ba:	7059      	strb	r1, [r3, #1]
100026bc:	2800      	cmp	r0, #0
100026be:	d025      	beq.n	1000270c <ph_merge_two_pass+0x90>
100026c0:	7b23      	ldrb	r3, [r4, #12]
100026c2:	4298      	cmp	r0, r3
100026c4:	d822      	bhi.n	1000270c <ph_merge_two_pass+0x90>
100026c6:	0043      	lsls	r3, r0, #1
100026c8:	181b      	adds	r3, r3, r0
100026ca:	3b03      	subs	r3, #3
100026cc:	6821      	ldr	r1, [r4, #0]
100026ce:	468c      	mov	ip, r1
100026d0:	4463      	add	r3, ip
100026d2:	2100      	movs	r1, #0
100026d4:	7059      	strb	r1, [r3, #1]
100026d6:	0001      	movs	r1, r0
100026d8:	0020      	movs	r0, r4
100026da:	f7ff ff6f 	bl	100025bc <ph_merge_nodes>
100026de:	0006      	movs	r6, r0
100026e0:	0029      	movs	r1, r5
100026e2:	0020      	movs	r0, r4
100026e4:	f7ff ffca 	bl	1000267c <ph_merge_two_pass>
100026e8:	0002      	movs	r2, r0
100026ea:	0031      	movs	r1, r6
100026ec:	0020      	movs	r0, r4
100026ee:	f7ff ff65 	bl	100025bc <ph_merge_nodes>
100026f2:	e7c7      	b.n	10002684 <ph_merge_two_pass+0x8>
100026f4:	4b08      	ldr	r3, [pc, #32]	; (10002718 <ph_merge_two_pass+0x9c>)
100026f6:	4a09      	ldr	r2, [pc, #36]	; (1000271c <ph_merge_two_pass+0xa0>)
100026f8:	2168      	movs	r1, #104	; 0x68
100026fa:	4809      	ldr	r0, [pc, #36]	; (10002720 <ph_merge_two_pass+0xa4>)
100026fc:	f000 fbd6 	bl	10002eac <__assert_func>
10002700:	4b05      	ldr	r3, [pc, #20]	; (10002718 <ph_merge_two_pass+0x9c>)
10002702:	4a06      	ldr	r2, [pc, #24]	; (1000271c <ph_merge_two_pass+0xa0>)
10002704:	2168      	movs	r1, #104	; 0x68
10002706:	4806      	ldr	r0, [pc, #24]	; (10002720 <ph_merge_two_pass+0xa4>)
10002708:	f000 fbd0 	bl	10002eac <__assert_func>
1000270c:	4b02      	ldr	r3, [pc, #8]	; (10002718 <ph_merge_two_pass+0x9c>)
1000270e:	4a03      	ldr	r2, [pc, #12]	; (1000271c <ph_merge_two_pass+0xa0>)
10002710:	2168      	movs	r1, #104	; 0x68
10002712:	4803      	ldr	r0, [pc, #12]	; (10002720 <ph_merge_two_pass+0xa4>)
10002714:	f000 fbca 	bl	10002eac <__assert_func>
10002718:	10013d84 	.word	0x10013d84
1000271c:	1001425c 	.word	0x1001425c
10002720:	10013da0 	.word	0x10013da0

10002724 <ph_remove_any_head>:
10002724:	b570      	push	{r4, r5, r6, lr}
10002726:	0005      	movs	r5, r0
10002728:	000c      	movs	r4, r1
1000272a:	0016      	movs	r6, r2
1000272c:	2900      	cmp	r1, #0
1000272e:	d02f      	beq.n	10002790 <ph_remove_any_head+0x6c>
10002730:	d034      	beq.n	1000279c <ph_remove_any_head+0x78>
10002732:	7b03      	ldrb	r3, [r0, #12]
10002734:	4299      	cmp	r1, r3
10002736:	d831      	bhi.n	1000279c <ph_remove_any_head+0x78>
10002738:	004b      	lsls	r3, r1, #1
1000273a:	185b      	adds	r3, r3, r1
1000273c:	3b03      	subs	r3, #3
1000273e:	6802      	ldr	r2, [r0, #0]
10002740:	4694      	mov	ip, r2
10002742:	4463      	add	r3, ip
10002744:	785a      	ldrb	r2, [r3, #1]
10002746:	2a00      	cmp	r2, #0
10002748:	d12e      	bne.n	100027a8 <ph_remove_any_head+0x84>
1000274a:	789a      	ldrb	r2, [r3, #2]
1000274c:	2a00      	cmp	r2, #0
1000274e:	d131      	bne.n	100027b4 <ph_remove_any_head+0x90>
10002750:	7819      	ldrb	r1, [r3, #0]
10002752:	f7ff ff93 	bl	1000267c <ph_merge_two_pass>
10002756:	0003      	movs	r3, r0
10002758:	2e00      	cmp	r6, #0
1000275a:	d00a      	beq.n	10002772 <ph_remove_any_head+0x4e>
1000275c:	7bea      	ldrb	r2, [r5, #15]
1000275e:	2a00      	cmp	r2, #0
10002760:	d12e      	bne.n	100027c0 <ph_remove_any_head+0x9c>
10002762:	7baa      	ldrb	r2, [r5, #14]
10002764:	2a00      	cmp	r2, #0
10002766:	d103      	bne.n	10002770 <ph_remove_any_head+0x4c>
10002768:	7bea      	ldrb	r2, [r5, #15]
1000276a:	2a00      	cmp	r2, #0
1000276c:	d13b      	bne.n	100027e6 <ph_remove_any_head+0xc2>
1000276e:	73ac      	strb	r4, [r5, #14]
10002770:	73ec      	strb	r4, [r5, #15]
10002772:	2b00      	cmp	r3, #0
10002774:	d13d      	bne.n	100027f2 <ph_remove_any_head+0xce>
10002776:	2c00      	cmp	r4, #0
10002778:	d04f      	beq.n	1000281a <ph_remove_any_head+0xf6>
1000277a:	7b2b      	ldrb	r3, [r5, #12]
1000277c:	429c      	cmp	r4, r3
1000277e:	d84c      	bhi.n	1000281a <ph_remove_any_head+0xf6>
10002780:	682b      	ldr	r3, [r5, #0]
10002782:	0061      	lsls	r1, r4, #1
10002784:	190c      	adds	r4, r1, r4
10002786:	3c03      	subs	r4, #3
10002788:	191c      	adds	r4, r3, r4
1000278a:	2300      	movs	r3, #0
1000278c:	7063      	strb	r3, [r4, #1]
1000278e:	bd70      	pop	{r4, r5, r6, pc}
10002790:	4b25      	ldr	r3, [pc, #148]	; (10002828 <ph_remove_any_head+0x104>)
10002792:	4a26      	ldr	r2, [pc, #152]	; (1000282c <ph_remove_any_head+0x108>)
10002794:	2138      	movs	r1, #56	; 0x38
10002796:	4826      	ldr	r0, [pc, #152]	; (10002830 <ph_remove_any_head+0x10c>)
10002798:	f000 fb88 	bl	10002eac <__assert_func>
1000279c:	4b25      	ldr	r3, [pc, #148]	; (10002834 <ph_remove_any_head+0x110>)
1000279e:	4a26      	ldr	r2, [pc, #152]	; (10002838 <ph_remove_any_head+0x114>)
100027a0:	2168      	movs	r1, #104	; 0x68
100027a2:	4826      	ldr	r0, [pc, #152]	; (1000283c <ph_remove_any_head+0x118>)
100027a4:	f000 fb82 	bl	10002eac <__assert_func>
100027a8:	4b25      	ldr	r3, [pc, #148]	; (10002840 <ph_remove_any_head+0x11c>)
100027aa:	4a20      	ldr	r2, [pc, #128]	; (1000282c <ph_remove_any_head+0x108>)
100027ac:	213a      	movs	r1, #58	; 0x3a
100027ae:	4820      	ldr	r0, [pc, #128]	; (10002830 <ph_remove_any_head+0x10c>)
100027b0:	f000 fb7c 	bl	10002eac <__assert_func>
100027b4:	4b23      	ldr	r3, [pc, #140]	; (10002844 <ph_remove_any_head+0x120>)
100027b6:	4a1d      	ldr	r2, [pc, #116]	; (1000282c <ph_remove_any_head+0x108>)
100027b8:	213b      	movs	r1, #59	; 0x3b
100027ba:	481d      	ldr	r0, [pc, #116]	; (10002830 <ph_remove_any_head+0x10c>)
100027bc:	f000 fb76 	bl	10002eac <__assert_func>
100027c0:	2a00      	cmp	r2, #0
100027c2:	d00a      	beq.n	100027da <ph_remove_any_head+0xb6>
100027c4:	7b29      	ldrb	r1, [r5, #12]
100027c6:	428a      	cmp	r2, r1
100027c8:	d807      	bhi.n	100027da <ph_remove_any_head+0xb6>
100027ca:	0051      	lsls	r1, r2, #1
100027cc:	188a      	adds	r2, r1, r2
100027ce:	3a03      	subs	r2, #3
100027d0:	6829      	ldr	r1, [r5, #0]
100027d2:	468c      	mov	ip, r1
100027d4:	4462      	add	r2, ip
100027d6:	7054      	strb	r4, [r2, #1]
100027d8:	e7c3      	b.n	10002762 <ph_remove_any_head+0x3e>
100027da:	4b16      	ldr	r3, [pc, #88]	; (10002834 <ph_remove_any_head+0x110>)
100027dc:	4a16      	ldr	r2, [pc, #88]	; (10002838 <ph_remove_any_head+0x114>)
100027de:	2168      	movs	r1, #104	; 0x68
100027e0:	4816      	ldr	r0, [pc, #88]	; (1000283c <ph_remove_any_head+0x118>)
100027e2:	f000 fb63 	bl	10002eac <__assert_func>
100027e6:	4b18      	ldr	r3, [pc, #96]	; (10002848 <ph_remove_any_head+0x124>)
100027e8:	4a10      	ldr	r2, [pc, #64]	; (1000282c <ph_remove_any_head+0x108>)
100027ea:	2142      	movs	r1, #66	; 0x42
100027ec:	4810      	ldr	r0, [pc, #64]	; (10002830 <ph_remove_any_head+0x10c>)
100027ee:	f000 fb5d 	bl	10002eac <__assert_func>
100027f2:	2b00      	cmp	r3, #0
100027f4:	d00b      	beq.n	1000280e <ph_remove_any_head+0xea>
100027f6:	7b2a      	ldrb	r2, [r5, #12]
100027f8:	4293      	cmp	r3, r2
100027fa:	d808      	bhi.n	1000280e <ph_remove_any_head+0xea>
100027fc:	0043      	lsls	r3, r0, #1
100027fe:	181b      	adds	r3, r3, r0
10002800:	3b03      	subs	r3, #3
10002802:	682a      	ldr	r2, [r5, #0]
10002804:	4694      	mov	ip, r2
10002806:	4463      	add	r3, ip
10002808:	2200      	movs	r2, #0
1000280a:	709a      	strb	r2, [r3, #2]
1000280c:	e7b3      	b.n	10002776 <ph_remove_any_head+0x52>
1000280e:	4b09      	ldr	r3, [pc, #36]	; (10002834 <ph_remove_any_head+0x110>)
10002810:	4a09      	ldr	r2, [pc, #36]	; (10002838 <ph_remove_any_head+0x114>)
10002812:	2168      	movs	r1, #104	; 0x68
10002814:	4809      	ldr	r0, [pc, #36]	; (1000283c <ph_remove_any_head+0x118>)
10002816:	f000 fb49 	bl	10002eac <__assert_func>
1000281a:	4b06      	ldr	r3, [pc, #24]	; (10002834 <ph_remove_any_head+0x110>)
1000281c:	4a06      	ldr	r2, [pc, #24]	; (10002838 <ph_remove_any_head+0x114>)
1000281e:	2168      	movs	r1, #104	; 0x68
10002820:	4806      	ldr	r0, [pc, #24]	; (1000283c <ph_remove_any_head+0x118>)
10002822:	f000 fb43 	bl	10002eac <__assert_func>
10002826:	46c0      	nop			; (mov r8, r8)
10002828:	10014154 	.word	0x10014154
1000282c:	10014234 	.word	0x10014234
10002830:	1001415c 	.word	0x1001415c
10002834:	10013d84 	.word	0x10013d84
10002838:	1001425c 	.word	0x1001425c
1000283c:	10013da0 	.word	0x10013da0
10002840:	100141b0 	.word	0x100141b0
10002844:	100141d8 	.word	0x100141d8
10002848:	10013ee4 	.word	0x10013ee4

1000284c <ph_remove_head>:
1000284c:	b570      	push	{r4, r5, r6, lr}
1000284e:	0004      	movs	r4, r0
10002850:	000a      	movs	r2, r1
10002852:	7b45      	ldrb	r5, [r0, #13]
10002854:	0029      	movs	r1, r5
10002856:	f7ff ff65 	bl	10002724 <ph_remove_any_head>
1000285a:	7360      	strb	r0, [r4, #13]
1000285c:	0028      	movs	r0, r5
1000285e:	bd70      	pop	{r4, r5, r6, pc}

10002860 <ph_remove_and_free_node>:
10002860:	b570      	push	{r4, r5, r6, lr}
10002862:	0004      	movs	r4, r0
10002864:	2900      	cmp	r1, #0
10002866:	d067      	beq.n	10002938 <ph_remove_and_free_node+0xd8>
10002868:	7b43      	ldrb	r3, [r0, #13]
1000286a:	428b      	cmp	r3, r1
1000286c:	d00e      	beq.n	1000288c <ph_remove_and_free_node+0x2c>
1000286e:	2900      	cmp	r1, #0
10002870:	d011      	beq.n	10002896 <ph_remove_and_free_node+0x36>
10002872:	7b03      	ldrb	r3, [r0, #12]
10002874:	4299      	cmp	r1, r3
10002876:	d80e      	bhi.n	10002896 <ph_remove_and_free_node+0x36>
10002878:	004b      	lsls	r3, r1, #1
1000287a:	185b      	adds	r3, r3, r1
1000287c:	3b03      	subs	r3, #3
1000287e:	6802      	ldr	r2, [r0, #0]
10002880:	18d0      	adds	r0, r2, r3
10002882:	7883      	ldrb	r3, [r0, #2]
10002884:	2b00      	cmp	r3, #0
10002886:	d10c      	bne.n	100028a2 <ph_remove_and_free_node+0x42>
10002888:	2000      	movs	r0, #0
1000288a:	e056      	b.n	1000293a <ph_remove_and_free_node+0xda>
1000288c:	2101      	movs	r1, #1
1000288e:	f7ff ffdd 	bl	1000284c <ph_remove_head>
10002892:	2001      	movs	r0, #1
10002894:	e051      	b.n	1000293a <ph_remove_and_free_node+0xda>
10002896:	4b29      	ldr	r3, [pc, #164]	; (1000293c <ph_remove_and_free_node+0xdc>)
10002898:	4a29      	ldr	r2, [pc, #164]	; (10002940 <ph_remove_and_free_node+0xe0>)
1000289a:	2168      	movs	r1, #104	; 0x68
1000289c:	4829      	ldr	r0, [pc, #164]	; (10002944 <ph_remove_and_free_node+0xe4>)
1000289e:	f000 fb05 	bl	10002eac <__assert_func>
100028a2:	2b00      	cmp	r3, #0
100028a4:	d020      	beq.n	100028e8 <ph_remove_and_free_node+0x88>
100028a6:	7b22      	ldrb	r2, [r4, #12]
100028a8:	4293      	cmp	r3, r2
100028aa:	d81d      	bhi.n	100028e8 <ph_remove_and_free_node+0x88>
100028ac:	005a      	lsls	r2, r3, #1
100028ae:	18d3      	adds	r3, r2, r3
100028b0:	3b03      	subs	r3, #3
100028b2:	6822      	ldr	r2, [r4, #0]
100028b4:	18d2      	adds	r2, r2, r3
100028b6:	6825      	ldr	r5, [r4, #0]
100028b8:	5ceb      	ldrb	r3, [r5, r3]
100028ba:	428b      	cmp	r3, r1
100028bc:	d01a      	beq.n	100028f4 <ph_remove_and_free_node+0x94>
100028be:	2b00      	cmp	r3, #0
100028c0:	d01b      	beq.n	100028fa <ph_remove_and_free_node+0x9a>
100028c2:	7b22      	ldrb	r2, [r4, #12]
100028c4:	4293      	cmp	r3, r2
100028c6:	d818      	bhi.n	100028fa <ph_remove_and_free_node+0x9a>
100028c8:	005a      	lsls	r2, r3, #1
100028ca:	18d3      	adds	r3, r2, r3
100028cc:	3b03      	subs	r3, #3
100028ce:	6822      	ldr	r2, [r4, #0]
100028d0:	18d2      	adds	r2, r2, r3
100028d2:	7853      	ldrb	r3, [r2, #1]
100028d4:	428b      	cmp	r3, r1
100028d6:	d016      	beq.n	10002906 <ph_remove_and_free_node+0xa6>
100028d8:	2b00      	cmp	r3, #0
100028da:	d1f0      	bne.n	100028be <ph_remove_and_free_node+0x5e>
100028dc:	4b1a      	ldr	r3, [pc, #104]	; (10002948 <ph_remove_and_free_node+0xe8>)
100028de:	4a1b      	ldr	r2, [pc, #108]	; (1000294c <ph_remove_and_free_node+0xec>)
100028e0:	216b      	movs	r1, #107	; 0x6b
100028e2:	481b      	ldr	r0, [pc, #108]	; (10002950 <ph_remove_and_free_node+0xf0>)
100028e4:	f000 fae2 	bl	10002eac <__assert_func>
100028e8:	4b14      	ldr	r3, [pc, #80]	; (1000293c <ph_remove_and_free_node+0xdc>)
100028ea:	4a15      	ldr	r2, [pc, #84]	; (10002940 <ph_remove_and_free_node+0xe0>)
100028ec:	2168      	movs	r1, #104	; 0x68
100028ee:	4815      	ldr	r0, [pc, #84]	; (10002944 <ph_remove_and_free_node+0xe4>)
100028f0:	f000 fadc 	bl	10002eac <__assert_func>
100028f4:	7843      	ldrb	r3, [r0, #1]
100028f6:	7013      	strb	r3, [r2, #0]
100028f8:	e007      	b.n	1000290a <ph_remove_and_free_node+0xaa>
100028fa:	4b10      	ldr	r3, [pc, #64]	; (1000293c <ph_remove_and_free_node+0xdc>)
100028fc:	4a10      	ldr	r2, [pc, #64]	; (10002940 <ph_remove_and_free_node+0xe0>)
100028fe:	2168      	movs	r1, #104	; 0x68
10002900:	4810      	ldr	r0, [pc, #64]	; (10002944 <ph_remove_and_free_node+0xe4>)
10002902:	f000 fad3 	bl	10002eac <__assert_func>
10002906:	7843      	ldrb	r3, [r0, #1]
10002908:	7053      	strb	r3, [r2, #1]
1000290a:	2300      	movs	r3, #0
1000290c:	7083      	strb	r3, [r0, #2]
1000290e:	7043      	strb	r3, [r0, #1]
10002910:	2201      	movs	r2, #1
10002912:	0020      	movs	r0, r4
10002914:	f7ff ff06 	bl	10002724 <ph_remove_any_head>
10002918:	0002      	movs	r2, r0
1000291a:	7b61      	ldrb	r1, [r4, #13]
1000291c:	4281      	cmp	r1, r0
1000291e:	d005      	beq.n	1000292c <ph_remove_and_free_node+0xcc>
10002920:	0020      	movs	r0, r4
10002922:	f7ff fe4b 	bl	100025bc <ph_merge_nodes>
10002926:	7360      	strb	r0, [r4, #13]
10002928:	2001      	movs	r0, #1
1000292a:	e006      	b.n	1000293a <ph_remove_and_free_node+0xda>
1000292c:	4b09      	ldr	r3, [pc, #36]	; (10002954 <ph_remove_and_free_node+0xf4>)
1000292e:	4a07      	ldr	r2, [pc, #28]	; (1000294c <ph_remove_and_free_node+0xec>)
10002930:	2171      	movs	r1, #113	; 0x71
10002932:	4807      	ldr	r0, [pc, #28]	; (10002950 <ph_remove_and_free_node+0xf0>)
10002934:	f000 faba 	bl	10002eac <__assert_func>
10002938:	2000      	movs	r0, #0
1000293a:	bd70      	pop	{r4, r5, r6, pc}
1000293c:	10013d84 	.word	0x10013d84
10002940:	1001425c 	.word	0x1001425c
10002944:	10013da0 	.word	0x10013da0
10002948:	10013b24 	.word	0x10013b24
1000294c:	1001421c 	.word	0x1001421c
10002950:	1001415c 	.word	0x1001415c
10002954:	100141fc 	.word	0x100141fc

10002958 <uart_disable_before_lcr_write>:
10002958:	b570      	push	{r4, r5, r6, lr}
1000295a:	6b04      	ldr	r4, [r0, #48]	; 0x30
1000295c:	07e3      	lsls	r3, r4, #31
1000295e:	d401      	bmi.n	10002964 <uart_disable_before_lcr_write+0xc>
10002960:	0020      	movs	r0, r4
10002962:	bd70      	pop	{r4, r5, r6, pc}
10002964:	0002      	movs	r2, r0
10002966:	3230      	adds	r2, #48	; 0x30
10002968:	23c0      	movs	r3, #192	; 0xc0
1000296a:	019b      	lsls	r3, r3, #6
1000296c:	4313      	orrs	r3, r2
1000296e:	4a0a      	ldr	r2, [pc, #40]	; (10002998 <uart_disable_before_lcr_write+0x40>)
10002970:	601a      	str	r2, [r3, #0]
10002972:	6a45      	ldr	r5, [r0, #36]	; 0x24
10002974:	6a82      	ldr	r2, [r0, #40]	; 0x28
10002976:	01ad      	lsls	r5, r5, #6
10002978:	18ad      	adds	r5, r5, r2
1000297a:	02ad      	lsls	r5, r5, #10
1000297c:	2006      	movs	r0, #6
1000297e:	f000 f9bd 	bl	10002cfc <clock_get_hz>
10002982:	4906      	ldr	r1, [pc, #24]	; (1000299c <uart_disable_before_lcr_write+0x44>)
10002984:	f001 fc64 	bl	10004250 <__wrap___aeabi_uidiv>
10002988:	0001      	movs	r1, r0
1000298a:	0028      	movs	r0, r5
1000298c:	f001 fc60 	bl	10004250 <__wrap___aeabi_uidiv>
10002990:	2100      	movs	r1, #0
10002992:	f7ff fcc1 	bl	10002318 <busy_wait_us>
10002996:	e7e3      	b.n	10002960 <uart_disable_before_lcr_write+0x8>
10002998:	00000301 	.word	0x00000301
1000299c:	00000e4e 	.word	0x00000e4e

100029a0 <uart_write_lcr_bits_masked>:
100029a0:	b570      	push	{r4, r5, r6, lr}
100029a2:	0004      	movs	r4, r0
100029a4:	000e      	movs	r6, r1
100029a6:	0015      	movs	r5, r2
100029a8:	f7ff ffd6 	bl	10002958 <uart_disable_before_lcr_write>
100029ac:	0022      	movs	r2, r4
100029ae:	322c      	adds	r2, #44	; 0x2c
100029b0:	6ae1      	ldr	r1, [r4, #44]	; 0x2c
100029b2:	404e      	eors	r6, r1
100029b4:	4035      	ands	r5, r6
100029b6:	2380      	movs	r3, #128	; 0x80
100029b8:	015b      	lsls	r3, r3, #5
100029ba:	4313      	orrs	r3, r2
100029bc:	601d      	str	r5, [r3, #0]
100029be:	6320      	str	r0, [r4, #48]	; 0x30
100029c0:	bd70      	pop	{r4, r5, r6, pc}
	...

100029c4 <uart_set_baudrate>:
100029c4:	b570      	push	{r4, r5, r6, lr}
100029c6:	0005      	movs	r5, r0
100029c8:	000c      	movs	r4, r1
100029ca:	2006      	movs	r0, #6
100029cc:	f000 f996 	bl	10002cfc <clock_get_hz>
100029d0:	00c0      	lsls	r0, r0, #3
100029d2:	0021      	movs	r1, r4
100029d4:	f001 fc3c 	bl	10004250 <__wrap___aeabi_uidiv>
100029d8:	09c6      	lsrs	r6, r0, #7
100029da:	d008      	beq.n	100029ee <uart_set_baudrate+0x2a>
100029dc:	4b0e      	ldr	r3, [pc, #56]	; (10002a18 <uart_set_baudrate+0x54>)
100029de:	429e      	cmp	r6, r3
100029e0:	d816      	bhi.n	10002a10 <uart_set_baudrate+0x4c>
100029e2:	237f      	movs	r3, #127	; 0x7f
100029e4:	4018      	ands	r0, r3
100029e6:	3001      	adds	r0, #1
100029e8:	0034      	movs	r4, r6
100029ea:	0846      	lsrs	r6, r0, #1
100029ec:	e000      	b.n	100029f0 <uart_set_baudrate+0x2c>
100029ee:	2401      	movs	r4, #1
100029f0:	626c      	str	r4, [r5, #36]	; 0x24
100029f2:	62ae      	str	r6, [r5, #40]	; 0x28
100029f4:	2200      	movs	r2, #0
100029f6:	2100      	movs	r1, #0
100029f8:	0028      	movs	r0, r5
100029fa:	f7ff ffd1 	bl	100029a0 <uart_write_lcr_bits_masked>
100029fe:	2006      	movs	r0, #6
10002a00:	f000 f97c 	bl	10002cfc <clock_get_hz>
10002a04:	0080      	lsls	r0, r0, #2
10002a06:	01a1      	lsls	r1, r4, #6
10002a08:	1989      	adds	r1, r1, r6
10002a0a:	f001 fc21 	bl	10004250 <__wrap___aeabi_uidiv>
10002a0e:	bd70      	pop	{r4, r5, r6, pc}
10002a10:	2600      	movs	r6, #0
10002a12:	4c02      	ldr	r4, [pc, #8]	; (10002a1c <uart_set_baudrate+0x58>)
10002a14:	e7ec      	b.n	100029f0 <uart_set_baudrate+0x2c>
10002a16:	46c0      	nop			; (mov r8, r8)
10002a18:	0000fffe 	.word	0x0000fffe
10002a1c:	0000ffff 	.word	0x0000ffff

10002a20 <uart_set_format>:
10002a20:	b510      	push	{r4, lr}
10002a22:	3905      	subs	r1, #5
10002a24:	0149      	lsls	r1, r1, #5
10002a26:	3a01      	subs	r2, #1
10002a28:	00d2      	lsls	r2, r2, #3
10002a2a:	4311      	orrs	r1, r2
10002a2c:	2b00      	cmp	r3, #0
10002a2e:	d009      	beq.n	10002a44 <uart_set_format+0x24>
10002a30:	2202      	movs	r2, #2
10002a32:	430a      	orrs	r2, r1
10002a34:	2b01      	cmp	r3, #1
10002a36:	d007      	beq.n	10002a48 <uart_set_format+0x28>
10002a38:	2100      	movs	r1, #0
10002a3a:	4311      	orrs	r1, r2
10002a3c:	226e      	movs	r2, #110	; 0x6e
10002a3e:	f7ff ffaf 	bl	100029a0 <uart_write_lcr_bits_masked>
10002a42:	bd10      	pop	{r4, pc}
10002a44:	2200      	movs	r2, #0
10002a46:	e7f4      	b.n	10002a32 <uart_set_format+0x12>
10002a48:	2104      	movs	r1, #4
10002a4a:	e7f6      	b.n	10002a3a <uart_set_format+0x1a>

10002a4c <uart_set_translate_crlf>:
10002a4c:	2900      	cmp	r1, #0
10002a4e:	d009      	beq.n	10002a64 <uart_set_translate_crlf+0x18>
10002a50:	220a      	movs	r2, #10
10002a52:	4b06      	ldr	r3, [pc, #24]	; (10002a6c <uart_set_translate_crlf+0x20>)
10002a54:	469c      	mov	ip, r3
10002a56:	4460      	add	r0, ip
10002a58:	4243      	negs	r3, r0
10002a5a:	4158      	adcs	r0, r3
10002a5c:	0040      	lsls	r0, r0, #1
10002a5e:	4b04      	ldr	r3, [pc, #16]	; (10002a70 <uart_set_translate_crlf+0x24>)
10002a60:	52c2      	strh	r2, [r0, r3]
10002a62:	4770      	bx	lr
10002a64:	2280      	movs	r2, #128	; 0x80
10002a66:	0052      	lsls	r2, r2, #1
10002a68:	e7f3      	b.n	10002a52 <uart_set_translate_crlf+0x6>
10002a6a:	46c0      	nop			; (mov r8, r8)
10002a6c:	bffc8000 	.word	0xbffc8000
10002a70:	20002524 	.word	0x20002524

10002a74 <uart_init>:
10002a74:	b570      	push	{r4, r5, r6, lr}
10002a76:	0005      	movs	r5, r0
10002a78:	000c      	movs	r4, r1
10002a7a:	2006      	movs	r0, #6
10002a7c:	f000 f93e 	bl	10002cfc <clock_get_hz>
10002a80:	1e06      	subs	r6, r0, #0
10002a82:	d027      	beq.n	10002ad4 <uart_init+0x60>
10002a84:	4b16      	ldr	r3, [pc, #88]	; (10002ae0 <uart_init+0x6c>)
10002a86:	429d      	cmp	r5, r3
10002a88:	d026      	beq.n	10002ad8 <uart_init+0x64>
10002a8a:	2280      	movs	r2, #128	; 0x80
10002a8c:	03d2      	lsls	r2, r2, #15
10002a8e:	4b15      	ldr	r3, [pc, #84]	; (10002ae4 <uart_init+0x70>)
10002a90:	601a      	str	r2, [r3, #0]
10002a92:	4b15      	ldr	r3, [pc, #84]	; (10002ae8 <uart_init+0x74>)
10002a94:	601a      	str	r2, [r3, #0]
10002a96:	4b15      	ldr	r3, [pc, #84]	; (10002aec <uart_init+0x78>)
10002a98:	689b      	ldr	r3, [r3, #8]
10002a9a:	0011      	movs	r1, r2
10002a9c:	4399      	bics	r1, r3
10002a9e:	d1fa      	bne.n	10002a96 <uart_init+0x22>
10002aa0:	2100      	movs	r1, #0
10002aa2:	0028      	movs	r0, r5
10002aa4:	f7ff ffd2 	bl	10002a4c <uart_set_translate_crlf>
10002aa8:	0021      	movs	r1, r4
10002aaa:	0028      	movs	r0, r5
10002aac:	f7ff ff8a 	bl	100029c4 <uart_set_baudrate>
10002ab0:	0006      	movs	r6, r0
10002ab2:	2300      	movs	r3, #0
10002ab4:	2201      	movs	r2, #1
10002ab6:	2108      	movs	r1, #8
10002ab8:	0028      	movs	r0, r5
10002aba:	f7ff ffb1 	bl	10002a20 <uart_set_format>
10002abe:	002a      	movs	r2, r5
10002ac0:	322c      	adds	r2, #44	; 0x2c
10002ac2:	2380      	movs	r3, #128	; 0x80
10002ac4:	019b      	lsls	r3, r3, #6
10002ac6:	4313      	orrs	r3, r2
10002ac8:	2210      	movs	r2, #16
10002aca:	601a      	str	r2, [r3, #0]
10002acc:	4b08      	ldr	r3, [pc, #32]	; (10002af0 <uart_init+0x7c>)
10002ace:	632b      	str	r3, [r5, #48]	; 0x30
10002ad0:	2303      	movs	r3, #3
10002ad2:	64ab      	str	r3, [r5, #72]	; 0x48
10002ad4:	0030      	movs	r0, r6
10002ad6:	bd70      	pop	{r4, r5, r6, pc}
10002ad8:	2280      	movs	r2, #128	; 0x80
10002ada:	0412      	lsls	r2, r2, #16
10002adc:	e7d7      	b.n	10002a8e <uart_init+0x1a>
10002ade:	46c0      	nop			; (mov r8, r8)
10002ae0:	40038000 	.word	0x40038000
10002ae4:	4000e000 	.word	0x4000e000
10002ae8:	4000f000 	.word	0x4000f000
10002aec:	4000c000 	.word	0x4000c000
10002af0:	00000301 	.word	0x00000301

10002af4 <clock_configure>:
10002af4:	b5f8      	push	{r3, r4, r5, r6, r7, lr}
10002af6:	46de      	mov	lr, fp
10002af8:	4657      	mov	r7, sl
10002afa:	464e      	mov	r6, r9
10002afc:	4645      	mov	r5, r8
10002afe:	b5e0      	push	{r5, r6, r7, lr}
10002b00:	0005      	movs	r5, r0
10002b02:	000f      	movs	r7, r1
10002b04:	4692      	mov	sl, r2
10002b06:	9a0a      	ldr	r2, [sp, #40]	; 0x28
10002b08:	4293      	cmp	r3, r2
10002b0a:	d350      	bcc.n	10002bae <clock_configure+0xba>
10002b0c:	0e1a      	lsrs	r2, r3, #24
10002b0e:	4691      	mov	r9, r2
10002b10:	021e      	lsls	r6, r3, #8
10002b12:	9a0a      	ldr	r2, [sp, #40]	; 0x28
10002b14:	2300      	movs	r3, #0
10002b16:	0030      	movs	r0, r6
10002b18:	4649      	mov	r1, r9
10002b1a:	f001 fbd7 	bl	100042cc <__wrap___aeabi_uldivmod>
10002b1e:	4680      	mov	r8, r0
10002b20:	006c      	lsls	r4, r5, #1
10002b22:	1964      	adds	r4, r4, r5
10002b24:	00a4      	lsls	r4, r4, #2
10002b26:	4b30      	ldr	r3, [pc, #192]	; (10002be8 <clock_configure+0xf4>)
10002b28:	469c      	mov	ip, r3
10002b2a:	4464      	add	r4, ip
10002b2c:	6863      	ldr	r3, [r4, #4]
10002b2e:	4283      	cmp	r3, r0
10002b30:	d200      	bcs.n	10002b34 <clock_configure+0x40>
10002b32:	6060      	str	r0, [r4, #4]
10002b34:	1f2b      	subs	r3, r5, #4
10002b36:	b2db      	uxtb	r3, r3
10002b38:	469b      	mov	fp, r3
10002b3a:	2b01      	cmp	r3, #1
10002b3c:	d93d      	bls.n	10002bba <clock_configure+0xc6>
10002b3e:	23c0      	movs	r3, #192	; 0xc0
10002b40:	019b      	lsls	r3, r3, #6
10002b42:	4323      	orrs	r3, r4
10002b44:	2280      	movs	r2, #128	; 0x80
10002b46:	0112      	lsls	r2, r2, #4
10002b48:	601a      	str	r2, [r3, #0]
10002b4a:	00ab      	lsls	r3, r5, #2
10002b4c:	4a27      	ldr	r2, [pc, #156]	; (10002bec <clock_configure+0xf8>)
10002b4e:	5899      	ldr	r1, [r3, r2]
10002b50:	2900      	cmp	r1, #0
10002b52:	d007      	beq.n	10002b64 <clock_configure+0x70>
10002b54:	6950      	ldr	r0, [r2, #20]
10002b56:	f001 fb7b 	bl	10004250 <__wrap___aeabi_uidiv>
10002b5a:	1c43      	adds	r3, r0, #1
10002b5c:	0058      	lsls	r0, r3, #1
10002b5e:	18c0      	adds	r0, r0, r3
10002b60:	3803      	subs	r0, #3
10002b62:	d2fd      	bcs.n	10002b60 <clock_configure+0x6c>
10002b64:	4653      	mov	r3, sl
10002b66:	015a      	lsls	r2, r3, #5
10002b68:	6823      	ldr	r3, [r4, #0]
10002b6a:	405a      	eors	r2, r3
10002b6c:	23e0      	movs	r3, #224	; 0xe0
10002b6e:	401a      	ands	r2, r3
10002b70:	2380      	movs	r3, #128	; 0x80
10002b72:	015b      	lsls	r3, r3, #5
10002b74:	4323      	orrs	r3, r4
10002b76:	601a      	str	r2, [r3, #0]
10002b78:	465a      	mov	r2, fp
10002b7a:	2a01      	cmp	r2, #1
10002b7c:	d928      	bls.n	10002bd0 <clock_configure+0xdc>
10002b7e:	2380      	movs	r3, #128	; 0x80
10002b80:	019b      	lsls	r3, r3, #6
10002b82:	4323      	orrs	r3, r4
10002b84:	2280      	movs	r2, #128	; 0x80
10002b86:	0112      	lsls	r2, r2, #4
10002b88:	601a      	str	r2, [r3, #0]
10002b8a:	4643      	mov	r3, r8
10002b8c:	6063      	str	r3, [r4, #4]
10002b8e:	4642      	mov	r2, r8
10002b90:	2300      	movs	r3, #0
10002b92:	0030      	movs	r0, r6
10002b94:	4649      	mov	r1, r9
10002b96:	f001 fb99 	bl	100042cc <__wrap___aeabi_uldivmod>
10002b9a:	00ad      	lsls	r5, r5, #2
10002b9c:	4b13      	ldr	r3, [pc, #76]	; (10002bec <clock_configure+0xf8>)
10002b9e:	5158      	str	r0, [r3, r5]
10002ba0:	2001      	movs	r0, #1
10002ba2:	bcf0      	pop	{r4, r5, r6, r7}
10002ba4:	46bb      	mov	fp, r7
10002ba6:	46b2      	mov	sl, r6
10002ba8:	46a9      	mov	r9, r5
10002baa:	46a0      	mov	r8, r4
10002bac:	bdf8      	pop	{r3, r4, r5, r6, r7, pc}
10002bae:	4b10      	ldr	r3, [pc, #64]	; (10002bf0 <clock_configure+0xfc>)
10002bb0:	4a10      	ldr	r2, [pc, #64]	; (10002bf4 <clock_configure+0x100>)
10002bb2:	2133      	movs	r1, #51	; 0x33
10002bb4:	4810      	ldr	r0, [pc, #64]	; (10002bf8 <clock_configure+0x104>)
10002bb6:	f000 f979 	bl	10002eac <__assert_func>
10002bba:	2f01      	cmp	r7, #1
10002bbc:	d1bf      	bne.n	10002b3e <clock_configure+0x4a>
10002bbe:	23c0      	movs	r3, #192	; 0xc0
10002bc0:	019b      	lsls	r3, r3, #6
10002bc2:	4323      	orrs	r3, r4
10002bc4:	2203      	movs	r2, #3
10002bc6:	601a      	str	r2, [r3, #0]
10002bc8:	68a3      	ldr	r3, [r4, #8]
10002bca:	07db      	lsls	r3, r3, #31
10002bcc:	d5fc      	bpl.n	10002bc8 <clock_configure+0xd4>
10002bce:	e7c9      	b.n	10002b64 <clock_configure+0x70>
10002bd0:	6821      	ldr	r1, [r4, #0]
10002bd2:	4079      	eors	r1, r7
10002bd4:	2203      	movs	r2, #3
10002bd6:	400a      	ands	r2, r1
10002bd8:	601a      	str	r2, [r3, #0]
10002bda:	68a2      	ldr	r2, [r4, #8]
10002bdc:	2301      	movs	r3, #1
10002bde:	40bb      	lsls	r3, r7
10002be0:	4213      	tst	r3, r2
10002be2:	d0fa      	beq.n	10002bda <clock_configure+0xe6>
10002be4:	e7cb      	b.n	10002b7e <clock_configure+0x8a>
10002be6:	46c0      	nop			; (mov r8, r8)
10002be8:	40008000 	.word	0x40008000
10002bec:	20001fd8 	.word	0x20001fd8
10002bf0:	10014268 	.word	0x10014268
10002bf4:	100142dc 	.word	0x100142dc
10002bf8:	1001427c 	.word	0x1001427c

10002bfc <clocks_init>:
10002bfc:	b530      	push	{r4, r5, lr}
10002bfe:	b083      	sub	sp, #12
10002c00:	200c      	movs	r0, #12
10002c02:	f000 f911 	bl	10002e28 <watchdog_start_tick>
10002c06:	f7fe fac5 	bl	10001194 <running_on_fpga>
10002c0a:	2800      	cmp	r0, #0
10002c0c:	d00d      	beq.n	10002c2a <clocks_init+0x2e>
10002c0e:	2300      	movs	r3, #0
10002c10:	e004      	b.n	10002c1c <clocks_init+0x20>
10002c12:	0099      	lsls	r1, r3, #2
10002c14:	4a2d      	ldr	r2, [pc, #180]	; (10002ccc <clocks_init+0xd0>)
10002c16:	482e      	ldr	r0, [pc, #184]	; (10002cd0 <clocks_init+0xd4>)
10002c18:	5088      	str	r0, [r1, r2]
10002c1a:	3301      	adds	r3, #1
10002c1c:	2b09      	cmp	r3, #9
10002c1e:	d9f8      	bls.n	10002c12 <clocks_init+0x16>
10002c20:	4b2a      	ldr	r3, [pc, #168]	; (10002ccc <clocks_init+0xd0>)
10002c22:	4a2c      	ldr	r2, [pc, #176]	; (10002cd4 <clocks_init+0xd8>)
10002c24:	625a      	str	r2, [r3, #36]	; 0x24
10002c26:	b003      	add	sp, #12
10002c28:	bd30      	pop	{r4, r5, pc}
10002c2a:	4b2b      	ldr	r3, [pc, #172]	; (10002cd8 <clocks_init+0xdc>)
10002c2c:	2200      	movs	r2, #0
10002c2e:	679a      	str	r2, [r3, #120]	; 0x78
10002c30:	f000 f902 	bl	10002e38 <xosc_init>
10002c34:	4b29      	ldr	r3, [pc, #164]	; (10002cdc <clocks_init+0xe0>)
10002c36:	2201      	movs	r2, #1
10002c38:	601a      	str	r2, [r3, #0]
10002c3a:	4b27      	ldr	r3, [pc, #156]	; (10002cd8 <clocks_init+0xdc>)
10002c3c:	6c5b      	ldr	r3, [r3, #68]	; 0x44
10002c3e:	2b01      	cmp	r3, #1
10002c40:	d1fb      	bne.n	10002c3a <clocks_init+0x3e>
10002c42:	4b27      	ldr	r3, [pc, #156]	; (10002ce0 <clocks_init+0xe4>)
10002c44:	2203      	movs	r2, #3
10002c46:	601a      	str	r2, [r3, #0]
10002c48:	4b23      	ldr	r3, [pc, #140]	; (10002cd8 <clocks_init+0xdc>)
10002c4a:	6b9b      	ldr	r3, [r3, #56]	; 0x38
10002c4c:	2b01      	cmp	r3, #1
10002c4e:	d1fb      	bne.n	10002c48 <clocks_init+0x4c>
10002c50:	3301      	adds	r3, #1
10002c52:	9300      	str	r3, [sp, #0]
10002c54:	3304      	adds	r3, #4
10002c56:	4a23      	ldr	r2, [pc, #140]	; (10002ce4 <clocks_init+0xe8>)
10002c58:	2101      	movs	r1, #1
10002c5a:	4823      	ldr	r0, [pc, #140]	; (10002ce8 <clocks_init+0xec>)
10002c5c:	f000 f854 	bl	10002d08 <pll_init>
10002c60:	2305      	movs	r3, #5
10002c62:	9300      	str	r3, [sp, #0]
10002c64:	4a21      	ldr	r2, [pc, #132]	; (10002cec <clocks_init+0xf0>)
10002c66:	2101      	movs	r1, #1
10002c68:	4821      	ldr	r0, [pc, #132]	; (10002cf0 <clocks_init+0xf4>)
10002c6a:	f000 f84d 	bl	10002d08 <pll_init>
10002c6e:	4b21      	ldr	r3, [pc, #132]	; (10002cf4 <clocks_init+0xf8>)
10002c70:	9300      	str	r3, [sp, #0]
10002c72:	2200      	movs	r2, #0
10002c74:	2102      	movs	r1, #2
10002c76:	2004      	movs	r0, #4
10002c78:	f7ff ff3c 	bl	10002af4 <clock_configure>
10002c7c:	4d1e      	ldr	r5, [pc, #120]	; (10002cf8 <clocks_init+0xfc>)
10002c7e:	9500      	str	r5, [sp, #0]
10002c80:	002b      	movs	r3, r5
10002c82:	2200      	movs	r2, #0
10002c84:	2101      	movs	r1, #1
10002c86:	2005      	movs	r0, #5
10002c88:	f7ff ff34 	bl	10002af4 <clock_configure>
10002c8c:	4c10      	ldr	r4, [pc, #64]	; (10002cd0 <clocks_init+0xd4>)
10002c8e:	9400      	str	r4, [sp, #0]
10002c90:	0023      	movs	r3, r4
10002c92:	2200      	movs	r2, #0
10002c94:	2100      	movs	r1, #0
10002c96:	2007      	movs	r0, #7
10002c98:	f7ff ff2c 	bl	10002af4 <clock_configure>
10002c9c:	9400      	str	r4, [sp, #0]
10002c9e:	0023      	movs	r3, r4
10002ca0:	2200      	movs	r2, #0
10002ca2:	2100      	movs	r1, #0
10002ca4:	2008      	movs	r0, #8
10002ca6:	f7ff ff25 	bl	10002af4 <clock_configure>
10002caa:	4b0a      	ldr	r3, [pc, #40]	; (10002cd4 <clocks_init+0xd8>)
10002cac:	9300      	str	r3, [sp, #0]
10002cae:	0023      	movs	r3, r4
10002cb0:	2200      	movs	r2, #0
10002cb2:	2100      	movs	r1, #0
10002cb4:	2009      	movs	r0, #9
10002cb6:	f7ff ff1d 	bl	10002af4 <clock_configure>
10002cba:	9500      	str	r5, [sp, #0]
10002cbc:	002b      	movs	r3, r5
10002cbe:	2200      	movs	r2, #0
10002cc0:	2100      	movs	r1, #0
10002cc2:	2006      	movs	r0, #6
10002cc4:	f7ff ff16 	bl	10002af4 <clock_configure>
10002cc8:	e7ad      	b.n	10002c26 <clocks_init+0x2a>
10002cca:	46c0      	nop			; (mov r8, r8)
10002ccc:	20001fd8 	.word	0x20001fd8
10002cd0:	02dc6c00 	.word	0x02dc6c00
10002cd4:	0000b71b 	.word	0x0000b71b
10002cd8:	40008000 	.word	0x40008000
10002cdc:	4000b03c 	.word	0x4000b03c
10002ce0:	4000b030 	.word	0x4000b030
10002ce4:	59682f00 	.word	0x59682f00
10002ce8:	40028000 	.word	0x40028000
10002cec:	47868c00 	.word	0x47868c00
10002cf0:	4002c000 	.word	0x4002c000
10002cf4:	00b71b00 	.word	0x00b71b00
10002cf8:	07735940 	.word	0x07735940

10002cfc <clock_get_hz>:
10002cfc:	0080      	lsls	r0, r0, #2
10002cfe:	4b01      	ldr	r3, [pc, #4]	; (10002d04 <clock_get_hz+0x8>)
10002d00:	58c0      	ldr	r0, [r0, r3]
10002d02:	4770      	bx	lr
10002d04:	20001fd8 	.word	0x20001fd8

10002d08 <pll_init>:
10002d08:	b5f0      	push	{r4, r5, r6, r7, lr}
10002d0a:	46c6      	mov	lr, r8
10002d0c:	b500      	push	{lr}
10002d0e:	0004      	movs	r4, r0
10002d10:	000e      	movs	r6, r1
10002d12:	0017      	movs	r7, r2
10002d14:	001d      	movs	r5, r3
10002d16:	4837      	ldr	r0, [pc, #220]	; (10002df4 <pll_init+0xec>)
10002d18:	f001 fa9a 	bl	10004250 <__wrap___aeabi_uidiv>
10002d1c:	4680      	mov	r8, r0
10002d1e:	4b36      	ldr	r3, [pc, #216]	; (10002df8 <pll_init+0xf0>)
10002d20:	18fa      	adds	r2, r7, r3
10002d22:	4b36      	ldr	r3, [pc, #216]	; (10002dfc <pll_init+0xf4>)
10002d24:	429a      	cmp	r2, r3
10002d26:	d839      	bhi.n	10002d9c <pll_init+0x94>
10002d28:	0001      	movs	r1, r0
10002d2a:	0038      	movs	r0, r7
10002d2c:	f001 fa90 	bl	10004250 <__wrap___aeabi_uidiv>
10002d30:	0002      	movs	r2, r0
10002d32:	3a10      	subs	r2, #16
10002d34:	2398      	movs	r3, #152	; 0x98
10002d36:	005b      	lsls	r3, r3, #1
10002d38:	429a      	cmp	r2, r3
10002d3a:	d835      	bhi.n	10002da8 <pll_init+0xa0>
10002d3c:	1e6b      	subs	r3, r5, #1
10002d3e:	2b06      	cmp	r3, #6
10002d40:	d838      	bhi.n	10002db4 <pll_init+0xac>
10002d42:	9b06      	ldr	r3, [sp, #24]
10002d44:	3b01      	subs	r3, #1
10002d46:	2b06      	cmp	r3, #6
10002d48:	d834      	bhi.n	10002db4 <pll_init+0xac>
10002d4a:	093f      	lsrs	r7, r7, #4
10002d4c:	4547      	cmp	r7, r8
10002d4e:	d337      	bcc.n	10002dc0 <pll_init+0xb8>
10002d50:	042d      	lsls	r5, r5, #16
10002d52:	9b06      	ldr	r3, [sp, #24]
10002d54:	031a      	lsls	r2, r3, #12
10002d56:	4315      	orrs	r5, r2
10002d58:	6823      	ldr	r3, [r4, #0]
10002d5a:	2b00      	cmp	r3, #0
10002d5c:	db36      	blt.n	10002dcc <pll_init+0xc4>
10002d5e:	4b28      	ldr	r3, [pc, #160]	; (10002e00 <pll_init+0xf8>)
10002d60:	429c      	cmp	r4, r3
10002d62:	d044      	beq.n	10002dee <pll_init+0xe6>
10002d64:	2280      	movs	r2, #128	; 0x80
10002d66:	0152      	lsls	r2, r2, #5
10002d68:	4b26      	ldr	r3, [pc, #152]	; (10002e04 <pll_init+0xfc>)
10002d6a:	601a      	str	r2, [r3, #0]
10002d6c:	4b26      	ldr	r3, [pc, #152]	; (10002e08 <pll_init+0x100>)
10002d6e:	601a      	str	r2, [r3, #0]
10002d70:	4b26      	ldr	r3, [pc, #152]	; (10002e0c <pll_init+0x104>)
10002d72:	689b      	ldr	r3, [r3, #8]
10002d74:	0011      	movs	r1, r2
10002d76:	4399      	bics	r1, r3
10002d78:	d1fa      	bne.n	10002d70 <pll_init+0x68>
10002d7a:	6026      	str	r6, [r4, #0]
10002d7c:	60a0      	str	r0, [r4, #8]
10002d7e:	1d23      	adds	r3, r4, #4
10002d80:	22c0      	movs	r2, #192	; 0xc0
10002d82:	0192      	lsls	r2, r2, #6
10002d84:	431a      	orrs	r2, r3
10002d86:	2321      	movs	r3, #33	; 0x21
10002d88:	6013      	str	r3, [r2, #0]
10002d8a:	6823      	ldr	r3, [r4, #0]
10002d8c:	2b00      	cmp	r3, #0
10002d8e:	dafc      	bge.n	10002d8a <pll_init+0x82>
10002d90:	60e5      	str	r5, [r4, #12]
10002d92:	2308      	movs	r3, #8
10002d94:	6013      	str	r3, [r2, #0]
10002d96:	bc80      	pop	{r7}
10002d98:	46b8      	mov	r8, r7
10002d9a:	bdf0      	pop	{r4, r5, r6, r7, pc}
10002d9c:	4b1c      	ldr	r3, [pc, #112]	; (10002e10 <pll_init+0x108>)
10002d9e:	4a1d      	ldr	r2, [pc, #116]	; (10002e14 <pll_init+0x10c>)
10002da0:	2111      	movs	r1, #17
10002da2:	481d      	ldr	r0, [pc, #116]	; (10002e18 <pll_init+0x110>)
10002da4:	f000 f882 	bl	10002eac <__assert_func>
10002da8:	4b1c      	ldr	r3, [pc, #112]	; (10002e1c <pll_init+0x114>)
10002daa:	4a1a      	ldr	r2, [pc, #104]	; (10002e14 <pll_init+0x10c>)
10002dac:	2119      	movs	r1, #25
10002dae:	481a      	ldr	r0, [pc, #104]	; (10002e18 <pll_init+0x110>)
10002db0:	f000 f87c 	bl	10002eac <__assert_func>
10002db4:	4b1a      	ldr	r3, [pc, #104]	; (10002e20 <pll_init+0x118>)
10002db6:	4a17      	ldr	r2, [pc, #92]	; (10002e14 <pll_init+0x10c>)
10002db8:	211c      	movs	r1, #28
10002dba:	4817      	ldr	r0, [pc, #92]	; (10002e18 <pll_init+0x110>)
10002dbc:	f000 f876 	bl	10002eac <__assert_func>
10002dc0:	4b18      	ldr	r3, [pc, #96]	; (10002e24 <pll_init+0x11c>)
10002dc2:	4a14      	ldr	r2, [pc, #80]	; (10002e14 <pll_init+0x10c>)
10002dc4:	2123      	movs	r1, #35	; 0x23
10002dc6:	4814      	ldr	r0, [pc, #80]	; (10002e18 <pll_init+0x110>)
10002dc8:	f000 f870 	bl	10002eac <__assert_func>
10002dcc:	6822      	ldr	r2, [r4, #0]
10002dce:	233f      	movs	r3, #63	; 0x3f
10002dd0:	4013      	ands	r3, r2
10002dd2:	42b3      	cmp	r3, r6
10002dd4:	d1c3      	bne.n	10002d5e <pll_init+0x56>
10002dd6:	68a3      	ldr	r3, [r4, #8]
10002dd8:	051b      	lsls	r3, r3, #20
10002dda:	0d1b      	lsrs	r3, r3, #20
10002ddc:	4283      	cmp	r3, r0
10002dde:	d1be      	bne.n	10002d5e <pll_init+0x56>
10002de0:	68e3      	ldr	r3, [r4, #12]
10002de2:	22ee      	movs	r2, #238	; 0xee
10002de4:	02d2      	lsls	r2, r2, #11
10002de6:	4013      	ands	r3, r2
10002de8:	42ab      	cmp	r3, r5
10002dea:	d1b8      	bne.n	10002d5e <pll_init+0x56>
10002dec:	e7d3      	b.n	10002d96 <pll_init+0x8e>
10002dee:	2280      	movs	r2, #128	; 0x80
10002df0:	0192      	lsls	r2, r2, #6
10002df2:	e7b9      	b.n	10002d68 <pll_init+0x60>
10002df4:	00b71b00 	.word	0x00b71b00
10002df8:	d34be880 	.word	0xd34be880
10002dfc:	32a9f880 	.word	0x32a9f880
10002e00:	4002c000 	.word	0x4002c000
10002e04:	4000e000 	.word	0x4000e000
10002e08:	4000f000 	.word	0x4000f000
10002e0c:	4000c000 	.word	0x4000c000
10002e10:	100142ec 	.word	0x100142ec
10002e14:	1001442c 	.word	0x1001442c
10002e18:	1001434c 	.word	0x1001434c
10002e1c:	100143a8 	.word	0x100143a8
10002e20:	100143c4 	.word	0x100143c4
10002e24:	10014410 	.word	0x10014410

10002e28 <watchdog_start_tick>:
10002e28:	2380      	movs	r3, #128	; 0x80
10002e2a:	009b      	lsls	r3, r3, #2
10002e2c:	4303      	orrs	r3, r0
10002e2e:	4a01      	ldr	r2, [pc, #4]	; (10002e34 <watchdog_start_tick+0xc>)
10002e30:	62d3      	str	r3, [r2, #44]	; 0x2c
10002e32:	4770      	bx	lr
10002e34:	40058000 	.word	0x40058000

10002e38 <xosc_init>:
10002e38:	4b06      	ldr	r3, [pc, #24]	; (10002e54 <xosc_init+0x1c>)
10002e3a:	22aa      	movs	r2, #170	; 0xaa
10002e3c:	0112      	lsls	r2, r2, #4
10002e3e:	601a      	str	r2, [r3, #0]
10002e40:	222f      	movs	r2, #47	; 0x2f
10002e42:	60da      	str	r2, [r3, #12]
10002e44:	4b04      	ldr	r3, [pc, #16]	; (10002e58 <xosc_init+0x20>)
10002e46:	4a05      	ldr	r2, [pc, #20]	; (10002e5c <xosc_init+0x24>)
10002e48:	601a      	str	r2, [r3, #0]
10002e4a:	4b02      	ldr	r3, [pc, #8]	; (10002e54 <xosc_init+0x1c>)
10002e4c:	685b      	ldr	r3, [r3, #4]
10002e4e:	2b00      	cmp	r3, #0
10002e50:	dafb      	bge.n	10002e4a <xosc_init+0x12>
10002e52:	4770      	bx	lr
10002e54:	40024000 	.word	0x40024000
10002e58:	40026000 	.word	0x40026000
10002e5c:	00fab000 	.word	0x00fab000

10002e60 <_exit>:
10002e60:	be00      	bkpt	0x0000
10002e62:	e7fd      	b.n	10002e60 <_exit>

10002e64 <_sbrk>:
10002e64:	0003      	movs	r3, r0
10002e66:	4a0a      	ldr	r2, [pc, #40]	; (10002e90 <_sbrk+0x2c>)
10002e68:	6812      	ldr	r2, [r2, #0]
10002e6a:	2a00      	cmp	r2, #0
10002e6c:	d008      	beq.n	10002e80 <_sbrk+0x1c>
10002e6e:	4a08      	ldr	r2, [pc, #32]	; (10002e90 <_sbrk+0x2c>)
10002e70:	6810      	ldr	r0, [r2, #0]
10002e72:	18c3      	adds	r3, r0, r3
10002e74:	4a07      	ldr	r2, [pc, #28]	; (10002e94 <_sbrk+0x30>)
10002e76:	429a      	cmp	r2, r3
10002e78:	d306      	bcc.n	10002e88 <_sbrk+0x24>
10002e7a:	4a05      	ldr	r2, [pc, #20]	; (10002e90 <_sbrk+0x2c>)
10002e7c:	6013      	str	r3, [r2, #0]
10002e7e:	4770      	bx	lr
10002e80:	4a03      	ldr	r2, [pc, #12]	; (10002e90 <_sbrk+0x2c>)
10002e82:	4905      	ldr	r1, [pc, #20]	; (10002e98 <_sbrk+0x34>)
10002e84:	6011      	str	r1, [r2, #0]
10002e86:	e7f2      	b.n	10002e6e <_sbrk+0xa>
10002e88:	2001      	movs	r0, #1
10002e8a:	4240      	negs	r0, r0
10002e8c:	e7f7      	b.n	10002e7e <_sbrk+0x1a>
10002e8e:	46c0      	nop			; (mov r8, r8)
10002e90:	2000204c 	.word	0x2000204c
10002e94:	20040000 	.word	0x20040000
10002e98:	20022674 	.word	0x20022674

10002e9c <_getpid>:
10002e9c:	2000      	movs	r0, #0
10002e9e:	4770      	bx	lr

10002ea0 <_kill>:
10002ea0:	2001      	movs	r0, #1
10002ea2:	4240      	negs	r0, r0
10002ea4:	4770      	bx	lr

10002ea6 <exit>:
10002ea6:	b510      	push	{r4, lr}
10002ea8:	f7ff ffda 	bl	10002e60 <_exit>

10002eac <__assert_func>:
10002eac:	b510      	push	{r4, lr}
10002eae:	b082      	sub	sp, #8
10002eb0:	000c      	movs	r4, r1
10002eb2:	0019      	movs	r1, r3
10002eb4:	2a00      	cmp	r2, #0
10002eb6:	d00c      	beq.n	10002ed2 <__assert_func+0x26>
10002eb8:	4b08      	ldr	r3, [pc, #32]	; (10002edc <__assert_func+0x30>)
10002eba:	2a00      	cmp	r2, #0
10002ebc:	d00b      	beq.n	10002ed6 <__assert_func+0x2a>
10002ebe:	9201      	str	r2, [sp, #4]
10002ec0:	9300      	str	r3, [sp, #0]
10002ec2:	0023      	movs	r3, r4
10002ec4:	0002      	movs	r2, r0
10002ec6:	4806      	ldr	r0, [pc, #24]	; (10002ee0 <__assert_func+0x34>)
10002ec8:	f002 fd42 	bl	10005950 <__wrap_printf>
10002ecc:	2001      	movs	r0, #1
10002ece:	f7ff ffc7 	bl	10002e60 <_exit>
10002ed2:	4b04      	ldr	r3, [pc, #16]	; (10002ee4 <__assert_func+0x38>)
10002ed4:	e7f1      	b.n	10002eba <__assert_func+0xe>
10002ed6:	4a03      	ldr	r2, [pc, #12]	; (10002ee4 <__assert_func+0x38>)
10002ed8:	e7f1      	b.n	10002ebe <__assert_func+0x12>
10002eda:	46c0      	nop			; (mov r8, r8)
10002edc:	10014438 	.word	0x10014438
10002ee0:	10014448 	.word	0x10014448
10002ee4:	10014444 	.word	0x10014444

10002ee8 <runtime_init>:
10002ee8:	b570      	push	{r4, r5, r6, lr}
10002eea:	4b2b      	ldr	r3, [pc, #172]	; (10002f98 <runtime_init+0xb0>)
10002eec:	4a2b      	ldr	r2, [pc, #172]	; (10002f9c <runtime_init+0xb4>)
10002eee:	601a      	str	r2, [r3, #0]
10002ef0:	4b2b      	ldr	r3, [pc, #172]	; (10002fa0 <runtime_init+0xb8>)
10002ef2:	4a2c      	ldr	r2, [pc, #176]	; (10002fa4 <runtime_init+0xbc>)
10002ef4:	601a      	str	r2, [r3, #0]
10002ef6:	4b2c      	ldr	r3, [pc, #176]	; (10002fa8 <runtime_init+0xc0>)
10002ef8:	689a      	ldr	r2, [r3, #8]
10002efa:	4b2a      	ldr	r3, [pc, #168]	; (10002fa4 <runtime_init+0xbc>)
10002efc:	4393      	bics	r3, r2
10002efe:	d1fa      	bne.n	10002ef6 <runtime_init+0xe>
10002f00:	4c2a      	ldr	r4, [pc, #168]	; (10002fac <runtime_init+0xc4>)
10002f02:	e001      	b.n	10002f08 <runtime_init+0x20>
10002f04:	cc08      	ldmia	r4!, {r3}
10002f06:	4798      	blx	r3
10002f08:	4b29      	ldr	r3, [pc, #164]	; (10002fb0 <runtime_init+0xc8>)
10002f0a:	429c      	cmp	r4, r3
10002f0c:	d3fa      	bcc.n	10002f04 <runtime_init+0x1c>
10002f0e:	f7ff fe75 	bl	10002bfc <clocks_init>
10002f12:	4b23      	ldr	r3, [pc, #140]	; (10002fa0 <runtime_init+0xb8>)
10002f14:	4a27      	ldr	r2, [pc, #156]	; (10002fb4 <runtime_init+0xcc>)
10002f16:	601a      	str	r2, [r3, #0]
10002f18:	4b23      	ldr	r3, [pc, #140]	; (10002fa8 <runtime_init+0xc0>)
10002f1a:	689b      	ldr	r3, [r3, #8]
10002f1c:	43db      	mvns	r3, r3
10002f1e:	01db      	lsls	r3, r3, #7
10002f20:	d1fa      	bne.n	10002f18 <runtime_init+0x30>
10002f22:	4b25      	ldr	r3, [pc, #148]	; (10002fb8 <runtime_init+0xd0>)
10002f24:	2240      	movs	r2, #64	; 0x40
10002f26:	679a      	str	r2, [r3, #120]	; 0x78
10002f28:	675a      	str	r2, [r3, #116]	; 0x74
10002f2a:	671a      	str	r2, [r3, #112]	; 0x70
10002f2c:	66da      	str	r2, [r3, #108]	; 0x6c
10002f2e:	4c23      	ldr	r4, [pc, #140]	; (10002fbc <runtime_init+0xd4>)
10002f30:	e009      	b.n	10002f46 <runtime_init+0x5e>
10002f32:	4b23      	ldr	r3, [pc, #140]	; (10002fc0 <runtime_init+0xd8>)
10002f34:	4a23      	ldr	r2, [pc, #140]	; (10002fc4 <runtime_init+0xdc>)
10002f36:	2187      	movs	r1, #135	; 0x87
10002f38:	4823      	ldr	r0, [pc, #140]	; (10002fc8 <runtime_init+0xe0>)
10002f3a:	f7ff ffb7 	bl	10002eac <__assert_func>
10002f3e:	0020      	movs	r0, r4
10002f40:	f7fe fbb2 	bl	100016a8 <mutex_init>
10002f44:	3408      	adds	r4, #8
10002f46:	4b21      	ldr	r3, [pc, #132]	; (10002fcc <runtime_init+0xe4>)
10002f48:	429c      	cmp	r4, r3
10002f4a:	d209      	bcs.n	10002f60 <runtime_init+0x78>
10002f4c:	6823      	ldr	r3, [r4, #0]
10002f4e:	2b00      	cmp	r3, #0
10002f50:	d0f5      	beq.n	10002f3e <runtime_init+0x56>
10002f52:	2b01      	cmp	r3, #1
10002f54:	d1ed      	bne.n	10002f32 <runtime_init+0x4a>
10002f56:	0020      	movs	r0, r4
10002f58:	f7fe fbb4 	bl	100016c4 <recursive_mutex_init>
10002f5c:	340c      	adds	r4, #12
10002f5e:	e7f2      	b.n	10002f46 <runtime_init+0x5e>
10002f60:	4c1b      	ldr	r4, [pc, #108]	; (10002fd0 <runtime_init+0xe8>)
10002f62:	68a1      	ldr	r1, [r4, #8]
10002f64:	4d1b      	ldr	r5, [pc, #108]	; (10002fd4 <runtime_init+0xec>)
10002f66:	22c0      	movs	r2, #192	; 0xc0
10002f68:	0028      	movs	r0, r5
10002f6a:	f002 fb1b 	bl	100055a4 <__wrap___aeabi_memcpy>
10002f6e:	60a5      	str	r5, [r4, #8]
10002f70:	f3ef 8305 	mrs	r3, IPSR
10002f74:	2b00      	cmp	r3, #0
10002f76:	d000      	beq.n	10002f7a <runtime_init+0x92>
10002f78:	be00      	bkpt	0x0000
10002f7a:	f7fe f945 	bl	10001208 <spin_locks_reset>
10002f7e:	f7fe fb7d 	bl	1000167c <irq_init_priorities>
10002f82:	f7fe feeb 	bl	10001d5c <alarm_pool_init_default>
10002f86:	4c14      	ldr	r4, [pc, #80]	; (10002fd8 <runtime_init+0xf0>)
10002f88:	e001      	b.n	10002f8e <runtime_init+0xa6>
10002f8a:	cc08      	ldmia	r4!, {r3}
10002f8c:	4798      	blx	r3
10002f8e:	4b13      	ldr	r3, [pc, #76]	; (10002fdc <runtime_init+0xf4>)
10002f90:	429c      	cmp	r4, r3
10002f92:	d3fa      	bcc.n	10002f8a <runtime_init+0xa2>
10002f94:	bd70      	pop	{r4, r5, r6, pc}
10002f96:	46c0      	nop			; (mov r8, r8)
10002f98:	4000e000 	.word	0x4000e000
10002f9c:	fefbcdbf 	.word	0xfefbcdbf
10002fa0:	4000f000 	.word	0x4000f000
10002fa4:	003c7ffe 	.word	0x003c7ffe
10002fa8:	4000c000 	.word	0x4000c000
10002fac:	20001c34 	.word	0x20001c34
10002fb0:	20001c44 	.word	0x20001c44
10002fb4:	01ffffff 	.word	0x01ffffff
10002fb8:	4001f000 	.word	0x4001f000
10002fbc:	20001c24 	.word	0x20001c24
10002fc0:	10014478 	.word	0x10014478
10002fc4:	10014518 	.word	0x10014518
10002fc8:	10014498 	.word	0x10014498
10002fcc:	20001c34 	.word	0x20001c34
10002fd0:	e000ed00 	.word	0xe000ed00
10002fd4:	20000000 	.word	0x20000000
10002fd8:	20001c44 	.word	0x20001c44
10002fdc:	20001c70 	.word	0x20001c70

10002fe0 <panic>:
10002fe0:	b40f      	push	{r0, r1, r2, r3}
10002fe2:	b500      	push	{lr}
10002fe4:	b083      	sub	sp, #12
10002fe6:	4808      	ldr	r0, [pc, #32]	; (10003008 <panic+0x28>)
10002fe8:	f002 fc82 	bl	100058f0 <__wrap_puts>
10002fec:	9b04      	ldr	r3, [sp, #16]
10002fee:	2b00      	cmp	r3, #0
10002ff0:	d007      	beq.n	10003002 <panic+0x22>
10002ff2:	a905      	add	r1, sp, #20
10002ff4:	9101      	str	r1, [sp, #4]
10002ff6:	0018      	movs	r0, r3
10002ff8:	f002 fc8a 	bl	10005910 <__wrap_vprintf>
10002ffc:	4803      	ldr	r0, [pc, #12]	; (1000300c <panic+0x2c>)
10002ffe:	f002 fc77 	bl	100058f0 <__wrap_puts>
10003002:	2001      	movs	r0, #1
10003004:	f7ff ff2c 	bl	10002e60 <_exit>
10003008:	100144f8 	.word	0x100144f8
1000300c:	10016118 	.word	0x10016118

10003010 <panic_unsupported>:
10003010:	b510      	push	{r4, lr}
10003012:	4801      	ldr	r0, [pc, #4]	; (10003018 <panic_unsupported+0x8>)
10003014:	f7ff ffe4 	bl	10002fe0 <panic>
10003018:	10014508 	.word	0x10014508

1000301c <_out_buffer>:
1000301c:	429a      	cmp	r2, r3
1000301e:	d200      	bcs.n	10003022 <_out_buffer+0x6>
10003020:	5488      	strb	r0, [r1, r2]
10003022:	4770      	bx	lr

10003024 <_out_null>:
10003024:	4770      	bx	lr

10003026 <_out_fct>:
10003026:	b510      	push	{r4, lr}
10003028:	2800      	cmp	r0, #0
1000302a:	d002      	beq.n	10003032 <_out_fct+0xc>
1000302c:	680b      	ldr	r3, [r1, #0]
1000302e:	6849      	ldr	r1, [r1, #4]
10003030:	4798      	blx	r3
10003032:	bd10      	pop	{r4, pc}

10003034 <_atoi>:
10003034:	0001      	movs	r1, r0
10003036:	2000      	movs	r0, #0
10003038:	e007      	b.n	1000304a <_atoi+0x16>
1000303a:	0083      	lsls	r3, r0, #2
1000303c:	181b      	adds	r3, r3, r0
1000303e:	005b      	lsls	r3, r3, #1
10003040:	1c50      	adds	r0, r2, #1
10003042:	6008      	str	r0, [r1, #0]
10003044:	7810      	ldrb	r0, [r2, #0]
10003046:	18c0      	adds	r0, r0, r3
10003048:	3830      	subs	r0, #48	; 0x30
1000304a:	680a      	ldr	r2, [r1, #0]
1000304c:	7813      	ldrb	r3, [r2, #0]
1000304e:	3b30      	subs	r3, #48	; 0x30
10003050:	b2db      	uxtb	r3, r3
10003052:	2b09      	cmp	r3, #9
10003054:	d9f1      	bls.n	1000303a <_atoi+0x6>
10003056:	4770      	bx	lr

10003058 <_out_rev>:
10003058:	b5f0      	push	{r4, r5, r6, r7, lr}
1000305a:	46de      	mov	lr, fp
1000305c:	4657      	mov	r7, sl
1000305e:	464e      	mov	r6, r9
10003060:	4645      	mov	r5, r8
10003062:	b5e0      	push	{r5, r6, r7, lr}
10003064:	b083      	sub	sp, #12
10003066:	4693      	mov	fp, r2
10003068:	001f      	movs	r7, r3
1000306a:	9b0c      	ldr	r3, [sp, #48]	; 0x30
1000306c:	469a      	mov	sl, r3
1000306e:	9c0d      	ldr	r4, [sp, #52]	; 0x34
10003070:	9b0e      	ldr	r3, [sp, #56]	; 0x38
10003072:	4699      	mov	r9, r3
10003074:	9b0f      	ldr	r3, [sp, #60]	; 0x3c
10003076:	079b      	lsls	r3, r3, #30
10003078:	d003      	beq.n	10003082 <_out_rev+0x2a>
1000307a:	46b8      	mov	r8, r7
1000307c:	000f      	movs	r7, r1
1000307e:	0006      	movs	r6, r0
10003080:	e022      	b.n	100030c8 <_out_rev+0x70>
10003082:	9201      	str	r2, [sp, #4]
10003084:	46a3      	mov	fp, r4
10003086:	4688      	mov	r8, r1
10003088:	464e      	mov	r6, r9
1000308a:	46b9      	mov	r9, r7
1000308c:	0007      	movs	r7, r0
1000308e:	42b4      	cmp	r4, r6
10003090:	d207      	bcs.n	100030a2 <_out_rev+0x4a>
10003092:	1c55      	adds	r5, r2, #1
10003094:	464b      	mov	r3, r9
10003096:	4641      	mov	r1, r8
10003098:	2020      	movs	r0, #32
1000309a:	47b8      	blx	r7
1000309c:	3401      	adds	r4, #1
1000309e:	002a      	movs	r2, r5
100030a0:	e7f5      	b.n	1000308e <_out_rev+0x36>
100030a2:	003d      	movs	r5, r7
100030a4:	464f      	mov	r7, r9
100030a6:	465c      	mov	r4, fp
100030a8:	9b01      	ldr	r3, [sp, #4]
100030aa:	469b      	mov	fp, r3
100030ac:	46b1      	mov	r9, r6
100030ae:	4646      	mov	r6, r8
100030b0:	46b8      	mov	r8, r7
100030b2:	0037      	movs	r7, r6
100030b4:	002e      	movs	r6, r5
100030b6:	e007      	b.n	100030c8 <_out_rev+0x70>
100030b8:	3c01      	subs	r4, #1
100030ba:	1c55      	adds	r5, r2, #1
100030bc:	4653      	mov	r3, sl
100030be:	5d18      	ldrb	r0, [r3, r4]
100030c0:	4643      	mov	r3, r8
100030c2:	0039      	movs	r1, r7
100030c4:	47b0      	blx	r6
100030c6:	002a      	movs	r2, r5
100030c8:	2c00      	cmp	r4, #0
100030ca:	d1f5      	bne.n	100030b8 <_out_rev+0x60>
100030cc:	0035      	movs	r5, r6
100030ce:	003e      	movs	r6, r7
100030d0:	4647      	mov	r7, r8
100030d2:	9b0f      	ldr	r3, [sp, #60]	; 0x3c
100030d4:	079b      	lsls	r3, r3, #30
100030d6:	d407      	bmi.n	100030e8 <_out_rev+0x90>
100030d8:	0010      	movs	r0, r2
100030da:	b003      	add	sp, #12
100030dc:	bcf0      	pop	{r4, r5, r6, r7}
100030de:	46bb      	mov	fp, r7
100030e0:	46b2      	mov	sl, r6
100030e2:	46a9      	mov	r9, r5
100030e4:	46a0      	mov	r8, r4
100030e6:	bdf0      	pop	{r4, r5, r6, r7, pc}
100030e8:	46b0      	mov	r8, r6
100030ea:	464e      	mov	r6, r9
100030ec:	46b9      	mov	r9, r7
100030ee:	002f      	movs	r7, r5
100030f0:	465d      	mov	r5, fp
100030f2:	1b53      	subs	r3, r2, r5
100030f4:	42b3      	cmp	r3, r6
100030f6:	d2ef      	bcs.n	100030d8 <_out_rev+0x80>
100030f8:	1c54      	adds	r4, r2, #1
100030fa:	464b      	mov	r3, r9
100030fc:	4641      	mov	r1, r8
100030fe:	2020      	movs	r0, #32
10003100:	47b8      	blx	r7
10003102:	0022      	movs	r2, r4
10003104:	e7f5      	b.n	100030f2 <_out_rev+0x9a>

10003106 <_ntoa_format>:
10003106:	b5f0      	push	{r4, r5, r6, r7, lr}
10003108:	46ce      	mov	lr, r9
1000310a:	4647      	mov	r7, r8
1000310c:	b580      	push	{r7, lr}
1000310e:	b085      	sub	sp, #20
10003110:	4694      	mov	ip, r2
10003112:	4698      	mov	r8, r3
10003114:	9d0c      	ldr	r5, [sp, #48]	; 0x30
10003116:	9c0d      	ldr	r4, [sp, #52]	; 0x34
10003118:	ab0e      	add	r3, sp, #56	; 0x38
1000311a:	781b      	ldrb	r3, [r3, #0]
1000311c:	4699      	mov	r9, r3
1000311e:	9a10      	ldr	r2, [sp, #64]	; 0x40
10003120:	9b11      	ldr	r3, [sp, #68]	; 0x44
10003122:	9e12      	ldr	r6, [sp, #72]	; 0x48
10003124:	07b7      	lsls	r7, r6, #30
10003126:	d41c      	bmi.n	10003162 <_ntoa_format+0x5c>
10003128:	2b00      	cmp	r3, #0
1000312a:	d00c      	beq.n	10003146 <_ntoa_format+0x40>
1000312c:	07f7      	lsls	r7, r6, #31
1000312e:	d50a      	bpl.n	10003146 <_ntoa_format+0x40>
10003130:	464f      	mov	r7, r9
10003132:	2f00      	cmp	r7, #0
10003134:	d102      	bne.n	1000313c <_ntoa_format+0x36>
10003136:	370c      	adds	r7, #12
10003138:	4237      	tst	r7, r6
1000313a:	d004      	beq.n	10003146 <_ntoa_format+0x40>
1000313c:	3b01      	subs	r3, #1
1000313e:	e002      	b.n	10003146 <_ntoa_format+0x40>
10003140:	2730      	movs	r7, #48	; 0x30
10003142:	552f      	strb	r7, [r5, r4]
10003144:	3401      	adds	r4, #1
10003146:	4294      	cmp	r4, r2
10003148:	d201      	bcs.n	1000314e <_ntoa_format+0x48>
1000314a:	2c1f      	cmp	r4, #31
1000314c:	d9f8      	bls.n	10003140 <_ntoa_format+0x3a>
1000314e:	07f7      	lsls	r7, r6, #31
10003150:	d507      	bpl.n	10003162 <_ntoa_format+0x5c>
10003152:	429c      	cmp	r4, r3
10003154:	d205      	bcs.n	10003162 <_ntoa_format+0x5c>
10003156:	2c1f      	cmp	r4, #31
10003158:	d803      	bhi.n	10003162 <_ntoa_format+0x5c>
1000315a:	2730      	movs	r7, #48	; 0x30
1000315c:	552f      	strb	r7, [r5, r4]
1000315e:	3401      	adds	r4, #1
10003160:	e7f5      	b.n	1000314e <_ntoa_format+0x48>
10003162:	06f7      	lsls	r7, r6, #27
10003164:	d515      	bpl.n	10003192 <_ntoa_format+0x8c>
10003166:	0577      	lsls	r7, r6, #21
10003168:	d405      	bmi.n	10003176 <_ntoa_format+0x70>
1000316a:	2c00      	cmp	r4, #0
1000316c:	d003      	beq.n	10003176 <_ntoa_format+0x70>
1000316e:	4294      	cmp	r4, r2
10003170:	d024      	beq.n	100031bc <_ntoa_format+0xb6>
10003172:	429c      	cmp	r4, r3
10003174:	d022      	beq.n	100031bc <_ntoa_format+0xb6>
10003176:	9a0f      	ldr	r2, [sp, #60]	; 0x3c
10003178:	2a10      	cmp	r2, #16
1000317a:	d02b      	beq.n	100031d4 <_ntoa_format+0xce>
1000317c:	9a0f      	ldr	r2, [sp, #60]	; 0x3c
1000317e:	2a10      	cmp	r2, #16
10003180:	d030      	beq.n	100031e4 <_ntoa_format+0xde>
10003182:	9a0f      	ldr	r2, [sp, #60]	; 0x3c
10003184:	2a02      	cmp	r2, #2
10003186:	d035      	beq.n	100031f4 <_ntoa_format+0xee>
10003188:	2c1f      	cmp	r4, #31
1000318a:	d802      	bhi.n	10003192 <_ntoa_format+0x8c>
1000318c:	2230      	movs	r2, #48	; 0x30
1000318e:	552a      	strb	r2, [r5, r4]
10003190:	3401      	adds	r4, #1
10003192:	2c1f      	cmp	r4, #31
10003194:	d805      	bhi.n	100031a2 <_ntoa_format+0x9c>
10003196:	464a      	mov	r2, r9
10003198:	2a00      	cmp	r2, #0
1000319a:	d031      	beq.n	10003200 <_ntoa_format+0xfa>
1000319c:	222d      	movs	r2, #45	; 0x2d
1000319e:	552a      	strb	r2, [r5, r4]
100031a0:	3401      	adds	r4, #1
100031a2:	9603      	str	r6, [sp, #12]
100031a4:	9302      	str	r3, [sp, #8]
100031a6:	9401      	str	r4, [sp, #4]
100031a8:	9500      	str	r5, [sp, #0]
100031aa:	4643      	mov	r3, r8
100031ac:	4662      	mov	r2, ip
100031ae:	f7ff ff53 	bl	10003058 <_out_rev>
100031b2:	b005      	add	sp, #20
100031b4:	bcc0      	pop	{r6, r7}
100031b6:	46b9      	mov	r9, r7
100031b8:	46b0      	mov	r8, r6
100031ba:	bdf0      	pop	{r4, r5, r6, r7, pc}
100031bc:	1e62      	subs	r2, r4, #1
100031be:	2c01      	cmp	r4, #1
100031c0:	d006      	beq.n	100031d0 <_ntoa_format+0xca>
100031c2:	9f0f      	ldr	r7, [sp, #60]	; 0x3c
100031c4:	2f10      	cmp	r7, #16
100031c6:	d001      	beq.n	100031cc <_ntoa_format+0xc6>
100031c8:	0014      	movs	r4, r2
100031ca:	e7d4      	b.n	10003176 <_ntoa_format+0x70>
100031cc:	3c02      	subs	r4, #2
100031ce:	e7d2      	b.n	10003176 <_ntoa_format+0x70>
100031d0:	0014      	movs	r4, r2
100031d2:	e7d0      	b.n	10003176 <_ntoa_format+0x70>
100031d4:	06b2      	lsls	r2, r6, #26
100031d6:	d4d1      	bmi.n	1000317c <_ntoa_format+0x76>
100031d8:	2c1f      	cmp	r4, #31
100031da:	d8cf      	bhi.n	1000317c <_ntoa_format+0x76>
100031dc:	2278      	movs	r2, #120	; 0x78
100031de:	552a      	strb	r2, [r5, r4]
100031e0:	3401      	adds	r4, #1
100031e2:	e7d1      	b.n	10003188 <_ntoa_format+0x82>
100031e4:	06b2      	lsls	r2, r6, #26
100031e6:	d5cc      	bpl.n	10003182 <_ntoa_format+0x7c>
100031e8:	2c1f      	cmp	r4, #31
100031ea:	d8ca      	bhi.n	10003182 <_ntoa_format+0x7c>
100031ec:	2258      	movs	r2, #88	; 0x58
100031ee:	552a      	strb	r2, [r5, r4]
100031f0:	3401      	adds	r4, #1
100031f2:	e7c9      	b.n	10003188 <_ntoa_format+0x82>
100031f4:	2c1f      	cmp	r4, #31
100031f6:	d8c7      	bhi.n	10003188 <_ntoa_format+0x82>
100031f8:	3260      	adds	r2, #96	; 0x60
100031fa:	552a      	strb	r2, [r5, r4]
100031fc:	3401      	adds	r4, #1
100031fe:	e7c3      	b.n	10003188 <_ntoa_format+0x82>
10003200:	0772      	lsls	r2, r6, #29
10003202:	d503      	bpl.n	1000320c <_ntoa_format+0x106>
10003204:	222b      	movs	r2, #43	; 0x2b
10003206:	552a      	strb	r2, [r5, r4]
10003208:	3401      	adds	r4, #1
1000320a:	e7ca      	b.n	100031a2 <_ntoa_format+0x9c>
1000320c:	0732      	lsls	r2, r6, #28
1000320e:	d5c8      	bpl.n	100031a2 <_ntoa_format+0x9c>
10003210:	2220      	movs	r2, #32
10003212:	552a      	strb	r2, [r5, r4]
10003214:	3401      	adds	r4, #1
10003216:	e7c4      	b.n	100031a2 <_ntoa_format+0x9c>

10003218 <_ntoa_long>:
10003218:	b5f0      	push	{r4, r5, r6, r7, lr}
1000321a:	46de      	mov	lr, fp
1000321c:	4657      	mov	r7, sl
1000321e:	464e      	mov	r6, r9
10003220:	4645      	mov	r5, r8
10003222:	b5e0      	push	{r5, r6, r7, lr}
10003224:	b093      	sub	sp, #76	; 0x4c
10003226:	4681      	mov	r9, r0
10003228:	468a      	mov	sl, r1
1000322a:	9208      	str	r2, [sp, #32]
1000322c:	9309      	str	r3, [sp, #36]	; 0x24
1000322e:	ab1c      	add	r3, sp, #112	; 0x70
10003230:	cb10      	ldmia	r3!, {r4}
10003232:	781b      	ldrb	r3, [r3, #0]
10003234:	469b      	mov	fp, r3
10003236:	9d1e      	ldr	r5, [sp, #120]	; 0x78
10003238:	9b21      	ldr	r3, [sp, #132]	; 0x84
1000323a:	4698      	mov	r8, r3
1000323c:	2c00      	cmp	r4, #0
1000323e:	d103      	bne.n	10003248 <_ntoa_long+0x30>
10003240:	2310      	movs	r3, #16
10003242:	4642      	mov	r2, r8
10003244:	439a      	bics	r2, r3
10003246:	4690      	mov	r8, r2
10003248:	2380      	movs	r3, #128	; 0x80
1000324a:	00db      	lsls	r3, r3, #3
1000324c:	4646      	mov	r6, r8
1000324e:	401e      	ands	r6, r3
10003250:	4642      	mov	r2, r8
10003252:	421a      	tst	r2, r3
10003254:	d012      	beq.n	1000327c <_ntoa_long+0x64>
10003256:	2c00      	cmp	r4, #0
10003258:	d022      	beq.n	100032a0 <_ntoa_long+0x88>
1000325a:	2600      	movs	r6, #0
1000325c:	e00e      	b.n	1000327c <_ntoa_long+0x64>
1000325e:	3330      	adds	r3, #48	; 0x30
10003260:	b2d9      	uxtb	r1, r3
10003262:	1c77      	adds	r7, r6, #1
10003264:	ab0a      	add	r3, sp, #40	; 0x28
10003266:	5599      	strb	r1, [r3, r6]
10003268:	0029      	movs	r1, r5
1000326a:	0020      	movs	r0, r4
1000326c:	f000 fff0 	bl	10004250 <__wrap___aeabi_uidiv>
10003270:	42ac      	cmp	r4, r5
10003272:	d316      	bcc.n	100032a2 <_ntoa_long+0x8a>
10003274:	2f1f      	cmp	r7, #31
10003276:	d814      	bhi.n	100032a2 <_ntoa_long+0x8a>
10003278:	003e      	movs	r6, r7
1000327a:	0004      	movs	r4, r0
1000327c:	0029      	movs	r1, r5
1000327e:	0020      	movs	r0, r4
10003280:	f000 ffe6 	bl	10004250 <__wrap___aeabi_uidiv>
10003284:	b2cb      	uxtb	r3, r1
10003286:	2b09      	cmp	r3, #9
10003288:	d9e9      	bls.n	1000325e <_ntoa_long+0x46>
1000328a:	4642      	mov	r2, r8
1000328c:	0692      	lsls	r2, r2, #26
1000328e:	d505      	bpl.n	1000329c <_ntoa_long+0x84>
10003290:	2141      	movs	r1, #65	; 0x41
10003292:	18c9      	adds	r1, r1, r3
10003294:	b2c9      	uxtb	r1, r1
10003296:	390a      	subs	r1, #10
10003298:	b2c9      	uxtb	r1, r1
1000329a:	e7e2      	b.n	10003262 <_ntoa_long+0x4a>
1000329c:	2161      	movs	r1, #97	; 0x61
1000329e:	e7f8      	b.n	10003292 <_ntoa_long+0x7a>
100032a0:	0027      	movs	r7, r4
100032a2:	4643      	mov	r3, r8
100032a4:	9306      	str	r3, [sp, #24]
100032a6:	9b20      	ldr	r3, [sp, #128]	; 0x80
100032a8:	9305      	str	r3, [sp, #20]
100032aa:	9b1f      	ldr	r3, [sp, #124]	; 0x7c
100032ac:	9304      	str	r3, [sp, #16]
100032ae:	9503      	str	r5, [sp, #12]
100032b0:	465b      	mov	r3, fp
100032b2:	9302      	str	r3, [sp, #8]
100032b4:	9701      	str	r7, [sp, #4]
100032b6:	ab0a      	add	r3, sp, #40	; 0x28
100032b8:	9300      	str	r3, [sp, #0]
100032ba:	9b09      	ldr	r3, [sp, #36]	; 0x24
100032bc:	9a08      	ldr	r2, [sp, #32]
100032be:	4651      	mov	r1, sl
100032c0:	4648      	mov	r0, r9
100032c2:	f7ff ff20 	bl	10003106 <_ntoa_format>
100032c6:	b013      	add	sp, #76	; 0x4c
100032c8:	bcf0      	pop	{r4, r5, r6, r7}
100032ca:	46bb      	mov	fp, r7
100032cc:	46b2      	mov	sl, r6
100032ce:	46a9      	mov	r9, r5
100032d0:	46a0      	mov	r8, r4
100032d2:	bdf0      	pop	{r4, r5, r6, r7, pc}

100032d4 <_ntoa_long_long>:
100032d4:	b5f0      	push	{r4, r5, r6, r7, lr}
100032d6:	46de      	mov	lr, fp
100032d8:	4657      	mov	r7, sl
100032da:	464e      	mov	r6, r9
100032dc:	4645      	mov	r5, r8
100032de:	b5e0      	push	{r5, r6, r7, lr}
100032e0:	b095      	sub	sp, #84	; 0x54
100032e2:	9008      	str	r0, [sp, #32]
100032e4:	9109      	str	r1, [sp, #36]	; 0x24
100032e6:	920a      	str	r2, [sp, #40]	; 0x28
100032e8:	930b      	str	r3, [sp, #44]	; 0x2c
100032ea:	9e1e      	ldr	r6, [sp, #120]	; 0x78
100032ec:	9c1f      	ldr	r4, [sp, #124]	; 0x7c
100032ee:	ab20      	add	r3, sp, #128	; 0x80
100032f0:	781b      	ldrb	r3, [r3, #0]
100032f2:	469b      	mov	fp, r3
100032f4:	9b22      	ldr	r3, [sp, #136]	; 0x88
100032f6:	4699      	mov	r9, r3
100032f8:	9d23      	ldr	r5, [sp, #140]	; 0x8c
100032fa:	9b26      	ldr	r3, [sp, #152]	; 0x98
100032fc:	469a      	mov	sl, r3
100032fe:	0033      	movs	r3, r6
10003300:	4323      	orrs	r3, r4
10003302:	d103      	bne.n	1000330c <_ntoa_long_long+0x38>
10003304:	3310      	adds	r3, #16
10003306:	4652      	mov	r2, sl
10003308:	439a      	bics	r2, r3
1000330a:	4692      	mov	sl, r2
1000330c:	2380      	movs	r3, #128	; 0x80
1000330e:	00db      	lsls	r3, r3, #3
10003310:	4657      	mov	r7, sl
10003312:	401f      	ands	r7, r3
10003314:	4652      	mov	r2, sl
10003316:	421a      	tst	r2, r3
10003318:	d019      	beq.n	1000334e <_ntoa_long_long+0x7a>
1000331a:	0033      	movs	r3, r6
1000331c:	4323      	orrs	r3, r4
1000331e:	d02d      	beq.n	1000337c <_ntoa_long_long+0xa8>
10003320:	2700      	movs	r7, #0
10003322:	e014      	b.n	1000334e <_ntoa_long_long+0x7a>
10003324:	3330      	adds	r3, #48	; 0x30
10003326:	b2da      	uxtb	r2, r3
10003328:	1c7b      	adds	r3, r7, #1
1000332a:	4698      	mov	r8, r3
1000332c:	ab0c      	add	r3, sp, #48	; 0x30
1000332e:	55da      	strb	r2, [r3, r7]
10003330:	464a      	mov	r2, r9
10003332:	002b      	movs	r3, r5
10003334:	0030      	movs	r0, r6
10003336:	0021      	movs	r1, r4
10003338:	f000 ffc8 	bl	100042cc <__wrap___aeabi_uldivmod>
1000333c:	42a5      	cmp	r5, r4
1000333e:	d81f      	bhi.n	10003380 <_ntoa_long_long+0xac>
10003340:	d019      	beq.n	10003376 <_ntoa_long_long+0xa2>
10003342:	4643      	mov	r3, r8
10003344:	2b1f      	cmp	r3, #31
10003346:	d81b      	bhi.n	10003380 <_ntoa_long_long+0xac>
10003348:	4647      	mov	r7, r8
1000334a:	0006      	movs	r6, r0
1000334c:	000c      	movs	r4, r1
1000334e:	464a      	mov	r2, r9
10003350:	002b      	movs	r3, r5
10003352:	0030      	movs	r0, r6
10003354:	0021      	movs	r1, r4
10003356:	f000 ffb9 	bl	100042cc <__wrap___aeabi_uldivmod>
1000335a:	b2d3      	uxtb	r3, r2
1000335c:	2b09      	cmp	r3, #9
1000335e:	d9e1      	bls.n	10003324 <_ntoa_long_long+0x50>
10003360:	4652      	mov	r2, sl
10003362:	0692      	lsls	r2, r2, #26
10003364:	d505      	bpl.n	10003372 <_ntoa_long_long+0x9e>
10003366:	2241      	movs	r2, #65	; 0x41
10003368:	18d2      	adds	r2, r2, r3
1000336a:	b2d2      	uxtb	r2, r2
1000336c:	3a0a      	subs	r2, #10
1000336e:	b2d2      	uxtb	r2, r2
10003370:	e7da      	b.n	10003328 <_ntoa_long_long+0x54>
10003372:	2261      	movs	r2, #97	; 0x61
10003374:	e7f8      	b.n	10003368 <_ntoa_long_long+0x94>
10003376:	45b1      	cmp	r9, r6
10003378:	d9e3      	bls.n	10003342 <_ntoa_long_long+0x6e>
1000337a:	e001      	b.n	10003380 <_ntoa_long_long+0xac>
1000337c:	2300      	movs	r3, #0
1000337e:	4698      	mov	r8, r3
10003380:	4653      	mov	r3, sl
10003382:	9306      	str	r3, [sp, #24]
10003384:	9b25      	ldr	r3, [sp, #148]	; 0x94
10003386:	9305      	str	r3, [sp, #20]
10003388:	9b24      	ldr	r3, [sp, #144]	; 0x90
1000338a:	9304      	str	r3, [sp, #16]
1000338c:	464b      	mov	r3, r9
1000338e:	9303      	str	r3, [sp, #12]
10003390:	465b      	mov	r3, fp
10003392:	9302      	str	r3, [sp, #8]
10003394:	4643      	mov	r3, r8
10003396:	9301      	str	r3, [sp, #4]
10003398:	ab0c      	add	r3, sp, #48	; 0x30
1000339a:	9300      	str	r3, [sp, #0]
1000339c:	9b0b      	ldr	r3, [sp, #44]	; 0x2c
1000339e:	9a0a      	ldr	r2, [sp, #40]	; 0x28
100033a0:	9909      	ldr	r1, [sp, #36]	; 0x24
100033a2:	9808      	ldr	r0, [sp, #32]
100033a4:	f7ff feaf 	bl	10003106 <_ntoa_format>
100033a8:	b015      	add	sp, #84	; 0x54
100033aa:	bcf0      	pop	{r4, r5, r6, r7}
100033ac:	46bb      	mov	fp, r7
100033ae:	46b2      	mov	sl, r6
100033b0:	46a9      	mov	r9, r5
100033b2:	46a0      	mov	r8, r4
100033b4:	bdf0      	pop	{r4, r5, r6, r7, pc}
	...

100033b8 <_etoa>:
100033b8:	b5f0      	push	{r4, r5, r6, r7, lr}
100033ba:	46de      	mov	lr, fp
100033bc:	4657      	mov	r7, sl
100033be:	464e      	mov	r6, r9
100033c0:	4645      	mov	r5, r8
100033c2:	b5e0      	push	{r5, r6, r7, lr}
100033c4:	b091      	sub	sp, #68	; 0x44
100033c6:	4683      	mov	fp, r0
100033c8:	468a      	mov	sl, r1
100033ca:	920c      	str	r2, [sp, #48]	; 0x30
100033cc:	4698      	mov	r8, r3
100033ce:	9c1a      	ldr	r4, [sp, #104]	; 0x68
100033d0:	9408      	str	r4, [sp, #32]
100033d2:	9d1b      	ldr	r5, [sp, #108]	; 0x6c
100033d4:	9509      	str	r5, [sp, #36]	; 0x24
100033d6:	0022      	movs	r2, r4
100033d8:	002b      	movs	r3, r5
100033da:	0020      	movs	r0, r4
100033dc:	0029      	movs	r1, r5
100033de:	f001 f9f8 	bl	100047d2 <__wrap___aeabi_dcmpun>
100033e2:	2800      	cmp	r0, #0
100033e4:	d000      	beq.n	100033e8 <_etoa+0x30>
100033e6:	e0e5      	b.n	100035b4 <_etoa+0x1fc>
100033e8:	2201      	movs	r2, #1
100033ea:	4252      	negs	r2, r2
100033ec:	4bd7      	ldr	r3, [pc, #860]	; (1000374c <_etoa+0x394>)
100033ee:	0020      	movs	r0, r4
100033f0:	0029      	movs	r1, r5
100033f2:	f001 f9e9 	bl	100047c8 <__wrap___aeabi_dcmpgt>
100033f6:	2800      	cmp	r0, #0
100033f8:	d000      	beq.n	100033fc <_etoa+0x44>
100033fa:	e0db      	b.n	100035b4 <_etoa+0x1fc>
100033fc:	2201      	movs	r2, #1
100033fe:	4252      	negs	r2, r2
10003400:	4bd3      	ldr	r3, [pc, #844]	; (10003750 <_etoa+0x398>)
10003402:	0020      	movs	r0, r4
10003404:	0029      	movs	r1, r5
10003406:	f001 f9c9 	bl	1000479c <__wrap___aeabi_dcmplt>
1000340a:	2800      	cmp	r0, #0
1000340c:	d000      	beq.n	10003410 <_etoa+0x58>
1000340e:	e0d1      	b.n	100035b4 <_etoa+0x1fc>
10003410:	2200      	movs	r2, #0
10003412:	2300      	movs	r3, #0
10003414:	9e08      	ldr	r6, [sp, #32]
10003416:	0030      	movs	r0, r6
10003418:	9d09      	ldr	r5, [sp, #36]	; 0x24
1000341a:	0029      	movs	r1, r5
1000341c:	f001 f9be 	bl	1000479c <__wrap___aeabi_dcmplt>
10003420:	2800      	cmp	r0, #0
10003422:	d000      	beq.n	10003426 <_etoa+0x6e>
10003424:	e0dd      	b.n	100035e2 <_etoa+0x22a>
10003426:	9808      	ldr	r0, [sp, #32]
10003428:	9909      	ldr	r1, [sp, #36]	; 0x24
1000342a:	9006      	str	r0, [sp, #24]
1000342c:	9107      	str	r1, [sp, #28]
1000342e:	2380      	movs	r3, #128	; 0x80
10003430:	00db      	lsls	r3, r3, #3
10003432:	9a1e      	ldr	r2, [sp, #120]	; 0x78
10003434:	401a      	ands	r2, r3
10003436:	920d      	str	r2, [sp, #52]	; 0x34
10003438:	9a1e      	ldr	r2, [sp, #120]	; 0x78
1000343a:	421a      	tst	r2, r3
1000343c:	d101      	bne.n	10003442 <_etoa+0x8a>
1000343e:	2306      	movs	r3, #6
10003440:	931c      	str	r3, [sp, #112]	; 0x70
10003442:	9806      	ldr	r0, [sp, #24]
10003444:	9907      	ldr	r1, [sp, #28]
10003446:	0004      	movs	r4, r0
10003448:	000d      	movs	r5, r1
1000344a:	000a      	movs	r2, r1
1000344c:	0006      	movs	r6, r0
1000344e:	4302      	orrs	r2, r0
10003450:	d100      	bne.n	10003454 <_etoa+0x9c>
10003452:	e0d1      	b.n	100035f8 <_etoa+0x240>
10003454:	0d08      	lsrs	r0, r1, #20
10003456:	0540      	lsls	r0, r0, #21
10003458:	0d40      	lsrs	r0, r0, #21
1000345a:	4cbe      	ldr	r4, [pc, #760]	; (10003754 <_etoa+0x39c>)
1000345c:	46a4      	mov	ip, r4
1000345e:	4460      	add	r0, ip
10003460:	030a      	lsls	r2, r1, #12
10003462:	0b12      	lsrs	r2, r2, #12
10003464:	4bbc      	ldr	r3, [pc, #752]	; (10003758 <_etoa+0x3a0>)
10003466:	4313      	orrs	r3, r2
10003468:	001f      	movs	r7, r3
1000346a:	f001 f9c5 	bl	100047f8 <__wrap___aeabi_i2d>
1000346e:	4abb      	ldr	r2, [pc, #748]	; (1000375c <_etoa+0x3a4>)
10003470:	4bbb      	ldr	r3, [pc, #748]	; (10003760 <_etoa+0x3a8>)
10003472:	f001 f94c 	bl	1000470e <__wrap___aeabi_dmul>
10003476:	4abb      	ldr	r2, [pc, #748]	; (10003764 <_etoa+0x3ac>)
10003478:	4bbb      	ldr	r3, [pc, #748]	; (10003768 <_etoa+0x3b0>)
1000347a:	f001 f929 	bl	100046d0 <__wrap___aeabi_dadd>
1000347e:	0004      	movs	r4, r0
10003480:	000d      	movs	r5, r1
10003482:	2200      	movs	r2, #0
10003484:	4bb9      	ldr	r3, [pc, #740]	; (1000376c <_etoa+0x3b4>)
10003486:	0030      	movs	r0, r6
10003488:	0039      	movs	r1, r7
1000348a:	f001 f91c 	bl	100046c6 <__wrap___aeabi_dsub>
1000348e:	4ab8      	ldr	r2, [pc, #736]	; (10003770 <_etoa+0x3b8>)
10003490:	4bb8      	ldr	r3, [pc, #736]	; (10003774 <_etoa+0x3bc>)
10003492:	f001 f93c 	bl	1000470e <__wrap___aeabi_dmul>
10003496:	0002      	movs	r2, r0
10003498:	000b      	movs	r3, r1
1000349a:	0020      	movs	r0, r4
1000349c:	0029      	movs	r1, r5
1000349e:	f001 f917 	bl	100046d0 <__wrap___aeabi_dadd>
100034a2:	f001 f9c1 	bl	10004828 <__wrap___aeabi_d2iz>
100034a6:	4681      	mov	r9, r0
100034a8:	f001 f9a6 	bl	100047f8 <__wrap___aeabi_i2d>
100034ac:	0004      	movs	r4, r0
100034ae:	000d      	movs	r5, r1
100034b0:	4ab1      	ldr	r2, [pc, #708]	; (10003778 <_etoa+0x3c0>)
100034b2:	4bb2      	ldr	r3, [pc, #712]	; (1000377c <_etoa+0x3c4>)
100034b4:	f001 f92b 	bl	1000470e <__wrap___aeabi_dmul>
100034b8:	2200      	movs	r2, #0
100034ba:	4bb1      	ldr	r3, [pc, #708]	; (10003780 <_etoa+0x3c8>)
100034bc:	f001 f908 	bl	100046d0 <__wrap___aeabi_dadd>
100034c0:	f001 f9b2 	bl	10004828 <__wrap___aeabi_d2iz>
100034c4:	0006      	movs	r6, r0
100034c6:	4aaf      	ldr	r2, [pc, #700]	; (10003784 <_etoa+0x3cc>)
100034c8:	4baf      	ldr	r3, [pc, #700]	; (10003788 <_etoa+0x3d0>)
100034ca:	0020      	movs	r0, r4
100034cc:	0029      	movs	r1, r5
100034ce:	f001 f91e 	bl	1000470e <__wrap___aeabi_dmul>
100034d2:	0004      	movs	r4, r0
100034d4:	000d      	movs	r5, r1
100034d6:	0030      	movs	r0, r6
100034d8:	f001 f98e 	bl	100047f8 <__wrap___aeabi_i2d>
100034dc:	4aab      	ldr	r2, [pc, #684]	; (1000378c <_etoa+0x3d4>)
100034de:	4bac      	ldr	r3, [pc, #688]	; (10003790 <_etoa+0x3d8>)
100034e0:	f001 f915 	bl	1000470e <__wrap___aeabi_dmul>
100034e4:	0002      	movs	r2, r0
100034e6:	000b      	movs	r3, r1
100034e8:	0020      	movs	r0, r4
100034ea:	0029      	movs	r1, r5
100034ec:	f001 f8eb 	bl	100046c6 <__wrap___aeabi_dsub>
100034f0:	0004      	movs	r4, r0
100034f2:	000d      	movs	r5, r1
100034f4:	0002      	movs	r2, r0
100034f6:	000b      	movs	r3, r1
100034f8:	f001 f909 	bl	1000470e <__wrap___aeabi_dmul>
100034fc:	900a      	str	r0, [sp, #40]	; 0x28
100034fe:	910b      	str	r1, [sp, #44]	; 0x2c
10003500:	4ba4      	ldr	r3, [pc, #656]	; (10003794 <_etoa+0x3dc>)
10003502:	18f3      	adds	r3, r6, r3
10003504:	2600      	movs	r6, #0
10003506:	051f      	lsls	r7, r3, #20
10003508:	0022      	movs	r2, r4
1000350a:	002b      	movs	r3, r5
1000350c:	0020      	movs	r0, r4
1000350e:	0029      	movs	r1, r5
10003510:	f001 f8de 	bl	100046d0 <__wrap___aeabi_dadd>
10003514:	900e      	str	r0, [sp, #56]	; 0x38
10003516:	910f      	str	r1, [sp, #60]	; 0x3c
10003518:	0022      	movs	r2, r4
1000351a:	002b      	movs	r3, r5
1000351c:	2000      	movs	r0, #0
1000351e:	2180      	movs	r1, #128	; 0x80
10003520:	05c9      	lsls	r1, r1, #23
10003522:	f001 f8d0 	bl	100046c6 <__wrap___aeabi_dsub>
10003526:	0004      	movs	r4, r0
10003528:	000d      	movs	r5, r1
1000352a:	2200      	movs	r2, #0
1000352c:	4b9a      	ldr	r3, [pc, #616]	; (10003798 <_etoa+0x3e0>)
1000352e:	980a      	ldr	r0, [sp, #40]	; 0x28
10003530:	990b      	ldr	r1, [sp, #44]	; 0x2c
10003532:	f001 f8d2 	bl	100046da <__wrap___aeabi_ddiv>
10003536:	2200      	movs	r2, #0
10003538:	4b98      	ldr	r3, [pc, #608]	; (1000379c <_etoa+0x3e4>)
1000353a:	f001 f8c9 	bl	100046d0 <__wrap___aeabi_dadd>
1000353e:	0002      	movs	r2, r0
10003540:	000b      	movs	r3, r1
10003542:	980a      	ldr	r0, [sp, #40]	; 0x28
10003544:	990b      	ldr	r1, [sp, #44]	; 0x2c
10003546:	f001 f8c8 	bl	100046da <__wrap___aeabi_ddiv>
1000354a:	2200      	movs	r2, #0
1000354c:	4b94      	ldr	r3, [pc, #592]	; (100037a0 <_etoa+0x3e8>)
1000354e:	f001 f8bf 	bl	100046d0 <__wrap___aeabi_dadd>
10003552:	0002      	movs	r2, r0
10003554:	000b      	movs	r3, r1
10003556:	980a      	ldr	r0, [sp, #40]	; 0x28
10003558:	990b      	ldr	r1, [sp, #44]	; 0x2c
1000355a:	f001 f8be 	bl	100046da <__wrap___aeabi_ddiv>
1000355e:	0002      	movs	r2, r0
10003560:	000b      	movs	r3, r1
10003562:	0020      	movs	r0, r4
10003564:	0029      	movs	r1, r5
10003566:	f001 f8b3 	bl	100046d0 <__wrap___aeabi_dadd>
1000356a:	0002      	movs	r2, r0
1000356c:	000b      	movs	r3, r1
1000356e:	980e      	ldr	r0, [sp, #56]	; 0x38
10003570:	990f      	ldr	r1, [sp, #60]	; 0x3c
10003572:	f001 f8b2 	bl	100046da <__wrap___aeabi_ddiv>
10003576:	2200      	movs	r2, #0
10003578:	4b77      	ldr	r3, [pc, #476]	; (10003758 <_etoa+0x3a0>)
1000357a:	f001 f8a9 	bl	100046d0 <__wrap___aeabi_dadd>
1000357e:	0032      	movs	r2, r6
10003580:	003b      	movs	r3, r7
10003582:	f001 f8c4 	bl	1000470e <__wrap___aeabi_dmul>
10003586:	0006      	movs	r6, r0
10003588:	000f      	movs	r7, r1
1000358a:	0004      	movs	r4, r0
1000358c:	000d      	movs	r5, r1
1000358e:	9a06      	ldr	r2, [sp, #24]
10003590:	9b07      	ldr	r3, [sp, #28]
10003592:	f001 f919 	bl	100047c8 <__wrap___aeabi_dcmpgt>
10003596:	2800      	cmp	r0, #0
10003598:	d030      	beq.n	100035fc <_etoa+0x244>
1000359a:	2301      	movs	r3, #1
1000359c:	425b      	negs	r3, r3
1000359e:	469c      	mov	ip, r3
100035a0:	44e1      	add	r9, ip
100035a2:	2200      	movs	r2, #0
100035a4:	4b7d      	ldr	r3, [pc, #500]	; (1000379c <_etoa+0x3e4>)
100035a6:	0030      	movs	r0, r6
100035a8:	0039      	movs	r1, r7
100035aa:	f001 f896 	bl	100046da <__wrap___aeabi_ddiv>
100035ae:	0004      	movs	r4, r0
100035b0:	000d      	movs	r5, r1
100035b2:	e023      	b.n	100035fc <_etoa+0x244>
100035b4:	9b1e      	ldr	r3, [sp, #120]	; 0x78
100035b6:	9304      	str	r3, [sp, #16]
100035b8:	9b1d      	ldr	r3, [sp, #116]	; 0x74
100035ba:	9303      	str	r3, [sp, #12]
100035bc:	9b1c      	ldr	r3, [sp, #112]	; 0x70
100035be:	9302      	str	r3, [sp, #8]
100035c0:	9a08      	ldr	r2, [sp, #32]
100035c2:	9b09      	ldr	r3, [sp, #36]	; 0x24
100035c4:	9200      	str	r2, [sp, #0]
100035c6:	9301      	str	r3, [sp, #4]
100035c8:	4643      	mov	r3, r8
100035ca:	9a0c      	ldr	r2, [sp, #48]	; 0x30
100035cc:	4651      	mov	r1, sl
100035ce:	4658      	mov	r0, fp
100035d0:	f000 f8fc 	bl	100037cc <_ftoa>
100035d4:	b011      	add	sp, #68	; 0x44
100035d6:	bcf0      	pop	{r4, r5, r6, r7}
100035d8:	46bb      	mov	fp, r7
100035da:	46b2      	mov	sl, r6
100035dc:	46a9      	mov	r9, r5
100035de:	46a0      	mov	r8, r4
100035e0:	bdf0      	pop	{r4, r5, r6, r7, pc}
100035e2:	2300      	movs	r3, #0
100035e4:	2400      	movs	r4, #0
100035e6:	9306      	str	r3, [sp, #24]
100035e8:	9407      	str	r4, [sp, #28]
100035ea:	9606      	str	r6, [sp, #24]
100035ec:	2380      	movs	r3, #128	; 0x80
100035ee:	061b      	lsls	r3, r3, #24
100035f0:	469c      	mov	ip, r3
100035f2:	4465      	add	r5, ip
100035f4:	9507      	str	r5, [sp, #28]
100035f6:	e71a      	b.n	1000342e <_etoa+0x76>
100035f8:	2300      	movs	r3, #0
100035fa:	4699      	mov	r9, r3
100035fc:	464b      	mov	r3, r9
100035fe:	3363      	adds	r3, #99	; 0x63
10003600:	2bc6      	cmp	r3, #198	; 0xc6
10003602:	d81e      	bhi.n	10003642 <_etoa+0x28a>
10003604:	2604      	movs	r6, #4
10003606:	9b1e      	ldr	r3, [sp, #120]	; 0x78
10003608:	051b      	lsls	r3, r3, #20
1000360a:	d526      	bpl.n	1000365a <_etoa+0x2a2>
1000360c:	002b      	movs	r3, r5
1000360e:	4323      	orrs	r3, r4
10003610:	d00f      	beq.n	10003632 <_etoa+0x27a>
10003612:	4a64      	ldr	r2, [pc, #400]	; (100037a4 <_etoa+0x3ec>)
10003614:	4b64      	ldr	r3, [pc, #400]	; (100037a8 <_etoa+0x3f0>)
10003616:	9806      	ldr	r0, [sp, #24]
10003618:	9907      	ldr	r1, [sp, #28]
1000361a:	f001 f8cd 	bl	100047b8 <__wrap___aeabi_dcmpge>
1000361e:	2800      	cmp	r0, #0
10003620:	d079      	beq.n	10003716 <_etoa+0x35e>
10003622:	2200      	movs	r2, #0
10003624:	4b61      	ldr	r3, [pc, #388]	; (100037ac <_etoa+0x3f4>)
10003626:	9806      	ldr	r0, [sp, #24]
10003628:	9907      	ldr	r1, [sp, #28]
1000362a:	f001 f8b7 	bl	1000479c <__wrap___aeabi_dcmplt>
1000362e:	2800      	cmp	r0, #0
10003630:	d071      	beq.n	10003716 <_etoa+0x35e>
10003632:	9b1c      	ldr	r3, [sp, #112]	; 0x70
10003634:	454b      	cmp	r3, r9
10003636:	dd06      	ble.n	10003646 <_etoa+0x28e>
10003638:	464a      	mov	r2, r9
1000363a:	1a98      	subs	r0, r3, r2
1000363c:	1e43      	subs	r3, r0, #1
1000363e:	931c      	str	r3, [sp, #112]	; 0x70
10003640:	e003      	b.n	1000364a <_etoa+0x292>
10003642:	2605      	movs	r6, #5
10003644:	e7df      	b.n	10003606 <_etoa+0x24e>
10003646:	2300      	movs	r3, #0
10003648:	931c      	str	r3, [sp, #112]	; 0x70
1000364a:	2380      	movs	r3, #128	; 0x80
1000364c:	00db      	lsls	r3, r3, #3
1000364e:	9a1e      	ldr	r2, [sp, #120]	; 0x78
10003650:	431a      	orrs	r2, r3
10003652:	921e      	str	r2, [sp, #120]	; 0x78
10003654:	2600      	movs	r6, #0
10003656:	2300      	movs	r3, #0
10003658:	4699      	mov	r9, r3
1000365a:	9b1d      	ldr	r3, [sp, #116]	; 0x74
1000365c:	429e      	cmp	r6, r3
1000365e:	d264      	bcs.n	1000372a <_etoa+0x372>
10003660:	1b9f      	subs	r7, r3, r6
10003662:	2302      	movs	r3, #2
10003664:	9a1e      	ldr	r2, [sp, #120]	; 0x78
10003666:	401a      	ands	r2, r3
10003668:	920a      	str	r2, [sp, #40]	; 0x28
1000366a:	9a1e      	ldr	r2, [sp, #120]	; 0x78
1000366c:	4213      	tst	r3, r2
1000366e:	d002      	beq.n	10003676 <_etoa+0x2be>
10003670:	2e00      	cmp	r6, #0
10003672:	d000      	beq.n	10003676 <_etoa+0x2be>
10003674:	2700      	movs	r7, #0
10003676:	464b      	mov	r3, r9
10003678:	2b00      	cmp	r3, #0
1000367a:	d007      	beq.n	1000368c <_etoa+0x2d4>
1000367c:	0022      	movs	r2, r4
1000367e:	002b      	movs	r3, r5
10003680:	9806      	ldr	r0, [sp, #24]
10003682:	9907      	ldr	r1, [sp, #28]
10003684:	f001 f829 	bl	100046da <__wrap___aeabi_ddiv>
10003688:	9006      	str	r0, [sp, #24]
1000368a:	9107      	str	r1, [sp, #28]
1000368c:	2200      	movs	r2, #0
1000368e:	2300      	movs	r3, #0
10003690:	9808      	ldr	r0, [sp, #32]
10003692:	9909      	ldr	r1, [sp, #36]	; 0x24
10003694:	f001 f882 	bl	1000479c <__wrap___aeabi_dcmplt>
10003698:	2800      	cmp	r0, #0
1000369a:	d148      	bne.n	1000372e <_etoa+0x376>
1000369c:	4b44      	ldr	r3, [pc, #272]	; (100037b0 <_etoa+0x3f8>)
1000369e:	9a1e      	ldr	r2, [sp, #120]	; 0x78
100036a0:	4013      	ands	r3, r2
100036a2:	9304      	str	r3, [sp, #16]
100036a4:	9703      	str	r7, [sp, #12]
100036a6:	9b1c      	ldr	r3, [sp, #112]	; 0x70
100036a8:	9302      	str	r3, [sp, #8]
100036aa:	9b06      	ldr	r3, [sp, #24]
100036ac:	9c07      	ldr	r4, [sp, #28]
100036ae:	9300      	str	r3, [sp, #0]
100036b0:	9401      	str	r4, [sp, #4]
100036b2:	4643      	mov	r3, r8
100036b4:	9a0c      	ldr	r2, [sp, #48]	; 0x30
100036b6:	4651      	mov	r1, sl
100036b8:	4658      	mov	r0, fp
100036ba:	f000 f887 	bl	100037cc <_ftoa>
100036be:	2e00      	cmp	r6, #0
100036c0:	d100      	bne.n	100036c4 <_etoa+0x30c>
100036c2:	e787      	b.n	100035d4 <_etoa+0x21c>
100036c4:	9b1e      	ldr	r3, [sp, #120]	; 0x78
100036c6:	069b      	lsls	r3, r3, #26
100036c8:	d53d      	bpl.n	10003746 <_etoa+0x38e>
100036ca:	2545      	movs	r5, #69	; 0x45
100036cc:	1c44      	adds	r4, r0, #1
100036ce:	4643      	mov	r3, r8
100036d0:	0002      	movs	r2, r0
100036d2:	4651      	mov	r1, sl
100036d4:	0028      	movs	r0, r5
100036d6:	47d8      	blx	fp
100036d8:	464b      	mov	r3, r9
100036da:	17da      	asrs	r2, r3, #31
100036dc:	189b      	adds	r3, r3, r2
100036de:	4053      	eors	r3, r2
100036e0:	2205      	movs	r2, #5
100036e2:	9205      	str	r2, [sp, #20]
100036e4:	3e01      	subs	r6, #1
100036e6:	9604      	str	r6, [sp, #16]
100036e8:	2200      	movs	r2, #0
100036ea:	9203      	str	r2, [sp, #12]
100036ec:	320a      	adds	r2, #10
100036ee:	9202      	str	r2, [sp, #8]
100036f0:	464a      	mov	r2, r9
100036f2:	0fd0      	lsrs	r0, r2, #31
100036f4:	9001      	str	r0, [sp, #4]
100036f6:	9300      	str	r3, [sp, #0]
100036f8:	4643      	mov	r3, r8
100036fa:	0022      	movs	r2, r4
100036fc:	4651      	mov	r1, sl
100036fe:	4658      	mov	r0, fp
10003700:	f7ff fd8a 	bl	10003218 <_ntoa_long>
10003704:	9b0a      	ldr	r3, [sp, #40]	; 0x28
10003706:	2b00      	cmp	r3, #0
10003708:	d100      	bne.n	1000370c <_etoa+0x354>
1000370a:	e763      	b.n	100035d4 <_etoa+0x21c>
1000370c:	0002      	movs	r2, r0
1000370e:	465f      	mov	r7, fp
10003710:	9e0c      	ldr	r6, [sp, #48]	; 0x30
10003712:	9d1d      	ldr	r5, [sp, #116]	; 0x74
10003714:	e054      	b.n	100037c0 <_etoa+0x408>
10003716:	9b1c      	ldr	r3, [sp, #112]	; 0x70
10003718:	2b00      	cmp	r3, #0
1000371a:	d09e      	beq.n	1000365a <_etoa+0x2a2>
1000371c:	9b0d      	ldr	r3, [sp, #52]	; 0x34
1000371e:	2b00      	cmp	r3, #0
10003720:	d09b      	beq.n	1000365a <_etoa+0x2a2>
10003722:	9b1c      	ldr	r3, [sp, #112]	; 0x70
10003724:	3b01      	subs	r3, #1
10003726:	931c      	str	r3, [sp, #112]	; 0x70
10003728:	e797      	b.n	1000365a <_etoa+0x2a2>
1000372a:	2700      	movs	r7, #0
1000372c:	e799      	b.n	10003662 <_etoa+0x2aa>
1000372e:	9c06      	ldr	r4, [sp, #24]
10003730:	9d07      	ldr	r5, [sp, #28]
10003732:	0022      	movs	r2, r4
10003734:	0029      	movs	r1, r5
10003736:	2080      	movs	r0, #128	; 0x80
10003738:	0600      	lsls	r0, r0, #24
1000373a:	4684      	mov	ip, r0
1000373c:	4461      	add	r1, ip
1000373e:	000b      	movs	r3, r1
10003740:	9206      	str	r2, [sp, #24]
10003742:	9307      	str	r3, [sp, #28]
10003744:	e7aa      	b.n	1000369c <_etoa+0x2e4>
10003746:	2565      	movs	r5, #101	; 0x65
10003748:	e7c0      	b.n	100036cc <_etoa+0x314>
1000374a:	46c0      	nop			; (mov r8, r8)
1000374c:	7fefffff 	.word	0x7fefffff
10003750:	ffefffff 	.word	0xffefffff
10003754:	fffffc01 	.word	0xfffffc01
10003758:	3ff00000 	.word	0x3ff00000
1000375c:	509f79fb 	.word	0x509f79fb
10003760:	3fd34413 	.word	0x3fd34413
10003764:	8b60c8b3 	.word	0x8b60c8b3
10003768:	3fc68a28 	.word	0x3fc68a28
1000376c:	3ff80000 	.word	0x3ff80000
10003770:	636f4361 	.word	0x636f4361
10003774:	3fd287a7 	.word	0x3fd287a7
10003778:	0979a371 	.word	0x0979a371
1000377c:	400a934f 	.word	0x400a934f
10003780:	3fe00000 	.word	0x3fe00000
10003784:	bbb55516 	.word	0xbbb55516
10003788:	40026bb1 	.word	0x40026bb1
1000378c:	fefa39ef 	.word	0xfefa39ef
10003790:	3fe62e42 	.word	0x3fe62e42
10003794:	000003ff 	.word	0x000003ff
10003798:	402c0000 	.word	0x402c0000
1000379c:	40240000 	.word	0x40240000
100037a0:	40180000 	.word	0x40180000
100037a4:	eb1c432d 	.word	0xeb1c432d
100037a8:	3f1a36e2 	.word	0x3f1a36e2
100037ac:	412e8480 	.word	0x412e8480
100037b0:	fffff7ff 	.word	0xfffff7ff
100037b4:	1c54      	adds	r4, r2, #1
100037b6:	4643      	mov	r3, r8
100037b8:	4651      	mov	r1, sl
100037ba:	2020      	movs	r0, #32
100037bc:	47b8      	blx	r7
100037be:	0022      	movs	r2, r4
100037c0:	1b93      	subs	r3, r2, r6
100037c2:	42ab      	cmp	r3, r5
100037c4:	d3f6      	bcc.n	100037b4 <_etoa+0x3fc>
100037c6:	0010      	movs	r0, r2
100037c8:	e704      	b.n	100035d4 <_etoa+0x21c>
100037ca:	46c0      	nop			; (mov r8, r8)

100037cc <_ftoa>:
100037cc:	b5f0      	push	{r4, r5, r6, r7, lr}
100037ce:	46de      	mov	lr, fp
100037d0:	4657      	mov	r7, sl
100037d2:	464e      	mov	r6, r9
100037d4:	4645      	mov	r5, r8
100037d6:	b5e0      	push	{r5, r6, r7, lr}
100037d8:	b095      	sub	sp, #84	; 0x54
100037da:	9006      	str	r0, [sp, #24]
100037dc:	9107      	str	r1, [sp, #28]
100037de:	4693      	mov	fp, r2
100037e0:	4699      	mov	r9, r3
100037e2:	9f20      	ldr	r7, [sp, #128]	; 0x80
100037e4:	9a1e      	ldr	r2, [sp, #120]	; 0x78
100037e6:	9b1f      	ldr	r3, [sp, #124]	; 0x7c
100037e8:	0010      	movs	r0, r2
100037ea:	0019      	movs	r1, r3
100037ec:	f000 fff1 	bl	100047d2 <__wrap___aeabi_dcmpun>
100037f0:	2800      	cmp	r0, #0
100037f2:	d131      	bne.n	10003858 <_ftoa+0x8c>
100037f4:	2201      	movs	r2, #1
100037f6:	4252      	negs	r2, r2
100037f8:	4bbf      	ldr	r3, [pc, #764]	; (10003af8 <_ftoa+0x32c>)
100037fa:	981e      	ldr	r0, [sp, #120]	; 0x78
100037fc:	991f      	ldr	r1, [sp, #124]	; 0x7c
100037fe:	f000 ffcd 	bl	1000479c <__wrap___aeabi_dcmplt>
10003802:	2800      	cmp	r0, #0
10003804:	d137      	bne.n	10003876 <_ftoa+0xaa>
10003806:	2201      	movs	r2, #1
10003808:	4252      	negs	r2, r2
1000380a:	4bbc      	ldr	r3, [pc, #752]	; (10003afc <_ftoa+0x330>)
1000380c:	981e      	ldr	r0, [sp, #120]	; 0x78
1000380e:	991f      	ldr	r1, [sp, #124]	; 0x7c
10003810:	f000 ffda 	bl	100047c8 <__wrap___aeabi_dcmpgt>
10003814:	2800      	cmp	r0, #0
10003816:	d13d      	bne.n	10003894 <_ftoa+0xc8>
10003818:	2200      	movs	r2, #0
1000381a:	4bb9      	ldr	r3, [pc, #740]	; (10003b00 <_ftoa+0x334>)
1000381c:	981e      	ldr	r0, [sp, #120]	; 0x78
1000381e:	991f      	ldr	r1, [sp, #124]	; 0x7c
10003820:	f000 ffd2 	bl	100047c8 <__wrap___aeabi_dcmpgt>
10003824:	2800      	cmp	r0, #0
10003826:	d150      	bne.n	100038ca <_ftoa+0xfe>
10003828:	2200      	movs	r2, #0
1000382a:	4bb6      	ldr	r3, [pc, #728]	; (10003b04 <_ftoa+0x338>)
1000382c:	981e      	ldr	r0, [sp, #120]	; 0x78
1000382e:	991f      	ldr	r1, [sp, #124]	; 0x7c
10003830:	f000 ffb4 	bl	1000479c <__wrap___aeabi_dcmplt>
10003834:	2800      	cmp	r0, #0
10003836:	d148      	bne.n	100038ca <_ftoa+0xfe>
10003838:	2200      	movs	r2, #0
1000383a:	2300      	movs	r3, #0
1000383c:	981e      	ldr	r0, [sp, #120]	; 0x78
1000383e:	991f      	ldr	r1, [sp, #124]	; 0x7c
10003840:	f000 ffac 	bl	1000479c <__wrap___aeabi_dcmplt>
10003844:	2800      	cmp	r0, #0
10003846:	d150      	bne.n	100038ea <_ftoa+0x11e>
10003848:	2300      	movs	r3, #0
1000384a:	4698      	mov	r8, r3
1000384c:	9b22      	ldr	r3, [sp, #136]	; 0x88
1000384e:	055b      	lsls	r3, r3, #21
10003850:	d400      	bmi.n	10003854 <_ftoa+0x88>
10003852:	e0b6      	b.n	100039c2 <_ftoa+0x1f6>
10003854:	2400      	movs	r4, #0
10003856:	e058      	b.n	1000390a <_ftoa+0x13e>
10003858:	9b22      	ldr	r3, [sp, #136]	; 0x88
1000385a:	9303      	str	r3, [sp, #12]
1000385c:	9b21      	ldr	r3, [sp, #132]	; 0x84
1000385e:	9302      	str	r3, [sp, #8]
10003860:	2303      	movs	r3, #3
10003862:	9301      	str	r3, [sp, #4]
10003864:	4ba8      	ldr	r3, [pc, #672]	; (10003b08 <_ftoa+0x33c>)
10003866:	9300      	str	r3, [sp, #0]
10003868:	464b      	mov	r3, r9
1000386a:	465a      	mov	r2, fp
1000386c:	9907      	ldr	r1, [sp, #28]
1000386e:	9806      	ldr	r0, [sp, #24]
10003870:	f7ff fbf2 	bl	10003058 <_out_rev>
10003874:	e10e      	b.n	10003a94 <_ftoa+0x2c8>
10003876:	9b22      	ldr	r3, [sp, #136]	; 0x88
10003878:	9303      	str	r3, [sp, #12]
1000387a:	9b21      	ldr	r3, [sp, #132]	; 0x84
1000387c:	9302      	str	r3, [sp, #8]
1000387e:	2304      	movs	r3, #4
10003880:	9301      	str	r3, [sp, #4]
10003882:	4ba2      	ldr	r3, [pc, #648]	; (10003b0c <_ftoa+0x340>)
10003884:	9300      	str	r3, [sp, #0]
10003886:	464b      	mov	r3, r9
10003888:	465a      	mov	r2, fp
1000388a:	9907      	ldr	r1, [sp, #28]
1000388c:	9806      	ldr	r0, [sp, #24]
1000388e:	f7ff fbe3 	bl	10003058 <_out_rev>
10003892:	e0ff      	b.n	10003a94 <_ftoa+0x2c8>
10003894:	2304      	movs	r3, #4
10003896:	9a22      	ldr	r2, [sp, #136]	; 0x88
10003898:	401a      	ands	r2, r3
1000389a:	9922      	ldr	r1, [sp, #136]	; 0x88
1000389c:	420b      	tst	r3, r1
1000389e:	d010      	beq.n	100038c2 <_ftoa+0xf6>
100038a0:	4b9b      	ldr	r3, [pc, #620]	; (10003b10 <_ftoa+0x344>)
100038a2:	2a00      	cmp	r2, #0
100038a4:	d00f      	beq.n	100038c6 <_ftoa+0xfa>
100038a6:	2204      	movs	r2, #4
100038a8:	9922      	ldr	r1, [sp, #136]	; 0x88
100038aa:	9103      	str	r1, [sp, #12]
100038ac:	9921      	ldr	r1, [sp, #132]	; 0x84
100038ae:	9102      	str	r1, [sp, #8]
100038b0:	9201      	str	r2, [sp, #4]
100038b2:	9300      	str	r3, [sp, #0]
100038b4:	464b      	mov	r3, r9
100038b6:	465a      	mov	r2, fp
100038b8:	9907      	ldr	r1, [sp, #28]
100038ba:	9806      	ldr	r0, [sp, #24]
100038bc:	f7ff fbcc 	bl	10003058 <_out_rev>
100038c0:	e0e8      	b.n	10003a94 <_ftoa+0x2c8>
100038c2:	4b94      	ldr	r3, [pc, #592]	; (10003b14 <_ftoa+0x348>)
100038c4:	e7ed      	b.n	100038a2 <_ftoa+0xd6>
100038c6:	2203      	movs	r2, #3
100038c8:	e7ee      	b.n	100038a8 <_ftoa+0xdc>
100038ca:	9b22      	ldr	r3, [sp, #136]	; 0x88
100038cc:	9304      	str	r3, [sp, #16]
100038ce:	9b21      	ldr	r3, [sp, #132]	; 0x84
100038d0:	9303      	str	r3, [sp, #12]
100038d2:	9702      	str	r7, [sp, #8]
100038d4:	9b1e      	ldr	r3, [sp, #120]	; 0x78
100038d6:	9c1f      	ldr	r4, [sp, #124]	; 0x7c
100038d8:	9300      	str	r3, [sp, #0]
100038da:	9401      	str	r4, [sp, #4]
100038dc:	464b      	mov	r3, r9
100038de:	465a      	mov	r2, fp
100038e0:	9907      	ldr	r1, [sp, #28]
100038e2:	9806      	ldr	r0, [sp, #24]
100038e4:	f7ff fd68 	bl	100033b8 <_etoa>
100038e8:	e0d4      	b.n	10003a94 <_ftoa+0x2c8>
100038ea:	9a1e      	ldr	r2, [sp, #120]	; 0x78
100038ec:	9b1f      	ldr	r3, [sp, #124]	; 0x7c
100038ee:	2000      	movs	r0, #0
100038f0:	2100      	movs	r1, #0
100038f2:	f000 fee8 	bl	100046c6 <__wrap___aeabi_dsub>
100038f6:	901e      	str	r0, [sp, #120]	; 0x78
100038f8:	911f      	str	r1, [sp, #124]	; 0x7c
100038fa:	2301      	movs	r3, #1
100038fc:	4698      	mov	r8, r3
100038fe:	e7a5      	b.n	1000384c <_ftoa+0x80>
10003900:	ab0c      	add	r3, sp, #48	; 0x30
10003902:	2230      	movs	r2, #48	; 0x30
10003904:	551a      	strb	r2, [r3, r4]
10003906:	3f01      	subs	r7, #1
10003908:	3401      	adds	r4, #1
1000390a:	2c1f      	cmp	r4, #31
1000390c:	d801      	bhi.n	10003912 <_ftoa+0x146>
1000390e:	2f09      	cmp	r7, #9
10003910:	d8f6      	bhi.n	10003900 <_ftoa+0x134>
10003912:	981e      	ldr	r0, [sp, #120]	; 0x78
10003914:	991f      	ldr	r1, [sp, #124]	; 0x7c
10003916:	f000 ff87 	bl	10004828 <__wrap___aeabi_d2iz>
1000391a:	0005      	movs	r5, r0
1000391c:	f000 ff6c 	bl	100047f8 <__wrap___aeabi_i2d>
10003920:	0002      	movs	r2, r0
10003922:	000b      	movs	r3, r1
10003924:	981e      	ldr	r0, [sp, #120]	; 0x78
10003926:	991f      	ldr	r1, [sp, #124]	; 0x7c
10003928:	f000 fecd 	bl	100046c6 <__wrap___aeabi_dsub>
1000392c:	00fa      	lsls	r2, r7, #3
1000392e:	4b7a      	ldr	r3, [pc, #488]	; (10003b18 <_ftoa+0x34c>)
10003930:	189b      	adds	r3, r3, r2
10003932:	681a      	ldr	r2, [r3, #0]
10003934:	685b      	ldr	r3, [r3, #4]
10003936:	920a      	str	r2, [sp, #40]	; 0x28
10003938:	930b      	str	r3, [sp, #44]	; 0x2c
1000393a:	f000 fee8 	bl	1000470e <__wrap___aeabi_dmul>
1000393e:	9008      	str	r0, [sp, #32]
10003940:	9109      	str	r1, [sp, #36]	; 0x24
10003942:	f000 ff95 	bl	10004870 <__wrap___aeabi_d2uiz>
10003946:	0006      	movs	r6, r0
10003948:	f000 ff52 	bl	100047f0 <__wrap___aeabi_ui2d>
1000394c:	0002      	movs	r2, r0
1000394e:	000b      	movs	r3, r1
10003950:	9808      	ldr	r0, [sp, #32]
10003952:	9909      	ldr	r1, [sp, #36]	; 0x24
10003954:	f000 feb7 	bl	100046c6 <__wrap___aeabi_dsub>
10003958:	9008      	str	r0, [sp, #32]
1000395a:	9109      	str	r1, [sp, #36]	; 0x24
1000395c:	2200      	movs	r2, #0
1000395e:	4b6f      	ldr	r3, [pc, #444]	; (10003b1c <_ftoa+0x350>)
10003960:	f000 ff32 	bl	100047c8 <__wrap___aeabi_dcmpgt>
10003964:	2800      	cmp	r0, #0
10003966:	d02e      	beq.n	100039c6 <_ftoa+0x1fa>
10003968:	3601      	adds	r6, #1
1000396a:	0030      	movs	r0, r6
1000396c:	f000 ff40 	bl	100047f0 <__wrap___aeabi_ui2d>
10003970:	0002      	movs	r2, r0
10003972:	000b      	movs	r3, r1
10003974:	980a      	ldr	r0, [sp, #40]	; 0x28
10003976:	990b      	ldr	r1, [sp, #44]	; 0x2c
10003978:	f000 ff16 	bl	100047a8 <__wrap___aeabi_dcmple>
1000397c:	2800      	cmp	r0, #0
1000397e:	d001      	beq.n	10003984 <_ftoa+0x1b8>
10003980:	3501      	adds	r5, #1
10003982:	2600      	movs	r6, #0
10003984:	2f00      	cmp	r7, #0
10003986:	d12c      	bne.n	100039e2 <_ftoa+0x216>
10003988:	0028      	movs	r0, r5
1000398a:	f000 ff35 	bl	100047f8 <__wrap___aeabi_i2d>
1000398e:	0002      	movs	r2, r0
10003990:	000b      	movs	r3, r1
10003992:	981e      	ldr	r0, [sp, #120]	; 0x78
10003994:	991f      	ldr	r1, [sp, #124]	; 0x7c
10003996:	f000 fe96 	bl	100046c6 <__wrap___aeabi_dsub>
1000399a:	0006      	movs	r6, r0
1000399c:	000f      	movs	r7, r1
1000399e:	2200      	movs	r2, #0
100039a0:	4b5e      	ldr	r3, [pc, #376]	; (10003b1c <_ftoa+0x350>)
100039a2:	f000 fefb 	bl	1000479c <__wrap___aeabi_dcmplt>
100039a6:	2800      	cmp	r0, #0
100039a8:	d146      	bne.n	10003a38 <_ftoa+0x26c>
100039aa:	2200      	movs	r2, #0
100039ac:	4b5b      	ldr	r3, [pc, #364]	; (10003b1c <_ftoa+0x350>)
100039ae:	0030      	movs	r0, r6
100039b0:	0039      	movs	r1, r7
100039b2:	f000 ff09 	bl	100047c8 <__wrap___aeabi_dcmpgt>
100039b6:	2800      	cmp	r0, #0
100039b8:	d13e      	bne.n	10003a38 <_ftoa+0x26c>
100039ba:	07eb      	lsls	r3, r5, #31
100039bc:	d53c      	bpl.n	10003a38 <_ftoa+0x26c>
100039be:	3501      	adds	r5, #1
100039c0:	e03a      	b.n	10003a38 <_ftoa+0x26c>
100039c2:	2706      	movs	r7, #6
100039c4:	e746      	b.n	10003854 <_ftoa+0x88>
100039c6:	2200      	movs	r2, #0
100039c8:	4b54      	ldr	r3, [pc, #336]	; (10003b1c <_ftoa+0x350>)
100039ca:	9808      	ldr	r0, [sp, #32]
100039cc:	9909      	ldr	r1, [sp, #36]	; 0x24
100039ce:	f000 fee5 	bl	1000479c <__wrap___aeabi_dcmplt>
100039d2:	2800      	cmp	r0, #0
100039d4:	d1d6      	bne.n	10003984 <_ftoa+0x1b8>
100039d6:	2e00      	cmp	r6, #0
100039d8:	d001      	beq.n	100039de <_ftoa+0x212>
100039da:	07f3      	lsls	r3, r6, #31
100039dc:	d5d2      	bpl.n	10003984 <_ftoa+0x1b8>
100039de:	3601      	adds	r6, #1
100039e0:	e7d0      	b.n	10003984 <_ftoa+0x1b8>
100039e2:	46aa      	mov	sl, r5
100039e4:	2c1f      	cmp	r4, #31
100039e6:	d811      	bhi.n	10003a0c <_ftoa+0x240>
100039e8:	3f01      	subs	r7, #1
100039ea:	210a      	movs	r1, #10
100039ec:	0030      	movs	r0, r6
100039ee:	f000 fc2f 	bl	10004250 <__wrap___aeabi_uidiv>
100039f2:	1c65      	adds	r5, r4, #1
100039f4:	3130      	adds	r1, #48	; 0x30
100039f6:	ab0c      	add	r3, sp, #48	; 0x30
100039f8:	5519      	strb	r1, [r3, r4]
100039fa:	210a      	movs	r1, #10
100039fc:	0030      	movs	r0, r6
100039fe:	f000 fc27 	bl	10004250 <__wrap___aeabi_uidiv>
10003a02:	2e09      	cmp	r6, #9
10003a04:	d90e      	bls.n	10003a24 <_ftoa+0x258>
10003a06:	0006      	movs	r6, r0
10003a08:	002c      	movs	r4, r5
10003a0a:	e7eb      	b.n	100039e4 <_ftoa+0x218>
10003a0c:	4655      	mov	r5, sl
10003a0e:	2c1f      	cmp	r4, #31
10003a10:	d80c      	bhi.n	10003a2c <_ftoa+0x260>
10003a12:	1e7b      	subs	r3, r7, #1
10003a14:	2f00      	cmp	r7, #0
10003a16:	d009      	beq.n	10003a2c <_ftoa+0x260>
10003a18:	aa0c      	add	r2, sp, #48	; 0x30
10003a1a:	2130      	movs	r1, #48	; 0x30
10003a1c:	5511      	strb	r1, [r2, r4]
10003a1e:	001f      	movs	r7, r3
10003a20:	3401      	adds	r4, #1
10003a22:	e7f4      	b.n	10003a0e <_ftoa+0x242>
10003a24:	002b      	movs	r3, r5
10003a26:	4655      	mov	r5, sl
10003a28:	001c      	movs	r4, r3
10003a2a:	e7f0      	b.n	10003a0e <_ftoa+0x242>
10003a2c:	2c1f      	cmp	r4, #31
10003a2e:	d803      	bhi.n	10003a38 <_ftoa+0x26c>
10003a30:	ab0c      	add	r3, sp, #48	; 0x30
10003a32:	222e      	movs	r2, #46	; 0x2e
10003a34:	551a      	strb	r2, [r3, r4]
10003a36:	3401      	adds	r4, #1
10003a38:	2c1f      	cmp	r4, #31
10003a3a:	d810      	bhi.n	10003a5e <_ftoa+0x292>
10003a3c:	210a      	movs	r1, #10
10003a3e:	0028      	movs	r0, r5
10003a40:	f000 fbde 	bl	10004200 <__wrap___aeabi_idiv>
10003a44:	1c66      	adds	r6, r4, #1
10003a46:	3130      	adds	r1, #48	; 0x30
10003a48:	ab0c      	add	r3, sp, #48	; 0x30
10003a4a:	5519      	strb	r1, [r3, r4]
10003a4c:	210a      	movs	r1, #10
10003a4e:	0028      	movs	r0, r5
10003a50:	f000 fbd6 	bl	10004200 <__wrap___aeabi_idiv>
10003a54:	1e05      	subs	r5, r0, #0
10003a56:	d001      	beq.n	10003a5c <_ftoa+0x290>
10003a58:	0034      	movs	r4, r6
10003a5a:	e7ed      	b.n	10003a38 <_ftoa+0x26c>
10003a5c:	0034      	movs	r4, r6
10003a5e:	2303      	movs	r3, #3
10003a60:	9a22      	ldr	r2, [sp, #136]	; 0x88
10003a62:	4013      	ands	r3, r2
10003a64:	2b01      	cmp	r3, #1
10003a66:	d01c      	beq.n	10003aa2 <_ftoa+0x2d6>
10003a68:	2c1f      	cmp	r4, #31
10003a6a:	d806      	bhi.n	10003a7a <_ftoa+0x2ae>
10003a6c:	4643      	mov	r3, r8
10003a6e:	2b00      	cmp	r3, #0
10003a70:	d032      	beq.n	10003ad8 <_ftoa+0x30c>
10003a72:	ab0c      	add	r3, sp, #48	; 0x30
10003a74:	222d      	movs	r2, #45	; 0x2d
10003a76:	551a      	strb	r2, [r3, r4]
10003a78:	3401      	adds	r4, #1
10003a7a:	9b22      	ldr	r3, [sp, #136]	; 0x88
10003a7c:	9303      	str	r3, [sp, #12]
10003a7e:	9b21      	ldr	r3, [sp, #132]	; 0x84
10003a80:	9302      	str	r3, [sp, #8]
10003a82:	9401      	str	r4, [sp, #4]
10003a84:	ab0c      	add	r3, sp, #48	; 0x30
10003a86:	9300      	str	r3, [sp, #0]
10003a88:	464b      	mov	r3, r9
10003a8a:	465a      	mov	r2, fp
10003a8c:	9907      	ldr	r1, [sp, #28]
10003a8e:	9806      	ldr	r0, [sp, #24]
10003a90:	f7ff fae2 	bl	10003058 <_out_rev>
10003a94:	b015      	add	sp, #84	; 0x54
10003a96:	bcf0      	pop	{r4, r5, r6, r7}
10003a98:	46bb      	mov	fp, r7
10003a9a:	46b2      	mov	sl, r6
10003a9c:	46a9      	mov	r9, r5
10003a9e:	46a0      	mov	r8, r4
10003aa0:	bdf0      	pop	{r4, r5, r6, r7, pc}
10003aa2:	9b21      	ldr	r3, [sp, #132]	; 0x84
10003aa4:	2b00      	cmp	r3, #0
10003aa6:	d013      	beq.n	10003ad0 <_ftoa+0x304>
10003aa8:	4643      	mov	r3, r8
10003aaa:	2b00      	cmp	r3, #0
10003aac:	d102      	bne.n	10003ab4 <_ftoa+0x2e8>
10003aae:	330c      	adds	r3, #12
10003ab0:	4213      	tst	r3, r2
10003ab2:	d00f      	beq.n	10003ad4 <_ftoa+0x308>
10003ab4:	9b21      	ldr	r3, [sp, #132]	; 0x84
10003ab6:	3b01      	subs	r3, #1
10003ab8:	9321      	str	r3, [sp, #132]	; 0x84
10003aba:	0019      	movs	r1, r3
10003abc:	e003      	b.n	10003ac6 <_ftoa+0x2fa>
10003abe:	ab0c      	add	r3, sp, #48	; 0x30
10003ac0:	2230      	movs	r2, #48	; 0x30
10003ac2:	551a      	strb	r2, [r3, r4]
10003ac4:	3401      	adds	r4, #1
10003ac6:	428c      	cmp	r4, r1
10003ac8:	d2ce      	bcs.n	10003a68 <_ftoa+0x29c>
10003aca:	2c1f      	cmp	r4, #31
10003acc:	d9f7      	bls.n	10003abe <_ftoa+0x2f2>
10003ace:	e7cb      	b.n	10003a68 <_ftoa+0x29c>
10003ad0:	9921      	ldr	r1, [sp, #132]	; 0x84
10003ad2:	e7f8      	b.n	10003ac6 <_ftoa+0x2fa>
10003ad4:	9921      	ldr	r1, [sp, #132]	; 0x84
10003ad6:	e7f6      	b.n	10003ac6 <_ftoa+0x2fa>
10003ad8:	9b22      	ldr	r3, [sp, #136]	; 0x88
10003ada:	075b      	lsls	r3, r3, #29
10003adc:	d504      	bpl.n	10003ae8 <_ftoa+0x31c>
10003ade:	ab0c      	add	r3, sp, #48	; 0x30
10003ae0:	222b      	movs	r2, #43	; 0x2b
10003ae2:	551a      	strb	r2, [r3, r4]
10003ae4:	3401      	adds	r4, #1
10003ae6:	e7c8      	b.n	10003a7a <_ftoa+0x2ae>
10003ae8:	9b22      	ldr	r3, [sp, #136]	; 0x88
10003aea:	071b      	lsls	r3, r3, #28
10003aec:	d5c5      	bpl.n	10003a7a <_ftoa+0x2ae>
10003aee:	ab0c      	add	r3, sp, #48	; 0x30
10003af0:	2220      	movs	r2, #32
10003af2:	551a      	strb	r2, [r3, r4]
10003af4:	3401      	adds	r4, #1
10003af6:	e7c0      	b.n	10003a7a <_ftoa+0x2ae>
10003af8:	ffefffff 	.word	0xffefffff
10003afc:	7fefffff 	.word	0x7fefffff
10003b00:	41cdcd65 	.word	0x41cdcd65
10003b04:	c1cdcd65 	.word	0xc1cdcd65
10003b08:	10014534 	.word	0x10014534
10003b0c:	10014538 	.word	0x10014538
10003b10:	1001452c 	.word	0x1001452c
10003b14:	10014528 	.word	0x10014528
10003b18:	10014720 	.word	0x10014720
10003b1c:	3fe00000 	.word	0x3fe00000

10003b20 <_vsnprintf>:
10003b20:	b5f0      	push	{r4, r5, r6, r7, lr}
10003b22:	46de      	mov	lr, fp
10003b24:	4657      	mov	r7, sl
10003b26:	464e      	mov	r6, r9
10003b28:	4645      	mov	r5, r8
10003b2a:	b5e0      	push	{r5, r6, r7, lr}
10003b2c:	b093      	sub	sp, #76	; 0x4c
10003b2e:	4682      	mov	sl, r0
10003b30:	468b      	mov	fp, r1
10003b32:	4690      	mov	r8, r2
10003b34:	9311      	str	r3, [sp, #68]	; 0x44
10003b36:	2900      	cmp	r1, #0
10003b38:	d100      	bne.n	10003b3c <_vsnprintf+0x1c>
10003b3a:	e2eb      	b.n	10004114 <_vsnprintf+0x5f4>
10003b3c:	2700      	movs	r7, #0
10003b3e:	4655      	mov	r5, sl
10003b40:	9b11      	ldr	r3, [sp, #68]	; 0x44
10003b42:	7818      	ldrb	r0, [r3, #0]
10003b44:	2800      	cmp	r0, #0
10003b46:	d100      	bne.n	10003b4a <_vsnprintf+0x2a>
10003b48:	e2e7      	b.n	1000411a <_vsnprintf+0x5fa>
10003b4a:	2825      	cmp	r0, #37	; 0x25
10003b4c:	d009      	beq.n	10003b62 <_vsnprintf+0x42>
10003b4e:	1c7c      	adds	r4, r7, #1
10003b50:	4643      	mov	r3, r8
10003b52:	003a      	movs	r2, r7
10003b54:	4659      	mov	r1, fp
10003b56:	47a8      	blx	r5
10003b58:	9b11      	ldr	r3, [sp, #68]	; 0x44
10003b5a:	3301      	adds	r3, #1
10003b5c:	9311      	str	r3, [sp, #68]	; 0x44
10003b5e:	0027      	movs	r7, r4
10003b60:	e7ee      	b.n	10003b40 <_vsnprintf+0x20>
10003b62:	3301      	adds	r3, #1
10003b64:	9311      	str	r3, [sp, #68]	; 0x44
10003b66:	2400      	movs	r4, #0
10003b68:	9a11      	ldr	r2, [sp, #68]	; 0x44
10003b6a:	7811      	ldrb	r1, [r2, #0]
10003b6c:	000b      	movs	r3, r1
10003b6e:	3b20      	subs	r3, #32
10003b70:	b2d8      	uxtb	r0, r3
10003b72:	2810      	cmp	r0, #16
10003b74:	d803      	bhi.n	10003b7e <_vsnprintf+0x5e>
10003b76:	0083      	lsls	r3, r0, #2
10003b78:	48d0      	ldr	r0, [pc, #832]	; (10003ebc <_vsnprintf+0x39c>)
10003b7a:	58c3      	ldr	r3, [r0, r3]
10003b7c:	469f      	mov	pc, r3
10003b7e:	000b      	movs	r3, r1
10003b80:	3b30      	subs	r3, #48	; 0x30
10003b82:	b2db      	uxtb	r3, r3
10003b84:	2b09      	cmp	r3, #9
10003b86:	d92c      	bls.n	10003be2 <_vsnprintf+0xc2>
10003b88:	292a      	cmp	r1, #42	; 0x2a
10003b8a:	d02f      	beq.n	10003bec <_vsnprintf+0xcc>
10003b8c:	2300      	movs	r3, #0
10003b8e:	930a      	str	r3, [sp, #40]	; 0x28
10003b90:	9b11      	ldr	r3, [sp, #68]	; 0x44
10003b92:	781a      	ldrb	r2, [r3, #0]
10003b94:	2a2e      	cmp	r2, #46	; 0x2e
10003b96:	d039      	beq.n	10003c0c <_vsnprintf+0xec>
10003b98:	2300      	movs	r3, #0
10003b9a:	469a      	mov	sl, r3
10003b9c:	9a11      	ldr	r2, [sp, #68]	; 0x44
10003b9e:	7813      	ldrb	r3, [r2, #0]
10003ba0:	3b68      	subs	r3, #104	; 0x68
10003ba2:	b2d9      	uxtb	r1, r3
10003ba4:	2912      	cmp	r1, #18
10003ba6:	d876      	bhi.n	10003c96 <_vsnprintf+0x176>
10003ba8:	008b      	lsls	r3, r1, #2
10003baa:	49c5      	ldr	r1, [pc, #788]	; (10003ec0 <_vsnprintf+0x3a0>)
10003bac:	58cb      	ldr	r3, [r1, r3]
10003bae:	469f      	mov	pc, r3
10003bb0:	2301      	movs	r3, #1
10003bb2:	431c      	orrs	r4, r3
10003bb4:	3201      	adds	r2, #1
10003bb6:	9211      	str	r2, [sp, #68]	; 0x44
10003bb8:	e7d6      	b.n	10003b68 <_vsnprintf+0x48>
10003bba:	2302      	movs	r3, #2
10003bbc:	431c      	orrs	r4, r3
10003bbe:	3201      	adds	r2, #1
10003bc0:	9211      	str	r2, [sp, #68]	; 0x44
10003bc2:	e7d1      	b.n	10003b68 <_vsnprintf+0x48>
10003bc4:	2304      	movs	r3, #4
10003bc6:	431c      	orrs	r4, r3
10003bc8:	3201      	adds	r2, #1
10003bca:	9211      	str	r2, [sp, #68]	; 0x44
10003bcc:	e7cc      	b.n	10003b68 <_vsnprintf+0x48>
10003bce:	2308      	movs	r3, #8
10003bd0:	431c      	orrs	r4, r3
10003bd2:	3201      	adds	r2, #1
10003bd4:	9211      	str	r2, [sp, #68]	; 0x44
10003bd6:	e7c7      	b.n	10003b68 <_vsnprintf+0x48>
10003bd8:	2310      	movs	r3, #16
10003bda:	431c      	orrs	r4, r3
10003bdc:	3201      	adds	r2, #1
10003bde:	9211      	str	r2, [sp, #68]	; 0x44
10003be0:	e7c2      	b.n	10003b68 <_vsnprintf+0x48>
10003be2:	a811      	add	r0, sp, #68	; 0x44
10003be4:	f7ff fa26 	bl	10003034 <_atoi>
10003be8:	900a      	str	r0, [sp, #40]	; 0x28
10003bea:	e7d1      	b.n	10003b90 <_vsnprintf+0x70>
10003bec:	9b1c      	ldr	r3, [sp, #112]	; 0x70
10003bee:	1d1a      	adds	r2, r3, #4
10003bf0:	921c      	str	r2, [sp, #112]	; 0x70
10003bf2:	6818      	ldr	r0, [r3, #0]
10003bf4:	2800      	cmp	r0, #0
10003bf6:	db04      	blt.n	10003c02 <_vsnprintf+0xe2>
10003bf8:	900a      	str	r0, [sp, #40]	; 0x28
10003bfa:	9b11      	ldr	r3, [sp, #68]	; 0x44
10003bfc:	3301      	adds	r3, #1
10003bfe:	9311      	str	r3, [sp, #68]	; 0x44
10003c00:	e7c6      	b.n	10003b90 <_vsnprintf+0x70>
10003c02:	2302      	movs	r3, #2
10003c04:	431c      	orrs	r4, r3
10003c06:	4243      	negs	r3, r0
10003c08:	930a      	str	r3, [sp, #40]	; 0x28
10003c0a:	e7f6      	b.n	10003bfa <_vsnprintf+0xda>
10003c0c:	2280      	movs	r2, #128	; 0x80
10003c0e:	00d2      	lsls	r2, r2, #3
10003c10:	4314      	orrs	r4, r2
10003c12:	1c5a      	adds	r2, r3, #1
10003c14:	9211      	str	r2, [sp, #68]	; 0x44
10003c16:	785a      	ldrb	r2, [r3, #1]
10003c18:	0013      	movs	r3, r2
10003c1a:	3b30      	subs	r3, #48	; 0x30
10003c1c:	b2db      	uxtb	r3, r3
10003c1e:	2b09      	cmp	r3, #9
10003c20:	d904      	bls.n	10003c2c <_vsnprintf+0x10c>
10003c22:	2a2a      	cmp	r2, #42	; 0x2a
10003c24:	d007      	beq.n	10003c36 <_vsnprintf+0x116>
10003c26:	2300      	movs	r3, #0
10003c28:	469a      	mov	sl, r3
10003c2a:	e7b7      	b.n	10003b9c <_vsnprintf+0x7c>
10003c2c:	a811      	add	r0, sp, #68	; 0x44
10003c2e:	f7ff fa01 	bl	10003034 <_atoi>
10003c32:	4682      	mov	sl, r0
10003c34:	e7b2      	b.n	10003b9c <_vsnprintf+0x7c>
10003c36:	9b1c      	ldr	r3, [sp, #112]	; 0x70
10003c38:	1d1a      	adds	r2, r3, #4
10003c3a:	921c      	str	r2, [sp, #112]	; 0x70
10003c3c:	6818      	ldr	r0, [r3, #0]
10003c3e:	2800      	cmp	r0, #0
10003c40:	db04      	blt.n	10003c4c <_vsnprintf+0x12c>
10003c42:	4682      	mov	sl, r0
10003c44:	9b11      	ldr	r3, [sp, #68]	; 0x44
10003c46:	3301      	adds	r3, #1
10003c48:	9311      	str	r3, [sp, #68]	; 0x44
10003c4a:	e7a7      	b.n	10003b9c <_vsnprintf+0x7c>
10003c4c:	2000      	movs	r0, #0
10003c4e:	e7f8      	b.n	10003c42 <_vsnprintf+0x122>
10003c50:	2380      	movs	r3, #128	; 0x80
10003c52:	005b      	lsls	r3, r3, #1
10003c54:	4323      	orrs	r3, r4
10003c56:	1c51      	adds	r1, r2, #1
10003c58:	9111      	str	r1, [sp, #68]	; 0x44
10003c5a:	7852      	ldrb	r2, [r2, #1]
10003c5c:	2a6c      	cmp	r2, #108	; 0x6c
10003c5e:	d001      	beq.n	10003c64 <_vsnprintf+0x144>
10003c60:	001c      	movs	r4, r3
10003c62:	e018      	b.n	10003c96 <_vsnprintf+0x176>
10003c64:	23c0      	movs	r3, #192	; 0xc0
10003c66:	009b      	lsls	r3, r3, #2
10003c68:	431c      	orrs	r4, r3
10003c6a:	3101      	adds	r1, #1
10003c6c:	9111      	str	r1, [sp, #68]	; 0x44
10003c6e:	e012      	b.n	10003c96 <_vsnprintf+0x176>
10003c70:	2380      	movs	r3, #128	; 0x80
10003c72:	4323      	orrs	r3, r4
10003c74:	1c51      	adds	r1, r2, #1
10003c76:	9111      	str	r1, [sp, #68]	; 0x44
10003c78:	7852      	ldrb	r2, [r2, #1]
10003c7a:	2a68      	cmp	r2, #104	; 0x68
10003c7c:	d001      	beq.n	10003c82 <_vsnprintf+0x162>
10003c7e:	001c      	movs	r4, r3
10003c80:	e009      	b.n	10003c96 <_vsnprintf+0x176>
10003c82:	23c0      	movs	r3, #192	; 0xc0
10003c84:	431c      	orrs	r4, r3
10003c86:	3101      	adds	r1, #1
10003c88:	9111      	str	r1, [sp, #68]	; 0x44
10003c8a:	e004      	b.n	10003c96 <_vsnprintf+0x176>
10003c8c:	2380      	movs	r3, #128	; 0x80
10003c8e:	005b      	lsls	r3, r3, #1
10003c90:	431c      	orrs	r4, r3
10003c92:	3201      	adds	r2, #1
10003c94:	9211      	str	r2, [sp, #68]	; 0x44
10003c96:	9b11      	ldr	r3, [sp, #68]	; 0x44
10003c98:	7818      	ldrb	r0, [r3, #0]
10003c9a:	0003      	movs	r3, r0
10003c9c:	3b25      	subs	r3, #37	; 0x25
10003c9e:	b2da      	uxtb	r2, r3
10003ca0:	2a53      	cmp	r2, #83	; 0x53
10003ca2:	d900      	bls.n	10003ca6 <_vsnprintf+0x186>
10003ca4:	e22c      	b.n	10004100 <_vsnprintf+0x5e0>
10003ca6:	0093      	lsls	r3, r2, #2
10003ca8:	4a86      	ldr	r2, [pc, #536]	; (10003ec4 <_vsnprintf+0x3a4>)
10003caa:	58d3      	ldr	r3, [r2, r3]
10003cac:	469f      	mov	pc, r3
10003cae:	2380      	movs	r3, #128	; 0x80
10003cb0:	009b      	lsls	r3, r3, #2
10003cb2:	431c      	orrs	r4, r3
10003cb4:	3201      	adds	r2, #1
10003cb6:	9211      	str	r2, [sp, #68]	; 0x44
10003cb8:	e7ed      	b.n	10003c96 <_vsnprintf+0x176>
10003cba:	2380      	movs	r3, #128	; 0x80
10003cbc:	005b      	lsls	r3, r3, #1
10003cbe:	431c      	orrs	r4, r3
10003cc0:	3201      	adds	r2, #1
10003cc2:	9211      	str	r2, [sp, #68]	; 0x44
10003cc4:	e7e7      	b.n	10003c96 <_vsnprintf+0x176>
10003cc6:	2878      	cmp	r0, #120	; 0x78
10003cc8:	d009      	beq.n	10003cde <_vsnprintf+0x1be>
10003cca:	2858      	cmp	r0, #88	; 0x58
10003ccc:	d038      	beq.n	10003d40 <_vsnprintf+0x220>
10003cce:	286f      	cmp	r0, #111	; 0x6f
10003cd0:	d038      	beq.n	10003d44 <_vsnprintf+0x224>
10003cd2:	2862      	cmp	r0, #98	; 0x62
10003cd4:	d038      	beq.n	10003d48 <_vsnprintf+0x228>
10003cd6:	2310      	movs	r3, #16
10003cd8:	439c      	bics	r4, r3
10003cda:	260a      	movs	r6, #10
10003cdc:	e000      	b.n	10003ce0 <_vsnprintf+0x1c0>
10003cde:	2610      	movs	r6, #16
10003ce0:	2858      	cmp	r0, #88	; 0x58
10003ce2:	d033      	beq.n	10003d4c <_vsnprintf+0x22c>
10003ce4:	2869      	cmp	r0, #105	; 0x69
10003ce6:	d003      	beq.n	10003cf0 <_vsnprintf+0x1d0>
10003ce8:	2864      	cmp	r0, #100	; 0x64
10003cea:	d001      	beq.n	10003cf0 <_vsnprintf+0x1d0>
10003cec:	220c      	movs	r2, #12
10003cee:	4394      	bics	r4, r2
10003cf0:	0563      	lsls	r3, r4, #21
10003cf2:	d501      	bpl.n	10003cf8 <_vsnprintf+0x1d8>
10003cf4:	2201      	movs	r2, #1
10003cf6:	4394      	bics	r4, r2
10003cf8:	2869      	cmp	r0, #105	; 0x69
10003cfa:	d02a      	beq.n	10003d52 <_vsnprintf+0x232>
10003cfc:	2864      	cmp	r0, #100	; 0x64
10003cfe:	d028      	beq.n	10003d52 <_vsnprintf+0x232>
10003d00:	05a3      	lsls	r3, r4, #22
10003d02:	d500      	bpl.n	10003d06 <_vsnprintf+0x1e6>
10003d04:	e09f      	b.n	10003e46 <_vsnprintf+0x326>
10003d06:	05e3      	lsls	r3, r4, #23
10003d08:	d500      	bpl.n	10003d0c <_vsnprintf+0x1ec>
10003d0a:	e0b8      	b.n	10003e7e <_vsnprintf+0x35e>
10003d0c:	0663      	lsls	r3, r4, #25
10003d0e:	d400      	bmi.n	10003d12 <_vsnprintf+0x1f2>
10003d10:	e0ca      	b.n	10003ea8 <_vsnprintf+0x388>
10003d12:	9a1c      	ldr	r2, [sp, #112]	; 0x70
10003d14:	1d11      	adds	r1, r2, #4
10003d16:	911c      	str	r1, [sp, #112]	; 0x70
10003d18:	6811      	ldr	r1, [r2, #0]
10003d1a:	22ff      	movs	r2, #255	; 0xff
10003d1c:	400a      	ands	r2, r1
10003d1e:	9405      	str	r4, [sp, #20]
10003d20:	9b0a      	ldr	r3, [sp, #40]	; 0x28
10003d22:	9304      	str	r3, [sp, #16]
10003d24:	4653      	mov	r3, sl
10003d26:	9303      	str	r3, [sp, #12]
10003d28:	9602      	str	r6, [sp, #8]
10003d2a:	2300      	movs	r3, #0
10003d2c:	9301      	str	r3, [sp, #4]
10003d2e:	9200      	str	r2, [sp, #0]
10003d30:	4643      	mov	r3, r8
10003d32:	003a      	movs	r2, r7
10003d34:	4659      	mov	r1, fp
10003d36:	0028      	movs	r0, r5
10003d38:	f7ff fa6e 	bl	10003218 <_ntoa_long>
10003d3c:	0007      	movs	r7, r0
10003d3e:	e027      	b.n	10003d90 <_vsnprintf+0x270>
10003d40:	2610      	movs	r6, #16
10003d42:	e7cd      	b.n	10003ce0 <_vsnprintf+0x1c0>
10003d44:	2608      	movs	r6, #8
10003d46:	e7cb      	b.n	10003ce0 <_vsnprintf+0x1c0>
10003d48:	2602      	movs	r6, #2
10003d4a:	e7c9      	b.n	10003ce0 <_vsnprintf+0x1c0>
10003d4c:	2220      	movs	r2, #32
10003d4e:	4314      	orrs	r4, r2
10003d50:	e7c8      	b.n	10003ce4 <_vsnprintf+0x1c4>
10003d52:	05a3      	lsls	r3, r4, #22
10003d54:	d420      	bmi.n	10003d98 <_vsnprintf+0x278>
10003d56:	05e3      	lsls	r3, r4, #23
10003d58:	d450      	bmi.n	10003dfc <_vsnprintf+0x2dc>
10003d5a:	0663      	lsls	r3, r4, #25
10003d5c:	d566      	bpl.n	10003e2c <_vsnprintf+0x30c>
10003d5e:	9a1c      	ldr	r2, [sp, #112]	; 0x70
10003d60:	1d11      	adds	r1, r2, #4
10003d62:	911c      	str	r1, [sp, #112]	; 0x70
10003d64:	6811      	ldr	r1, [r2, #0]
10003d66:	22ff      	movs	r2, #255	; 0xff
10003d68:	400a      	ands	r2, r1
10003d6a:	17d3      	asrs	r3, r2, #31
10003d6c:	18d1      	adds	r1, r2, r3
10003d6e:	4059      	eors	r1, r3
10003d70:	9405      	str	r4, [sp, #20]
10003d72:	9b0a      	ldr	r3, [sp, #40]	; 0x28
10003d74:	9304      	str	r3, [sp, #16]
10003d76:	4653      	mov	r3, sl
10003d78:	9303      	str	r3, [sp, #12]
10003d7a:	9602      	str	r6, [sp, #8]
10003d7c:	0fd2      	lsrs	r2, r2, #31
10003d7e:	9201      	str	r2, [sp, #4]
10003d80:	9100      	str	r1, [sp, #0]
10003d82:	4643      	mov	r3, r8
10003d84:	003a      	movs	r2, r7
10003d86:	4659      	mov	r1, fp
10003d88:	0028      	movs	r0, r5
10003d8a:	f7ff fa45 	bl	10003218 <_ntoa_long>
10003d8e:	0007      	movs	r7, r0
10003d90:	9b11      	ldr	r3, [sp, #68]	; 0x44
10003d92:	3301      	adds	r3, #1
10003d94:	9311      	str	r3, [sp, #68]	; 0x44
10003d96:	e6d3      	b.n	10003b40 <_vsnprintf+0x20>
10003d98:	9b1c      	ldr	r3, [sp, #112]	; 0x70
10003d9a:	1dda      	adds	r2, r3, #7
10003d9c:	2107      	movs	r1, #7
10003d9e:	438a      	bics	r2, r1
10003da0:	0011      	movs	r1, r2
10003da2:	3108      	adds	r1, #8
10003da4:	911c      	str	r1, [sp, #112]	; 0x70
10003da6:	6811      	ldr	r1, [r2, #0]
10003da8:	6853      	ldr	r3, [r2, #4]
10003daa:	469c      	mov	ip, r3
10003dac:	17db      	asrs	r3, r3, #31
10003dae:	930c      	str	r3, [sp, #48]	; 0x30
10003db0:	930d      	str	r3, [sp, #52]	; 0x34
10003db2:	9a0c      	ldr	r2, [sp, #48]	; 0x30
10003db4:	9b0d      	ldr	r3, [sp, #52]	; 0x34
10003db6:	0010      	movs	r0, r2
10003db8:	4048      	eors	r0, r1
10003dba:	900e      	str	r0, [sp, #56]	; 0x38
10003dbc:	4662      	mov	r2, ip
10003dbe:	4053      	eors	r3, r2
10003dc0:	930f      	str	r3, [sp, #60]	; 0x3c
10003dc2:	980e      	ldr	r0, [sp, #56]	; 0x38
10003dc4:	990f      	ldr	r1, [sp, #60]	; 0x3c
10003dc6:	9a0c      	ldr	r2, [sp, #48]	; 0x30
10003dc8:	9b0d      	ldr	r3, [sp, #52]	; 0x34
10003dca:	1a80      	subs	r0, r0, r2
10003dcc:	4199      	sbcs	r1, r3
10003dce:	900e      	str	r0, [sp, #56]	; 0x38
10003dd0:	910f      	str	r1, [sp, #60]	; 0x3c
10003dd2:	9408      	str	r4, [sp, #32]
10003dd4:	9b0a      	ldr	r3, [sp, #40]	; 0x28
10003dd6:	9307      	str	r3, [sp, #28]
10003dd8:	4653      	mov	r3, sl
10003dda:	9306      	str	r3, [sp, #24]
10003ddc:	9604      	str	r6, [sp, #16]
10003dde:	2300      	movs	r3, #0
10003de0:	9305      	str	r3, [sp, #20]
10003de2:	4663      	mov	r3, ip
10003de4:	0fda      	lsrs	r2, r3, #31
10003de6:	9202      	str	r2, [sp, #8]
10003de8:	9000      	str	r0, [sp, #0]
10003dea:	9101      	str	r1, [sp, #4]
10003dec:	4643      	mov	r3, r8
10003dee:	003a      	movs	r2, r7
10003df0:	4659      	mov	r1, fp
10003df2:	0028      	movs	r0, r5
10003df4:	f7ff fa6e 	bl	100032d4 <_ntoa_long_long>
10003df8:	0007      	movs	r7, r0
10003dfa:	e7c9      	b.n	10003d90 <_vsnprintf+0x270>
10003dfc:	9a1c      	ldr	r2, [sp, #112]	; 0x70
10003dfe:	1d11      	adds	r1, r2, #4
10003e00:	911c      	str	r1, [sp, #112]	; 0x70
10003e02:	6812      	ldr	r2, [r2, #0]
10003e04:	17d3      	asrs	r3, r2, #31
10003e06:	18d1      	adds	r1, r2, r3
10003e08:	4059      	eors	r1, r3
10003e0a:	9405      	str	r4, [sp, #20]
10003e0c:	9b0a      	ldr	r3, [sp, #40]	; 0x28
10003e0e:	9304      	str	r3, [sp, #16]
10003e10:	4653      	mov	r3, sl
10003e12:	9303      	str	r3, [sp, #12]
10003e14:	9602      	str	r6, [sp, #8]
10003e16:	0fd2      	lsrs	r2, r2, #31
10003e18:	9201      	str	r2, [sp, #4]
10003e1a:	9100      	str	r1, [sp, #0]
10003e1c:	4643      	mov	r3, r8
10003e1e:	003a      	movs	r2, r7
10003e20:	4659      	mov	r1, fp
10003e22:	0028      	movs	r0, r5
10003e24:	f7ff f9f8 	bl	10003218 <_ntoa_long>
10003e28:	0007      	movs	r7, r0
10003e2a:	e7b1      	b.n	10003d90 <_vsnprintf+0x270>
10003e2c:	0623      	lsls	r3, r4, #24
10003e2e:	d505      	bpl.n	10003e3c <_vsnprintf+0x31c>
10003e30:	9a1c      	ldr	r2, [sp, #112]	; 0x70
10003e32:	1d11      	adds	r1, r2, #4
10003e34:	911c      	str	r1, [sp, #112]	; 0x70
10003e36:	2300      	movs	r3, #0
10003e38:	5ed2      	ldrsh	r2, [r2, r3]
10003e3a:	e796      	b.n	10003d6a <_vsnprintf+0x24a>
10003e3c:	9a1c      	ldr	r2, [sp, #112]	; 0x70
10003e3e:	1d11      	adds	r1, r2, #4
10003e40:	911c      	str	r1, [sp, #112]	; 0x70
10003e42:	6812      	ldr	r2, [r2, #0]
10003e44:	e791      	b.n	10003d6a <_vsnprintf+0x24a>
10003e46:	9b1c      	ldr	r3, [sp, #112]	; 0x70
10003e48:	1dda      	adds	r2, r3, #7
10003e4a:	2107      	movs	r1, #7
10003e4c:	438a      	bics	r2, r1
10003e4e:	0011      	movs	r1, r2
10003e50:	3108      	adds	r1, #8
10003e52:	911c      	str	r1, [sp, #112]	; 0x70
10003e54:	9408      	str	r4, [sp, #32]
10003e56:	9b0a      	ldr	r3, [sp, #40]	; 0x28
10003e58:	9307      	str	r3, [sp, #28]
10003e5a:	4653      	mov	r3, sl
10003e5c:	9306      	str	r3, [sp, #24]
10003e5e:	9604      	str	r6, [sp, #16]
10003e60:	2300      	movs	r3, #0
10003e62:	9305      	str	r3, [sp, #20]
10003e64:	9302      	str	r3, [sp, #8]
10003e66:	6813      	ldr	r3, [r2, #0]
10003e68:	6854      	ldr	r4, [r2, #4]
10003e6a:	9300      	str	r3, [sp, #0]
10003e6c:	9401      	str	r4, [sp, #4]
10003e6e:	4643      	mov	r3, r8
10003e70:	003a      	movs	r2, r7
10003e72:	4659      	mov	r1, fp
10003e74:	0028      	movs	r0, r5
10003e76:	f7ff fa2d 	bl	100032d4 <_ntoa_long_long>
10003e7a:	0007      	movs	r7, r0
10003e7c:	e788      	b.n	10003d90 <_vsnprintf+0x270>
10003e7e:	9a1c      	ldr	r2, [sp, #112]	; 0x70
10003e80:	1d11      	adds	r1, r2, #4
10003e82:	911c      	str	r1, [sp, #112]	; 0x70
10003e84:	9405      	str	r4, [sp, #20]
10003e86:	9b0a      	ldr	r3, [sp, #40]	; 0x28
10003e88:	9304      	str	r3, [sp, #16]
10003e8a:	4653      	mov	r3, sl
10003e8c:	9303      	str	r3, [sp, #12]
10003e8e:	9602      	str	r6, [sp, #8]
10003e90:	2300      	movs	r3, #0
10003e92:	9301      	str	r3, [sp, #4]
10003e94:	6813      	ldr	r3, [r2, #0]
10003e96:	9300      	str	r3, [sp, #0]
10003e98:	4643      	mov	r3, r8
10003e9a:	003a      	movs	r2, r7
10003e9c:	4659      	mov	r1, fp
10003e9e:	0028      	movs	r0, r5
10003ea0:	f7ff f9ba 	bl	10003218 <_ntoa_long>
10003ea4:	0007      	movs	r7, r0
10003ea6:	e773      	b.n	10003d90 <_vsnprintf+0x270>
10003ea8:	0623      	lsls	r3, r4, #24
10003eaa:	d50d      	bpl.n	10003ec8 <_vsnprintf+0x3a8>
10003eac:	9a1c      	ldr	r2, [sp, #112]	; 0x70
10003eae:	1d11      	adds	r1, r2, #4
10003eb0:	911c      	str	r1, [sp, #112]	; 0x70
10003eb2:	6812      	ldr	r2, [r2, #0]
10003eb4:	0412      	lsls	r2, r2, #16
10003eb6:	0c12      	lsrs	r2, r2, #16
10003eb8:	e731      	b.n	10003d1e <_vsnprintf+0x1fe>
10003eba:	46c0      	nop			; (mov r8, r8)
10003ebc:	10014540 	.word	0x10014540
10003ec0:	10014584 	.word	0x10014584
10003ec4:	100145d0 	.word	0x100145d0
10003ec8:	9a1c      	ldr	r2, [sp, #112]	; 0x70
10003eca:	1d11      	adds	r1, r2, #4
10003ecc:	911c      	str	r1, [sp, #112]	; 0x70
10003ece:	6812      	ldr	r2, [r2, #0]
10003ed0:	e725      	b.n	10003d1e <_vsnprintf+0x1fe>
10003ed2:	2846      	cmp	r0, #70	; 0x46
10003ed4:	d01a      	beq.n	10003f0c <_vsnprintf+0x3ec>
10003ed6:	9b1c      	ldr	r3, [sp, #112]	; 0x70
10003ed8:	3307      	adds	r3, #7
10003eda:	2207      	movs	r2, #7
10003edc:	4393      	bics	r3, r2
10003ede:	001a      	movs	r2, r3
10003ee0:	3208      	adds	r2, #8
10003ee2:	921c      	str	r2, [sp, #112]	; 0x70
10003ee4:	9404      	str	r4, [sp, #16]
10003ee6:	9a0a      	ldr	r2, [sp, #40]	; 0x28
10003ee8:	9203      	str	r2, [sp, #12]
10003eea:	4652      	mov	r2, sl
10003eec:	9202      	str	r2, [sp, #8]
10003eee:	685c      	ldr	r4, [r3, #4]
10003ef0:	681b      	ldr	r3, [r3, #0]
10003ef2:	9300      	str	r3, [sp, #0]
10003ef4:	9401      	str	r4, [sp, #4]
10003ef6:	4643      	mov	r3, r8
10003ef8:	003a      	movs	r2, r7
10003efa:	4659      	mov	r1, fp
10003efc:	0028      	movs	r0, r5
10003efe:	f7ff fc65 	bl	100037cc <_ftoa>
10003f02:	0007      	movs	r7, r0
10003f04:	9b11      	ldr	r3, [sp, #68]	; 0x44
10003f06:	3301      	adds	r3, #1
10003f08:	9311      	str	r3, [sp, #68]	; 0x44
10003f0a:	e619      	b.n	10003b40 <_vsnprintf+0x20>
10003f0c:	2320      	movs	r3, #32
10003f0e:	431c      	orrs	r4, r3
10003f10:	e7e1      	b.n	10003ed6 <_vsnprintf+0x3b6>
10003f12:	2867      	cmp	r0, #103	; 0x67
10003f14:	d001      	beq.n	10003f1a <_vsnprintf+0x3fa>
10003f16:	2847      	cmp	r0, #71	; 0x47
10003f18:	d102      	bne.n	10003f20 <_vsnprintf+0x400>
10003f1a:	2380      	movs	r3, #128	; 0x80
10003f1c:	011b      	lsls	r3, r3, #4
10003f1e:	431c      	orrs	r4, r3
10003f20:	2845      	cmp	r0, #69	; 0x45
10003f22:	d001      	beq.n	10003f28 <_vsnprintf+0x408>
10003f24:	2847      	cmp	r0, #71	; 0x47
10003f26:	d101      	bne.n	10003f2c <_vsnprintf+0x40c>
10003f28:	2320      	movs	r3, #32
10003f2a:	431c      	orrs	r4, r3
10003f2c:	9b1c      	ldr	r3, [sp, #112]	; 0x70
10003f2e:	3307      	adds	r3, #7
10003f30:	2207      	movs	r2, #7
10003f32:	4393      	bics	r3, r2
10003f34:	001a      	movs	r2, r3
10003f36:	3208      	adds	r2, #8
10003f38:	921c      	str	r2, [sp, #112]	; 0x70
10003f3a:	9404      	str	r4, [sp, #16]
10003f3c:	9a0a      	ldr	r2, [sp, #40]	; 0x28
10003f3e:	9203      	str	r2, [sp, #12]
10003f40:	4652      	mov	r2, sl
10003f42:	9202      	str	r2, [sp, #8]
10003f44:	685c      	ldr	r4, [r3, #4]
10003f46:	681b      	ldr	r3, [r3, #0]
10003f48:	9300      	str	r3, [sp, #0]
10003f4a:	9401      	str	r4, [sp, #4]
10003f4c:	4643      	mov	r3, r8
10003f4e:	003a      	movs	r2, r7
10003f50:	4659      	mov	r1, fp
10003f52:	0028      	movs	r0, r5
10003f54:	f7ff fa30 	bl	100033b8 <_etoa>
10003f58:	0007      	movs	r7, r0
10003f5a:	9b11      	ldr	r3, [sp, #68]	; 0x44
10003f5c:	3301      	adds	r3, #1
10003f5e:	9311      	str	r3, [sp, #68]	; 0x44
10003f60:	e5ee      	b.n	10003b40 <_vsnprintf+0x20>
10003f62:	2302      	movs	r3, #2
10003f64:	001a      	movs	r2, r3
10003f66:	4022      	ands	r2, r4
10003f68:	4692      	mov	sl, r2
10003f6a:	4223      	tst	r3, r4
10003f6c:	d01f      	beq.n	10003fae <_vsnprintf+0x48e>
10003f6e:	2401      	movs	r4, #1
10003f70:	9b1c      	ldr	r3, [sp, #112]	; 0x70
10003f72:	1d1a      	adds	r2, r3, #4
10003f74:	921c      	str	r2, [sp, #112]	; 0x70
10003f76:	1c7a      	adds	r2, r7, #1
10003f78:	4691      	mov	r9, r2
10003f7a:	7818      	ldrb	r0, [r3, #0]
10003f7c:	4643      	mov	r3, r8
10003f7e:	003a      	movs	r2, r7
10003f80:	4659      	mov	r1, fp
10003f82:	47a8      	blx	r5
10003f84:	4653      	mov	r3, sl
10003f86:	2b00      	cmp	r3, #0
10003f88:	d116      	bne.n	10003fb8 <_vsnprintf+0x498>
10003f8a:	9b11      	ldr	r3, [sp, #68]	; 0x44
10003f8c:	3301      	adds	r3, #1
10003f8e:	9311      	str	r3, [sp, #68]	; 0x44
10003f90:	464f      	mov	r7, r9
10003f92:	e5d5      	b.n	10003b40 <_vsnprintf+0x20>
10003f94:	1c56      	adds	r6, r2, #1
10003f96:	4643      	mov	r3, r8
10003f98:	4659      	mov	r1, fp
10003f9a:	2020      	movs	r0, #32
10003f9c:	47b8      	blx	r7
10003f9e:	0023      	movs	r3, r4
10003fa0:	0032      	movs	r2, r6
10003fa2:	1c5c      	adds	r4, r3, #1
10003fa4:	429d      	cmp	r5, r3
10003fa6:	d8f5      	bhi.n	10003f94 <_vsnprintf+0x474>
10003fa8:	003d      	movs	r5, r7
10003faa:	0017      	movs	r7, r2
10003fac:	e7e0      	b.n	10003f70 <_vsnprintf+0x450>
10003fae:	2301      	movs	r3, #1
10003fb0:	003a      	movs	r2, r7
10003fb2:	002f      	movs	r7, r5
10003fb4:	9d0a      	ldr	r5, [sp, #40]	; 0x28
10003fb6:	e7f4      	b.n	10003fa2 <_vsnprintf+0x482>
10003fb8:	464a      	mov	r2, r9
10003fba:	46a9      	mov	r9, r5
10003fbc:	9d0a      	ldr	r5, [sp, #40]	; 0x28
10003fbe:	e006      	b.n	10003fce <_vsnprintf+0x4ae>
10003fc0:	1c57      	adds	r7, r2, #1
10003fc2:	4643      	mov	r3, r8
10003fc4:	4659      	mov	r1, fp
10003fc6:	2020      	movs	r0, #32
10003fc8:	47c8      	blx	r9
10003fca:	0034      	movs	r4, r6
10003fcc:	003a      	movs	r2, r7
10003fce:	1c66      	adds	r6, r4, #1
10003fd0:	42a5      	cmp	r5, r4
10003fd2:	d8f5      	bhi.n	10003fc0 <_vsnprintf+0x4a0>
10003fd4:	464d      	mov	r5, r9
10003fd6:	4691      	mov	r9, r2
10003fd8:	e7d7      	b.n	10003f8a <_vsnprintf+0x46a>
10003fda:	9b1c      	ldr	r3, [sp, #112]	; 0x70
10003fdc:	1d1a      	adds	r2, r3, #4
10003fde:	921c      	str	r2, [sp, #112]	; 0x70
10003fe0:	681b      	ldr	r3, [r3, #0]
10003fe2:	4699      	mov	r9, r3
10003fe4:	4653      	mov	r3, sl
10003fe6:	2b00      	cmp	r3, #0
10003fe8:	d100      	bne.n	10003fec <_vsnprintf+0x4cc>
10003fea:	3b01      	subs	r3, #1
10003fec:	464e      	mov	r6, r9
10003fee:	e001      	b.n	10003ff4 <_vsnprintf+0x4d4>
10003ff0:	3601      	adds	r6, #1
10003ff2:	0013      	movs	r3, r2
10003ff4:	7832      	ldrb	r2, [r6, #0]
10003ff6:	2a00      	cmp	r2, #0
10003ff8:	d002      	beq.n	10004000 <_vsnprintf+0x4e0>
10003ffa:	1e5a      	subs	r2, r3, #1
10003ffc:	2b00      	cmp	r3, #0
10003ffe:	d1f7      	bne.n	10003ff0 <_vsnprintf+0x4d0>
10004000:	464b      	mov	r3, r9
10004002:	1af2      	subs	r2, r6, r3
10004004:	9210      	str	r2, [sp, #64]	; 0x40
10004006:	2380      	movs	r3, #128	; 0x80
10004008:	00db      	lsls	r3, r3, #3
1000400a:	0026      	movs	r6, r4
1000400c:	401e      	ands	r6, r3
1000400e:	421c      	tst	r4, r3
10004010:	d003      	beq.n	1000401a <_vsnprintf+0x4fa>
10004012:	4552      	cmp	r2, sl
10004014:	d901      	bls.n	1000401a <_vsnprintf+0x4fa>
10004016:	4653      	mov	r3, sl
10004018:	9310      	str	r3, [sp, #64]	; 0x40
1000401a:	2302      	movs	r3, #2
1000401c:	001a      	movs	r2, r3
1000401e:	4022      	ands	r2, r4
10004020:	920b      	str	r2, [sp, #44]	; 0x2c
10004022:	4223      	tst	r3, r4
10004024:	d005      	beq.n	10004032 <_vsnprintf+0x512>
10004026:	003a      	movs	r2, r7
10004028:	0037      	movs	r7, r6
1000402a:	464c      	mov	r4, r9
1000402c:	46a9      	mov	r9, r5
1000402e:	4655      	mov	r5, sl
10004030:	e020      	b.n	10004074 <_vsnprintf+0x554>
10004032:	003a      	movs	r2, r7
10004034:	9b10      	ldr	r3, [sp, #64]	; 0x40
10004036:	465f      	mov	r7, fp
10004038:	46b3      	mov	fp, r6
1000403a:	002e      	movs	r6, r5
1000403c:	e006      	b.n	1000404c <_vsnprintf+0x52c>
1000403e:	1c55      	adds	r5, r2, #1
10004040:	4643      	mov	r3, r8
10004042:	0039      	movs	r1, r7
10004044:	2020      	movs	r0, #32
10004046:	47b0      	blx	r6
10004048:	0023      	movs	r3, r4
1000404a:	002a      	movs	r2, r5
1000404c:	1c5c      	adds	r4, r3, #1
1000404e:	990a      	ldr	r1, [sp, #40]	; 0x28
10004050:	4299      	cmp	r1, r3
10004052:	d8f4      	bhi.n	1000403e <_vsnprintf+0x51e>
10004054:	0035      	movs	r5, r6
10004056:	465e      	mov	r6, fp
10004058:	46bb      	mov	fp, r7
1000405a:	9410      	str	r4, [sp, #64]	; 0x40
1000405c:	0037      	movs	r7, r6
1000405e:	464c      	mov	r4, r9
10004060:	46a9      	mov	r9, r5
10004062:	4655      	mov	r5, sl
10004064:	e006      	b.n	10004074 <_vsnprintf+0x554>
10004066:	001d      	movs	r5, r3
10004068:	3401      	adds	r4, #1
1000406a:	1c56      	adds	r6, r2, #1
1000406c:	4643      	mov	r3, r8
1000406e:	4659      	mov	r1, fp
10004070:	47c8      	blx	r9
10004072:	0032      	movs	r2, r6
10004074:	7820      	ldrb	r0, [r4, #0]
10004076:	2800      	cmp	r0, #0
10004078:	d004      	beq.n	10004084 <_vsnprintf+0x564>
1000407a:	2f00      	cmp	r7, #0
1000407c:	d0f4      	beq.n	10004068 <_vsnprintf+0x548>
1000407e:	1e6b      	subs	r3, r5, #1
10004080:	2d00      	cmp	r5, #0
10004082:	d1f0      	bne.n	10004066 <_vsnprintf+0x546>
10004084:	0017      	movs	r7, r2
10004086:	464d      	mov	r5, r9
10004088:	9b0b      	ldr	r3, [sp, #44]	; 0x2c
1000408a:	2b00      	cmp	r3, #0
1000408c:	d103      	bne.n	10004096 <_vsnprintf+0x576>
1000408e:	9b11      	ldr	r3, [sp, #68]	; 0x44
10004090:	3301      	adds	r3, #1
10004092:	9311      	str	r3, [sp, #68]	; 0x44
10004094:	e554      	b.n	10003b40 <_vsnprintf+0x20>
10004096:	9f0a      	ldr	r7, [sp, #40]	; 0x28
10004098:	9b10      	ldr	r3, [sp, #64]	; 0x40
1000409a:	e006      	b.n	100040aa <_vsnprintf+0x58a>
1000409c:	1c56      	adds	r6, r2, #1
1000409e:	4643      	mov	r3, r8
100040a0:	4659      	mov	r1, fp
100040a2:	2020      	movs	r0, #32
100040a4:	47a8      	blx	r5
100040a6:	0023      	movs	r3, r4
100040a8:	0032      	movs	r2, r6
100040aa:	1c5c      	adds	r4, r3, #1
100040ac:	429f      	cmp	r7, r3
100040ae:	d8f5      	bhi.n	1000409c <_vsnprintf+0x57c>
100040b0:	0017      	movs	r7, r2
100040b2:	e7ec      	b.n	1000408e <_vsnprintf+0x56e>
100040b4:	2321      	movs	r3, #33	; 0x21
100040b6:	431c      	orrs	r4, r3
100040b8:	9b1c      	ldr	r3, [sp, #112]	; 0x70
100040ba:	1d1a      	adds	r2, r3, #4
100040bc:	921c      	str	r2, [sp, #112]	; 0x70
100040be:	681b      	ldr	r3, [r3, #0]
100040c0:	9300      	str	r3, [sp, #0]
100040c2:	9405      	str	r4, [sp, #20]
100040c4:	2308      	movs	r3, #8
100040c6:	9304      	str	r3, [sp, #16]
100040c8:	4653      	mov	r3, sl
100040ca:	9303      	str	r3, [sp, #12]
100040cc:	2310      	movs	r3, #16
100040ce:	9302      	str	r3, [sp, #8]
100040d0:	2300      	movs	r3, #0
100040d2:	9301      	str	r3, [sp, #4]
100040d4:	4643      	mov	r3, r8
100040d6:	003a      	movs	r2, r7
100040d8:	4659      	mov	r1, fp
100040da:	0028      	movs	r0, r5
100040dc:	f7ff f89c 	bl	10003218 <_ntoa_long>
100040e0:	0007      	movs	r7, r0
100040e2:	9b11      	ldr	r3, [sp, #68]	; 0x44
100040e4:	3301      	adds	r3, #1
100040e6:	9311      	str	r3, [sp, #68]	; 0x44
100040e8:	e52a      	b.n	10003b40 <_vsnprintf+0x20>
100040ea:	1c7c      	adds	r4, r7, #1
100040ec:	4643      	mov	r3, r8
100040ee:	003a      	movs	r2, r7
100040f0:	4659      	mov	r1, fp
100040f2:	2025      	movs	r0, #37	; 0x25
100040f4:	47a8      	blx	r5
100040f6:	9b11      	ldr	r3, [sp, #68]	; 0x44
100040f8:	3301      	adds	r3, #1
100040fa:	9311      	str	r3, [sp, #68]	; 0x44
100040fc:	0027      	movs	r7, r4
100040fe:	e51f      	b.n	10003b40 <_vsnprintf+0x20>
10004100:	1c7c      	adds	r4, r7, #1
10004102:	4643      	mov	r3, r8
10004104:	003a      	movs	r2, r7
10004106:	4659      	mov	r1, fp
10004108:	47a8      	blx	r5
1000410a:	9b11      	ldr	r3, [sp, #68]	; 0x44
1000410c:	3301      	adds	r3, #1
1000410e:	9311      	str	r3, [sp, #68]	; 0x44
10004110:	0027      	movs	r7, r4
10004112:	e515      	b.n	10003b40 <_vsnprintf+0x20>
10004114:	4b0a      	ldr	r3, [pc, #40]	; (10004140 <_vsnprintf+0x620>)
10004116:	469a      	mov	sl, r3
10004118:	e510      	b.n	10003b3c <_vsnprintf+0x1c>
1000411a:	46aa      	mov	sl, r5
1000411c:	4547      	cmp	r7, r8
1000411e:	d302      	bcc.n	10004126 <_vsnprintf+0x606>
10004120:	4643      	mov	r3, r8
10004122:	1e5a      	subs	r2, r3, #1
10004124:	e000      	b.n	10004128 <_vsnprintf+0x608>
10004126:	003a      	movs	r2, r7
10004128:	4643      	mov	r3, r8
1000412a:	4659      	mov	r1, fp
1000412c:	2000      	movs	r0, #0
1000412e:	47d0      	blx	sl
10004130:	0038      	movs	r0, r7
10004132:	b013      	add	sp, #76	; 0x4c
10004134:	bcf0      	pop	{r4, r5, r6, r7}
10004136:	46bb      	mov	fp, r7
10004138:	46b2      	mov	sl, r6
1000413a:	46a9      	mov	r9, r5
1000413c:	46a0      	mov	r8, r4
1000413e:	bdf0      	pop	{r4, r5, r6, r7, pc}
10004140:	10003025 	.word	0x10003025

10004144 <__wrap_sprintf>:
10004144:	b40e      	push	{r1, r2, r3}
10004146:	b510      	push	{r4, lr}
10004148:	b085      	sub	sp, #20
1000414a:	0001      	movs	r1, r0
1000414c:	ac07      	add	r4, sp, #28
1000414e:	cc08      	ldmia	r4!, {r3}
10004150:	9403      	str	r4, [sp, #12]
10004152:	2201      	movs	r2, #1
10004154:	9400      	str	r4, [sp, #0]
10004156:	4252      	negs	r2, r2
10004158:	4803      	ldr	r0, [pc, #12]	; (10004168 <__wrap_sprintf+0x24>)
1000415a:	f7ff fce1 	bl	10003b20 <_vsnprintf>
1000415e:	b005      	add	sp, #20
10004160:	bc10      	pop	{r4}
10004162:	bc08      	pop	{r3}
10004164:	b003      	add	sp, #12
10004166:	4718      	bx	r3
10004168:	1000301d 	.word	0x1000301d

1000416c <vfctprintf>:
1000416c:	b500      	push	{lr}
1000416e:	b085      	sub	sp, #20
10004170:	9002      	str	r0, [sp, #8]
10004172:	9103      	str	r1, [sp, #12]
10004174:	2101      	movs	r1, #1
10004176:	9300      	str	r3, [sp, #0]
10004178:	0013      	movs	r3, r2
1000417a:	424a      	negs	r2, r1
1000417c:	a902      	add	r1, sp, #8
1000417e:	4802      	ldr	r0, [pc, #8]	; (10004188 <vfctprintf+0x1c>)
10004180:	f7ff fcce 	bl	10003b20 <_vsnprintf>
10004184:	b005      	add	sp, #20
10004186:	bd00      	pop	{pc}
10004188:	10003027 	.word	0x10003027

1000418c <__aeabi_bits_init>:
1000418c:	4801      	ldr	r0, [pc, #4]	; (10004194 <__aeabi_bits_init+0x8>)
1000418e:	2104      	movs	r1, #4
10004190:	4b01      	ldr	r3, [pc, #4]	; (10004198 <__aeabi_bits_init+0xc>)
10004192:	4718      	bx	r3
10004194:	20001390 	.word	0x20001390
10004198:	100041c9 	.word	0x100041c9

1000419c <__wrap___clz>:
1000419c:	4b01      	ldr	r3, [pc, #4]	; (100041a4 <__wrap___clz+0x8>)
1000419e:	685b      	ldr	r3, [r3, #4]
100041a0:	4718      	bx	r3
100041a2:	0000      	.short	0x0000
100041a4:	20001390 	.word	0x20001390

100041a8 <rom_func_lookup>:
100041a8:	b510      	push	{r4, lr}
100041aa:	0001      	movs	r1, r0
100041ac:	2318      	movs	r3, #24
100041ae:	881b      	ldrh	r3, [r3, #0]
100041b0:	2214      	movs	r2, #20
100041b2:	8810      	ldrh	r0, [r2, #0]
100041b4:	4798      	blx	r3
100041b6:	bd10      	pop	{r4, pc}

100041b8 <rom_data_lookup>:
100041b8:	b510      	push	{r4, lr}
100041ba:	0001      	movs	r1, r0
100041bc:	2318      	movs	r3, #24
100041be:	881b      	ldrh	r3, [r3, #0]
100041c0:	2216      	movs	r2, #22
100041c2:	8810      	ldrh	r0, [r2, #0]
100041c4:	4798      	blx	r3
100041c6:	bd10      	pop	{r4, pc}

100041c8 <rom_funcs_lookup>:
100041c8:	b5f0      	push	{r4, r5, r6, r7, lr}
100041ca:	46c6      	mov	lr, r8
100041cc:	b500      	push	{lr}
100041ce:	0007      	movs	r7, r0
100041d0:	000e      	movs	r6, r1
100041d2:	2500      	movs	r5, #0
100041d4:	2301      	movs	r3, #1
100041d6:	4698      	mov	r8, r3
100041d8:	e000      	b.n	100041dc <rom_funcs_lookup+0x14>
100041da:	3501      	adds	r5, #1
100041dc:	42b5      	cmp	r5, r6
100041de:	d20a      	bcs.n	100041f6 <rom_funcs_lookup+0x2e>
100041e0:	00ac      	lsls	r4, r5, #2
100041e2:	193c      	adds	r4, r7, r4
100041e4:	6820      	ldr	r0, [r4, #0]
100041e6:	f7ff ffdf 	bl	100041a8 <rom_func_lookup>
100041ea:	6020      	str	r0, [r4, #0]
100041ec:	2800      	cmp	r0, #0
100041ee:	d1f4      	bne.n	100041da <rom_funcs_lookup+0x12>
100041f0:	2300      	movs	r3, #0
100041f2:	4698      	mov	r8, r3
100041f4:	e7f1      	b.n	100041da <rom_funcs_lookup+0x12>
100041f6:	4640      	mov	r0, r8
100041f8:	bc80      	pop	{r7}
100041fa:	46b8      	mov	r8, r7
100041fc:	bdf0      	pop	{r4, r5, r6, r7, pc}
	...

10004200 <__wrap___aeabi_idiv>:
10004200:	4a12      	ldr	r2, [pc, #72]	; (1000424c <divmod_s32s32_savestate+0x18>)
10004202:	6f93      	ldr	r3, [r2, #120]	; 0x78
10004204:	089b      	lsrs	r3, r3, #2
10004206:	d215      	bcs.n	10004234 <divmod_s32s32_savestate>

10004208 <divmod_s32s32_unsafe>:
10004208:	6690      	str	r0, [r2, #104]	; 0x68
1000420a:	66d1      	str	r1, [r2, #108]	; 0x6c
1000420c:	2900      	cmp	r1, #0
1000420e:	d005      	beq.n	1000421c <divmod_s32s32_unsafe+0x14>
10004210:	e7ff      	b.n	10004212 <divmod_s32s32_unsafe+0xa>
10004212:	e7ff      	b.n	10004214 <divmod_s32s32_unsafe+0xc>
10004214:	e7ff      	b.n	10004216 <divmod_s32s32_unsafe+0xe>
10004216:	6f51      	ldr	r1, [r2, #116]	; 0x74
10004218:	6f10      	ldr	r0, [r2, #112]	; 0x70
1000421a:	4770      	bx	lr
1000421c:	b504      	push	{r2, lr}
1000421e:	2180      	movs	r1, #128	; 0x80
10004220:	0609      	lsls	r1, r1, #24
10004222:	17c2      	asrs	r2, r0, #31
10004224:	4051      	eors	r1, r2
10004226:	2800      	cmp	r0, #0
10004228:	d000      	beq.n	1000422c <divmod_s32s32_unsafe+0x24>
1000422a:	43c8      	mvns	r0, r1
1000422c:	f00e ffe8 	bl	10013200 <____aeabi_idiv0_veneer>
10004230:	2100      	movs	r1, #0
10004232:	bd04      	pop	{r2, pc}

10004234 <divmod_s32s32_savestate>:
10004234:	b5f0      	push	{r4, r5, r6, r7, lr}
10004236:	6e14      	ldr	r4, [r2, #96]	; 0x60
10004238:	6e55      	ldr	r5, [r2, #100]	; 0x64
1000423a:	6f57      	ldr	r7, [r2, #116]	; 0x74
1000423c:	6f16      	ldr	r6, [r2, #112]	; 0x70
1000423e:	f7ff ffe3 	bl	10004208 <divmod_s32s32_unsafe>
10004242:	6614      	str	r4, [r2, #96]	; 0x60
10004244:	6655      	str	r5, [r2, #100]	; 0x64
10004246:	6757      	str	r7, [r2, #116]	; 0x74
10004248:	6716      	str	r6, [r2, #112]	; 0x70
1000424a:	bdf0      	pop	{r4, r5, r6, r7, pc}
1000424c:	d0000000 	.word	0xd0000000

10004250 <__wrap___aeabi_uidiv>:
10004250:	4a11      	ldr	r2, [pc, #68]	; (10004298 <divmod_u32u32_savestate+0x18>)
10004252:	6f93      	ldr	r3, [r2, #120]	; 0x78
10004254:	089b      	lsrs	r3, r3, #2
10004256:	d213      	bcs.n	10004280 <divmod_u32u32_savestate>

10004258 <divmod_u32u32_unsafe>:
10004258:	6610      	str	r0, [r2, #96]	; 0x60
1000425a:	6651      	str	r1, [r2, #100]	; 0x64
1000425c:	2900      	cmp	r1, #0
1000425e:	d005      	beq.n	1000426c <divmod_u32u32_unsafe+0x14>
10004260:	e7ff      	b.n	10004262 <divmod_u32u32_unsafe+0xa>
10004262:	e7ff      	b.n	10004264 <divmod_u32u32_unsafe+0xc>
10004264:	e7ff      	b.n	10004266 <divmod_u32u32_unsafe+0xe>
10004266:	6f51      	ldr	r1, [r2, #116]	; 0x74
10004268:	6f10      	ldr	r0, [r2, #112]	; 0x70
1000426a:	4770      	bx	lr
1000426c:	b504      	push	{r2, lr}
1000426e:	2800      	cmp	r0, #0
10004270:	d001      	beq.n	10004276 <divmod_u32u32_unsafe+0x1e>
10004272:	2000      	movs	r0, #0
10004274:	43c0      	mvns	r0, r0
10004276:	f00e ffc3 	bl	10013200 <____aeabi_idiv0_veneer>
1000427a:	2100      	movs	r1, #0
1000427c:	bd04      	pop	{r2, pc}
1000427e:	46c0      	nop			; (mov r8, r8)

10004280 <divmod_u32u32_savestate>:
10004280:	b5f0      	push	{r4, r5, r6, r7, lr}
10004282:	6e14      	ldr	r4, [r2, #96]	; 0x60
10004284:	6e55      	ldr	r5, [r2, #100]	; 0x64
10004286:	6f57      	ldr	r7, [r2, #116]	; 0x74
10004288:	6f16      	ldr	r6, [r2, #112]	; 0x70
1000428a:	f7ff ffe5 	bl	10004258 <divmod_u32u32_unsafe>
1000428e:	6614      	str	r4, [r2, #96]	; 0x60
10004290:	6655      	str	r5, [r2, #100]	; 0x64
10004292:	6757      	str	r7, [r2, #116]	; 0x74
10004294:	6716      	str	r6, [r2, #112]	; 0x70
10004296:	bdf0      	pop	{r4, r5, r6, r7, pc}
10004298:	d0000000 	.word	0xd0000000

1000429c <__wrap___aeabi_ldivmod>:
1000429c:	4694      	mov	ip, r2
1000429e:	4a4a      	ldr	r2, [pc, #296]	; (100043c8 <udiv0+0x1a>)
100042a0:	6f92      	ldr	r2, [r2, #120]	; 0x78
100042a2:	0892      	lsrs	r2, r2, #2
100042a4:	4662      	mov	r2, ip
100042a6:	d201      	bcs.n	100042ac <divmod_s64s64_savestate>
100042a8:	e028      	b.n	100042fc <divmod_s64s64_unsafe>
100042aa:	46c0      	nop			; (mov r8, r8)

100042ac <divmod_s64s64_savestate>:
100042ac:	b5f0      	push	{r4, r5, r6, r7, lr}
100042ae:	4e46      	ldr	r6, [pc, #280]	; (100043c8 <udiv0+0x1a>)
100042b0:	6e34      	ldr	r4, [r6, #96]	; 0x60
100042b2:	6e75      	ldr	r5, [r6, #100]	; 0x64
100042b4:	6f77      	ldr	r7, [r6, #116]	; 0x74
100042b6:	6f36      	ldr	r6, [r6, #112]	; 0x70
100042b8:	f000 f820 	bl	100042fc <divmod_s64s64_unsafe>
100042bc:	4694      	mov	ip, r2
100042be:	4a42      	ldr	r2, [pc, #264]	; (100043c8 <udiv0+0x1a>)
100042c0:	6614      	str	r4, [r2, #96]	; 0x60
100042c2:	6655      	str	r5, [r2, #100]	; 0x64
100042c4:	6757      	str	r7, [r2, #116]	; 0x74
100042c6:	6716      	str	r6, [r2, #112]	; 0x70
100042c8:	4662      	mov	r2, ip
100042ca:	bdf0      	pop	{r4, r5, r6, r7, pc}

100042cc <__wrap___aeabi_uldivmod>:
100042cc:	4694      	mov	ip, r2
100042ce:	4a3e      	ldr	r2, [pc, #248]	; (100043c8 <udiv0+0x1a>)
100042d0:	6f92      	ldr	r2, [r2, #120]	; 0x78
100042d2:	0892      	lsrs	r2, r2, #2
100042d4:	4662      	mov	r2, ip
100042d6:	d201      	bcs.n	100042dc <divmod_u64u64_savestate>
100042d8:	e054      	b.n	10004384 <divmod_u64u64_unsafe>
100042da:	46c0      	nop			; (mov r8, r8)

100042dc <divmod_u64u64_savestate>:
100042dc:	b5f0      	push	{r4, r5, r6, r7, lr}
100042de:	4e3a      	ldr	r6, [pc, #232]	; (100043c8 <udiv0+0x1a>)
100042e0:	6e34      	ldr	r4, [r6, #96]	; 0x60
100042e2:	6e75      	ldr	r5, [r6, #100]	; 0x64
100042e4:	6f77      	ldr	r7, [r6, #116]	; 0x74
100042e6:	6f36      	ldr	r6, [r6, #112]	; 0x70
100042e8:	f000 f84c 	bl	10004384 <divmod_u64u64_unsafe>
100042ec:	4694      	mov	ip, r2
100042ee:	4a36      	ldr	r2, [pc, #216]	; (100043c8 <udiv0+0x1a>)
100042f0:	6614      	str	r4, [r2, #96]	; 0x60
100042f2:	6655      	str	r5, [r2, #100]	; 0x64
100042f4:	6757      	str	r7, [r2, #116]	; 0x74
100042f6:	6716      	str	r6, [r2, #112]	; 0x70
100042f8:	4662      	mov	r2, ip
100042fa:	bdf0      	pop	{r4, r5, r6, r7, pc}

100042fc <divmod_s64s64_unsafe>:
100042fc:	2b00      	cmp	r3, #0
100042fe:	db24      	blt.n	1000434a <l42_1+0x26>
10004300:	d011      	beq.n	10004326 <l42_1+0x2>
10004302:	2900      	cmp	r1, #0
10004304:	da3e      	bge.n	10004384 <divmod_u64u64_unsafe>
10004306:	b500      	push	{lr}
10004308:	43c9      	mvns	r1, r1
1000430a:	4240      	negs	r0, r0
1000430c:	d100      	bne.n	10004310 <l40_1>
1000430e:	3101      	adds	r1, #1

10004310 <l40_1>:
10004310:	f000 f838 	bl	10004384 <divmod_u64u64_unsafe>
10004314:	43c9      	mvns	r1, r1
10004316:	4240      	negs	r0, r0
10004318:	d100      	bne.n	1000431c <l41_1>
1000431a:	3101      	adds	r1, #1

1000431c <l41_1>:
1000431c:	43db      	mvns	r3, r3
1000431e:	4252      	negs	r2, r2
10004320:	d100      	bne.n	10004324 <l42_1>
10004322:	3301      	adds	r3, #1

10004324 <l42_1>:
10004324:	bd00      	pop	{pc}
10004326:	2a00      	cmp	r2, #0
10004328:	d1eb      	bne.n	10004302 <divmod_s64s64_unsafe+0x6>
1000432a:	2800      	cmp	r0, #0
1000432c:	d101      	bne.n	10004332 <l42_1+0xe>
1000432e:	2900      	cmp	r1, #0
10004330:	d005      	beq.n	1000433e <l42_1+0x1a>
10004332:	2000      	movs	r0, #0
10004334:	0fc9      	lsrs	r1, r1, #31
10004336:	07c9      	lsls	r1, r1, #31
10004338:	d101      	bne.n	1000433e <l42_1+0x1a>
1000433a:	43c0      	mvns	r0, r0
1000433c:	0841      	lsrs	r1, r0, #1
1000433e:	b500      	push	{lr}
10004340:	f00e ff36 	bl	100131b0 <____aeabi_ldiv0_veneer>
10004344:	2200      	movs	r2, #0
10004346:	2300      	movs	r3, #0
10004348:	bd00      	pop	{pc}
1000434a:	b500      	push	{lr}
1000434c:	2900      	cmp	r1, #0
1000434e:	db0a      	blt.n	10004366 <l44_1+0x2>
10004350:	43db      	mvns	r3, r3
10004352:	4252      	negs	r2, r2
10004354:	d100      	bne.n	10004358 <l43_1>
10004356:	3301      	adds	r3, #1

10004358 <l43_1>:
10004358:	f000 f814 	bl	10004384 <divmod_u64u64_unsafe>
1000435c:	43c9      	mvns	r1, r1
1000435e:	4240      	negs	r0, r0
10004360:	d100      	bne.n	10004364 <l44_1>
10004362:	3101      	adds	r1, #1

10004364 <l44_1>:
10004364:	bd00      	pop	{pc}
10004366:	43c9      	mvns	r1, r1
10004368:	4240      	negs	r0, r0
1000436a:	d100      	bne.n	1000436e <l45_1>
1000436c:	3101      	adds	r1, #1

1000436e <l45_1>:
1000436e:	43db      	mvns	r3, r3
10004370:	4252      	negs	r2, r2
10004372:	d100      	bne.n	10004376 <l46_1>
10004374:	3301      	adds	r3, #1

10004376 <l46_1>:
10004376:	f000 f805 	bl	10004384 <divmod_u64u64_unsafe>
1000437a:	43db      	mvns	r3, r3
1000437c:	4252      	negs	r2, r2
1000437e:	d100      	bne.n	10004382 <l47_1>
10004380:	3301      	adds	r3, #1

10004382 <l47_1>:
10004382:	bd00      	pop	{pc}

10004384 <divmod_u64u64_unsafe>:
10004384:	2900      	cmp	r1, #0
10004386:	d123      	bne.n	100043d0 <y64>
10004388:	2b00      	cmp	r3, #0
1000438a:	d118      	bne.n	100043be <udiv0+0x10>
1000438c:	2a00      	cmp	r2, #0
1000438e:	d00c      	beq.n	100043aa <divmod_u64u64_unsafe+0x26>
10004390:	46bc      	mov	ip, r7
10004392:	4f0d      	ldr	r7, [pc, #52]	; (100043c8 <udiv0+0x1a>)
10004394:	6638      	str	r0, [r7, #96]	; 0x60
10004396:	667a      	str	r2, [r7, #100]	; 0x64
10004398:	2100      	movs	r1, #0
1000439a:	2300      	movs	r3, #0
1000439c:	e7ff      	b.n	1000439e <divmod_u64u64_unsafe+0x1a>
1000439e:	e7ff      	b.n	100043a0 <divmod_u64u64_unsafe+0x1c>
100043a0:	e7ff      	b.n	100043a2 <divmod_u64u64_unsafe+0x1e>
100043a2:	6f7a      	ldr	r2, [r7, #116]	; 0x74
100043a4:	6f38      	ldr	r0, [r7, #112]	; 0x70
100043a6:	4667      	mov	r7, ip
100043a8:	4770      	bx	lr
100043aa:	2800      	cmp	r0, #0
100043ac:	d001      	beq.n	100043b2 <udiv0+0x4>

100043ae <udiv0>:
100043ae:	4807      	ldr	r0, [pc, #28]	; (100043cc <udiv0+0x1e>)
100043b0:	0001      	movs	r1, r0
100043b2:	b500      	push	{lr}
100043b4:	f00e fefc 	bl	100131b0 <____aeabi_ldiv0_veneer>
100043b8:	2200      	movs	r2, #0
100043ba:	2300      	movs	r3, #0
100043bc:	bd00      	pop	{pc}
100043be:	0002      	movs	r2, r0
100043c0:	000b      	movs	r3, r1
100043c2:	2000      	movs	r0, #0
100043c4:	2100      	movs	r1, #0
100043c6:	4770      	bx	lr
100043c8:	d0000000 	.word	0xd0000000
100043cc:	ffffffff 	.word	0xffffffff

100043d0 <y64>:
100043d0:	2b00      	cmp	r3, #0
100043d2:	d000      	beq.n	100043d6 <y64+0x6>
100043d4:	e0bf      	b.n	10004556 <y64_x48>
100043d6:	0c13      	lsrs	r3, r2, #16
100043d8:	d128      	bne.n	1000442c <y64_x32>
100043da:	2a00      	cmp	r2, #0
100043dc:	d0e7      	beq.n	100043ae <udiv0>
100043de:	b480      	push	{r7}
100043e0:	4f11      	ldr	r7, [pc, #68]	; (10004428 <y64+0x58>)
100043e2:	6639      	str	r1, [r7, #96]	; 0x60
100043e4:	667a      	str	r2, [r7, #100]	; 0x64
100043e6:	e7ff      	b.n	100043e8 <y64+0x18>
100043e8:	e7ff      	b.n	100043ea <y64+0x1a>
100043ea:	b430      	push	{r4, r5}
100043ec:	0c04      	lsrs	r4, r0, #16
100043ee:	6f7b      	ldr	r3, [r7, #116]	; 0x74
100043f0:	6f39      	ldr	r1, [r7, #112]	; 0x70
100043f2:	041b      	lsls	r3, r3, #16
100043f4:	4323      	orrs	r3, r4
100043f6:	663b      	str	r3, [r7, #96]	; 0x60
100043f8:	667a      	str	r2, [r7, #100]	; 0x64
100043fa:	e7ff      	b.n	100043fc <y64+0x2c>
100043fc:	e7ff      	b.n	100043fe <y64+0x2e>
100043fe:	e7ff      	b.n	10004400 <y64+0x30>
10004400:	46c0      	nop			; (mov r8, r8)
10004402:	b284      	uxth	r4, r0
10004404:	6f7b      	ldr	r3, [r7, #116]	; 0x74
10004406:	6f3d      	ldr	r5, [r7, #112]	; 0x70
10004408:	041b      	lsls	r3, r3, #16
1000440a:	4323      	orrs	r3, r4
1000440c:	663b      	str	r3, [r7, #96]	; 0x60
1000440e:	667a      	str	r2, [r7, #100]	; 0x64
10004410:	e7ff      	b.n	10004412 <y64+0x42>
10004412:	e7ff      	b.n	10004414 <y64+0x44>
10004414:	46c0      	nop			; (mov r8, r8)
10004416:	2300      	movs	r3, #0
10004418:	042c      	lsls	r4, r5, #16
1000441a:	0c2d      	lsrs	r5, r5, #16
1000441c:	6f7a      	ldr	r2, [r7, #116]	; 0x74
1000441e:	6f38      	ldr	r0, [r7, #112]	; 0x70
10004420:	1900      	adds	r0, r0, r4
10004422:	4169      	adcs	r1, r5
10004424:	bcb0      	pop	{r4, r5, r7}
10004426:	4770      	bx	lr
10004428:	d0000000 	.word	0xd0000000

1000442c <y64_x32>:
1000442c:	b5f0      	push	{r4, r5, r6, r7, lr}
1000442e:	4694      	mov	ip, r2
10004430:	2500      	movs	r5, #0
10004432:	0e14      	lsrs	r4, r2, #24
10004434:	d101      	bne.n	1000443a <y64_x32+0xe>
10004436:	0212      	lsls	r2, r2, #8
10004438:	3508      	adds	r5, #8
1000443a:	0f14      	lsrs	r4, r2, #28
1000443c:	d101      	bne.n	10004442 <y64_x32+0x16>
1000443e:	0112      	lsls	r2, r2, #4
10004440:	3504      	adds	r5, #4
10004442:	0f94      	lsrs	r4, r2, #30
10004444:	d101      	bne.n	1000444a <y64_x32+0x1e>
10004446:	0092      	lsls	r2, r2, #2
10004448:	3502      	adds	r5, #2
1000444a:	0fd4      	lsrs	r4, r2, #31
1000444c:	d101      	bne.n	10004452 <y64_x32+0x26>
1000444e:	0052      	lsls	r2, r2, #1
10004450:	3501      	adds	r5, #1
10004452:	0bd4      	lsrs	r4, r2, #15
10004454:	3401      	adds	r4, #1
10004456:	4f25      	ldr	r7, [pc, #148]	; (100044ec <y64_x32+0xc0>)
10004458:	667c      	str	r4, [r7, #100]	; 0x64
1000445a:	4c25      	ldr	r4, [pc, #148]	; (100044f0 <y64_x32+0xc4>)
1000445c:	663c      	str	r4, [r7, #96]	; 0x60
1000445e:	0c0e      	lsrs	r6, r1, #16
10004460:	b293      	uxth	r3, r2
10004462:	e7ff      	b.n	10004464 <y64_x32+0x38>
10004464:	e7ff      	b.n	10004466 <y64_x32+0x3a>
10004466:	e7ff      	b.n	10004468 <y64_x32+0x3c>
10004468:	6f3c      	ldr	r4, [r7, #112]	; 0x70
1000446a:	4366      	muls	r6, r4
1000446c:	0c36      	lsrs	r6, r6, #16
1000446e:	0377      	lsls	r7, r6, #13
10004470:	46be      	mov	lr, r7
10004472:	4373      	muls	r3, r6
10004474:	0bdf      	lsrs	r7, r3, #15
10004476:	045b      	lsls	r3, r3, #17
10004478:	1ac0      	subs	r0, r0, r3
1000447a:	41b9      	sbcs	r1, r7
1000447c:	0c13      	lsrs	r3, r2, #16
1000447e:	4373      	muls	r3, r6
10004480:	18db      	adds	r3, r3, r3
10004482:	1ac9      	subs	r1, r1, r3
10004484:	08ce      	lsrs	r6, r1, #3
10004486:	4366      	muls	r6, r4
10004488:	0c36      	lsrs	r6, r6, #16
1000448a:	44b6      	add	lr, r6
1000448c:	b293      	uxth	r3, r2
1000448e:	4373      	muls	r3, r6
10004490:	0f1f      	lsrs	r7, r3, #28
10004492:	011b      	lsls	r3, r3, #4
10004494:	1ac0      	subs	r0, r0, r3
10004496:	41b9      	sbcs	r1, r7
10004498:	0c13      	lsrs	r3, r2, #16
1000449a:	4373      	muls	r3, r6
1000449c:	0b1f      	lsrs	r7, r3, #12
1000449e:	051b      	lsls	r3, r3, #20
100044a0:	1ac0      	subs	r0, r0, r3
100044a2:	41b9      	sbcs	r1, r7
100044a4:	0d86      	lsrs	r6, r0, #22
100044a6:	028f      	lsls	r7, r1, #10
100044a8:	433e      	orrs	r6, r7
100044aa:	4366      	muls	r6, r4
100044ac:	0c36      	lsrs	r6, r6, #16
100044ae:	2d09      	cmp	r5, #9
100044b0:	db24      	blt.n	100044fc <last0>
100044b2:	0a52      	lsrs	r2, r2, #9
100044b4:	4372      	muls	r2, r6
100044b6:	1a80      	subs	r0, r0, r2
100044b8:	0377      	lsls	r7, r6, #13
100044ba:	0a46      	lsrs	r6, r0, #9
100044bc:	4366      	muls	r6, r4
100044be:	0c36      	lsrs	r6, r6, #16
100044c0:	2316      	movs	r3, #22
100044c2:	1b5b      	subs	r3, r3, r5
100044c4:	40de      	lsrs	r6, r3
100044c6:	40df      	lsrs	r7, r3
100044c8:	19bf      	adds	r7, r7, r6
100044ca:	4664      	mov	r4, ip
100044cc:	4366      	muls	r6, r4
100044ce:	1b82      	subs	r2, r0, r6
100044d0:	4670      	mov	r0, lr
100044d2:	3504      	adds	r5, #4
100044d4:	3306      	adds	r3, #6
100044d6:	0001      	movs	r1, r0
100044d8:	40d9      	lsrs	r1, r3
100044da:	40a8      	lsls	r0, r5
100044dc:	19c0      	adds	r0, r0, r7
100044de:	d300      	bcc.n	100044e2 <y64_x32+0xb6>
100044e0:	3101      	adds	r1, #1
100044e2:	42a2      	cmp	r2, r4
100044e4:	d206      	bcs.n	100044f4 <y64_x32+0xc8>
100044e6:	2300      	movs	r3, #0
100044e8:	bdf0      	pop	{r4, r5, r6, r7, pc}
100044ea:	0000      	.short	0x0000
100044ec:	d0000000 	.word	0xd0000000
100044f0:	ffffffff 	.word	0xffffffff
100044f4:	1b12      	subs	r2, r2, r4
100044f6:	3001      	adds	r0, #1
100044f8:	d3f3      	bcc.n	100044e2 <y64_x32+0xb6>
100044fa:	e7f1      	b.n	100044e0 <y64_x32+0xb4>

100044fc <last0>:
100044fc:	2709      	movs	r7, #9
100044fe:	1b7f      	subs	r7, r7, r5
10004500:	40fe      	lsrs	r6, r7
10004502:	4664      	mov	r4, ip
10004504:	b2a2      	uxth	r2, r4
10004506:	4372      	muls	r2, r6
10004508:	1a80      	subs	r0, r0, r2
1000450a:	d200      	bcs.n	1000450e <last0+0x12>
1000450c:	3901      	subs	r1, #1
1000450e:	0c22      	lsrs	r2, r4, #16
10004510:	4372      	muls	r2, r6
10004512:	0c13      	lsrs	r3, r2, #16
10004514:	0412      	lsls	r2, r2, #16
10004516:	1a82      	subs	r2, r0, r2
10004518:	4199      	sbcs	r1, r3
1000451a:	000b      	movs	r3, r1
1000451c:	4670      	mov	r0, lr
1000451e:	3504      	adds	r5, #4
10004520:	3713      	adds	r7, #19
10004522:	0001      	movs	r1, r0
10004524:	40f9      	lsrs	r1, r7
10004526:	40a8      	lsls	r0, r5
10004528:	1980      	adds	r0, r0, r6
1000452a:	d300      	bcc.n	1000452e <last0+0x32>
1000452c:	3101      	adds	r1, #1
1000452e:	2b00      	cmp	r3, #0
10004530:	d102      	bne.n	10004538 <last0+0x3c>
10004532:	42a2      	cmp	r2, r4
10004534:	d20a      	bcs.n	1000454c <last0+0x50>
10004536:	bdf0      	pop	{r4, r5, r6, r7, pc}
10004538:	3001      	adds	r0, #1
1000453a:	d300      	bcc.n	1000453e <last0+0x42>
1000453c:	3101      	adds	r1, #1
1000453e:	1b12      	subs	r2, r2, r4
10004540:	d2fa      	bcs.n	10004538 <last0+0x3c>
10004542:	3b01      	subs	r3, #1
10004544:	d1f8      	bne.n	10004538 <last0+0x3c>
10004546:	42a2      	cmp	r2, r4
10004548:	d200      	bcs.n	1000454c <last0+0x50>
1000454a:	bdf0      	pop	{r4, r5, r6, r7, pc}
1000454c:	3001      	adds	r0, #1
1000454e:	d300      	bcc.n	10004552 <last0+0x56>
10004550:	3101      	adds	r1, #1
10004552:	1b12      	subs	r2, r2, r4
10004554:	e7f7      	b.n	10004546 <last0+0x4a>

10004556 <y64_x48>:
10004556:	b5f0      	push	{r4, r5, r6, r7, lr}
10004558:	0c1c      	lsrs	r4, r3, #16
1000455a:	d000      	beq.n	1000455e <y64_x48+0x8>
1000455c:	e080      	b.n	10004660 <y64_x64>
1000455e:	b40c      	push	{r2, r3}
10004560:	2500      	movs	r5, #0
10004562:	0a1c      	lsrs	r4, r3, #8
10004564:	d104      	bne.n	10004570 <y64_x48+0x1a>
10004566:	021b      	lsls	r3, r3, #8
10004568:	0e16      	lsrs	r6, r2, #24
1000456a:	4333      	orrs	r3, r6
1000456c:	0212      	lsls	r2, r2, #8
1000456e:	3508      	adds	r5, #8
10004570:	0b1c      	lsrs	r4, r3, #12
10004572:	d104      	bne.n	1000457e <y64_x48+0x28>
10004574:	011b      	lsls	r3, r3, #4
10004576:	0f16      	lsrs	r6, r2, #28
10004578:	4333      	orrs	r3, r6
1000457a:	0112      	lsls	r2, r2, #4
1000457c:	3504      	adds	r5, #4
1000457e:	0b9c      	lsrs	r4, r3, #14
10004580:	d104      	bne.n	1000458c <y64_x48+0x36>
10004582:	009b      	lsls	r3, r3, #2
10004584:	0f96      	lsrs	r6, r2, #30
10004586:	4333      	orrs	r3, r6
10004588:	0092      	lsls	r2, r2, #2
1000458a:	3502      	adds	r5, #2
1000458c:	0bdc      	lsrs	r4, r3, #15
1000458e:	d102      	bne.n	10004596 <y64_x48+0x40>
10004590:	1892      	adds	r2, r2, r2
10004592:	415b      	adcs	r3, r3
10004594:	3501      	adds	r5, #1
10004596:	001c      	movs	r4, r3
10004598:	1897      	adds	r7, r2, r2
1000459a:	4164      	adcs	r4, r4
1000459c:	3401      	adds	r4, #1
1000459e:	4f46      	ldr	r7, [pc, #280]	; (100046b8 <y64_x64+0x58>)
100045a0:	667c      	str	r4, [r7, #100]	; 0x64
100045a2:	4c46      	ldr	r4, [pc, #280]	; (100046bc <y64_x64+0x5c>)
100045a4:	663c      	str	r4, [r7, #96]	; 0x60
100045a6:	0c0e      	lsrs	r6, r1, #16
100045a8:	e7ff      	b.n	100045aa <y64_x48+0x54>
100045aa:	e7ff      	b.n	100045ac <y64_x48+0x56>
100045ac:	e7ff      	b.n	100045ae <y64_x48+0x58>
100045ae:	46c0      	nop			; (mov r8, r8)
100045b0:	6f3c      	ldr	r4, [r7, #112]	; 0x70
100045b2:	4366      	muls	r6, r4
100045b4:	0c36      	lsrs	r6, r6, #16
100045b6:	0377      	lsls	r7, r6, #13
100045b8:	46be      	mov	lr, r7
100045ba:	b297      	uxth	r7, r2
100045bc:	4377      	muls	r7, r6
100045be:	1bc0      	subs	r0, r0, r7
100045c0:	d200      	bcs.n	100045c4 <y64_x48+0x6e>
100045c2:	3901      	subs	r1, #1
100045c4:	1bc0      	subs	r0, r0, r7
100045c6:	d200      	bcs.n	100045ca <y64_x48+0x74>
100045c8:	3901      	subs	r1, #1
100045ca:	b29f      	uxth	r7, r3
100045cc:	4377      	muls	r7, r6
100045ce:	1bc9      	subs	r1, r1, r7
100045d0:	1bc9      	subs	r1, r1, r7
100045d2:	0c17      	lsrs	r7, r2, #16
100045d4:	4377      	muls	r7, r6
100045d6:	047e      	lsls	r6, r7, #17
100045d8:	0bff      	lsrs	r7, r7, #15
100045da:	1b80      	subs	r0, r0, r6
100045dc:	41b9      	sbcs	r1, r7
100045de:	08ce      	lsrs	r6, r1, #3
100045e0:	4366      	muls	r6, r4
100045e2:	0c36      	lsrs	r6, r6, #16
100045e4:	2d0c      	cmp	r5, #12
100045e6:	db33      	blt.n	10004650 <last1>
100045e8:	44b6      	add	lr, r6
100045ea:	0b12      	lsrs	r2, r2, #12
100045ec:	051f      	lsls	r7, r3, #20
100045ee:	433a      	orrs	r2, r7
100045f0:	0b1b      	lsrs	r3, r3, #12
100045f2:	b297      	uxth	r7, r2
100045f4:	4377      	muls	r7, r6
100045f6:	1bc0      	subs	r0, r0, r7
100045f8:	d200      	bcs.n	100045fc <y64_x48+0xa6>
100045fa:	3901      	subs	r1, #1
100045fc:	b29f      	uxth	r7, r3
100045fe:	4377      	muls	r7, r6
10004600:	1bc9      	subs	r1, r1, r7
10004602:	0c17      	lsrs	r7, r2, #16
10004604:	4377      	muls	r7, r6
10004606:	043e      	lsls	r6, r7, #16
10004608:	0c3f      	lsrs	r7, r7, #16
1000460a:	1b80      	subs	r0, r0, r6
1000460c:	41b9      	sbcs	r1, r7
1000460e:	0d86      	lsrs	r6, r0, #22
10004610:	028f      	lsls	r7, r1, #10
10004612:	433e      	orrs	r6, r7
10004614:	4366      	muls	r6, r4
10004616:	2729      	movs	r7, #41	; 0x29
10004618:	1b7f      	subs	r7, r7, r5
1000461a:	40fe      	lsrs	r6, r7
1000461c:	3d0c      	subs	r5, #12
1000461e:	4677      	mov	r7, lr
10004620:	40af      	lsls	r7, r5
10004622:	19bf      	adds	r7, r7, r6
10004624:	bc30      	pop	{r4, r5}
10004626:	b2a2      	uxth	r2, r4
10004628:	b2ab      	uxth	r3, r5
1000462a:	4372      	muls	r2, r6
1000462c:	4373      	muls	r3, r6
1000462e:	1a80      	subs	r0, r0, r2
10004630:	4199      	sbcs	r1, r3
10004632:	0c22      	lsrs	r2, r4, #16
10004634:	4372      	muls	r2, r6
10004636:	0c13      	lsrs	r3, r2, #16
10004638:	0412      	lsls	r2, r2, #16
1000463a:	1a80      	subs	r0, r0, r2
1000463c:	4199      	sbcs	r1, r3
1000463e:	0002      	movs	r2, r0
10004640:	000b      	movs	r3, r1
10004642:	3701      	adds	r7, #1
10004644:	1b00      	subs	r0, r0, r4
10004646:	41a9      	sbcs	r1, r5
10004648:	d2f9      	bcs.n	1000463e <y64_x48+0xe8>
1000464a:	1e78      	subs	r0, r7, #1
1000464c:	2100      	movs	r1, #0
1000464e:	bdf0      	pop	{r4, r5, r6, r7, pc}

10004650 <last1>:
10004650:	270c      	movs	r7, #12
10004652:	1b7f      	subs	r7, r7, r5
10004654:	40fe      	lsrs	r6, r7
10004656:	4677      	mov	r7, lr
10004658:	0b7f      	lsrs	r7, r7, #13
1000465a:	40af      	lsls	r7, r5
1000465c:	19ff      	adds	r7, r7, r7
1000465e:	e7e0      	b.n	10004622 <y64_x48+0xcc>

10004660 <y64_x64>:
10004660:	2400      	movs	r4, #0
10004662:	1c5d      	adds	r5, r3, #1
10004664:	d007      	beq.n	10004676 <y64_x64+0x16>
10004666:	4f14      	ldr	r7, [pc, #80]	; (100046b8 <y64_x64+0x58>)
10004668:	667d      	str	r5, [r7, #100]	; 0x64
1000466a:	6639      	str	r1, [r7, #96]	; 0x60
1000466c:	e7ff      	b.n	1000466e <y64_x64+0xe>
1000466e:	e7ff      	b.n	10004670 <y64_x64+0x10>
10004670:	e7ff      	b.n	10004672 <y64_x64+0x12>
10004672:	e7ff      	b.n	10004674 <y64_x64+0x14>
10004674:	6f3c      	ldr	r4, [r7, #112]	; 0x70
10004676:	b295      	uxth	r5, r2
10004678:	b29e      	uxth	r6, r3
1000467a:	4365      	muls	r5, r4
1000467c:	4366      	muls	r6, r4
1000467e:	1b40      	subs	r0, r0, r5
10004680:	41b1      	sbcs	r1, r6
10004682:	0c15      	lsrs	r5, r2, #16
10004684:	0c1e      	lsrs	r6, r3, #16
10004686:	4365      	muls	r5, r4
10004688:	4366      	muls	r6, r4
1000468a:	0436      	lsls	r6, r6, #16
1000468c:	0c2f      	lsrs	r7, r5, #16
1000468e:	433e      	orrs	r6, r7
10004690:	042d      	lsls	r5, r5, #16
10004692:	1b40      	subs	r0, r0, r5
10004694:	41b1      	sbcs	r1, r6
10004696:	4299      	cmp	r1, r3
10004698:	d204      	bcs.n	100046a4 <y64_x64+0x44>
1000469a:	0002      	movs	r2, r0
1000469c:	000b      	movs	r3, r1
1000469e:	0020      	movs	r0, r4
100046a0:	2100      	movs	r1, #0
100046a2:	bdf0      	pop	{r4, r5, r6, r7, pc}
100046a4:	d101      	bne.n	100046aa <y64_x64+0x4a>
100046a6:	4290      	cmp	r0, r2
100046a8:	d3f7      	bcc.n	1000469a <y64_x64+0x3a>
100046aa:	1a80      	subs	r0, r0, r2
100046ac:	4199      	sbcs	r1, r3
100046ae:	3401      	adds	r4, #1
100046b0:	4299      	cmp	r1, r3
100046b2:	d3f2      	bcc.n	1000469a <y64_x64+0x3a>
100046b4:	e7f6      	b.n	100046a4 <y64_x64+0x44>
100046b6:	0000      	.short	0x0000
100046b8:	d0000000 	.word	0xd0000000
100046bc:	ffffffff 	.word	0xffffffff

100046c0 <__wrap___aeabi_drsub>:
100046c0:	4048      	eors	r0, r1
100046c2:	4041      	eors	r1, r0
100046c4:	4048      	eors	r0, r1

100046c6 <__wrap___aeabi_dsub>:
100046c6:	b418      	push	{r3, r4}
100046c8:	4b13      	ldr	r3, [pc, #76]	; (10004718 <__wrap___aeabi_dmul+0xa>)
100046ca:	685b      	ldr	r3, [r3, #4]
100046cc:	9301      	str	r3, [sp, #4]
100046ce:	bd08      	pop	{r3, pc}

100046d0 <__wrap___aeabi_dadd>:
100046d0:	b418      	push	{r3, r4}
100046d2:	4b11      	ldr	r3, [pc, #68]	; (10004718 <__wrap___aeabi_dmul+0xa>)
100046d4:	681b      	ldr	r3, [r3, #0]
100046d6:	9301      	str	r3, [sp, #4]
100046d8:	bd08      	pop	{r3, pc}

100046da <__wrap___aeabi_ddiv>:
100046da:	4694      	mov	ip, r2
100046dc:	4a0f      	ldr	r2, [pc, #60]	; (1000471c <__wrap___aeabi_dmul+0xe>)
100046de:	6f92      	ldr	r2, [r2, #120]	; 0x78
100046e0:	0892      	lsrs	r2, r2, #2
100046e2:	d205      	bcs.n	100046f0 <ddiv_save_state>
100046e4:	4662      	mov	r2, ip

100046e6 <ddiv_shim_call>:
100046e6:	b418      	push	{r3, r4}
100046e8:	4b0b      	ldr	r3, [pc, #44]	; (10004718 <__wrap___aeabi_dmul+0xa>)
100046ea:	68db      	ldr	r3, [r3, #12]
100046ec:	9301      	str	r3, [sp, #4]
100046ee:	bd08      	pop	{r3, pc}

100046f0 <ddiv_save_state>:
100046f0:	4a0a      	ldr	r2, [pc, #40]	; (1000471c <__wrap___aeabi_dmul+0xe>)
100046f2:	b5f0      	push	{r4, r5, r6, r7, lr}
100046f4:	6e14      	ldr	r4, [r2, #96]	; 0x60
100046f6:	6e55      	ldr	r5, [r2, #100]	; 0x64
100046f8:	6f57      	ldr	r7, [r2, #116]	; 0x74
100046fa:	6f16      	ldr	r6, [r2, #112]	; 0x70
100046fc:	4662      	mov	r2, ip
100046fe:	f7ff fff2 	bl	100046e6 <ddiv_shim_call>
10004702:	4a06      	ldr	r2, [pc, #24]	; (1000471c <__wrap___aeabi_dmul+0xe>)
10004704:	6614      	str	r4, [r2, #96]	; 0x60
10004706:	6655      	str	r5, [r2, #100]	; 0x64
10004708:	6757      	str	r7, [r2, #116]	; 0x74
1000470a:	6716      	str	r6, [r2, #112]	; 0x70
1000470c:	bdf0      	pop	{r4, r5, r6, r7, pc}

1000470e <__wrap___aeabi_dmul>:
1000470e:	b418      	push	{r3, r4}
10004710:	4b01      	ldr	r3, [pc, #4]	; (10004718 <__wrap___aeabi_dmul+0xa>)
10004712:	689b      	ldr	r3, [r3, #8]
10004714:	9301      	str	r3, [sp, #4]
10004716:	bd08      	pop	{r3, pc}
10004718:	2000230c 	.word	0x2000230c
1000471c:	d0000000 	.word	0xd0000000

10004720 <__wrap___aeabi_cdrcmple>:
10004720:	b5ff      	push	{r0, r1, r2, r3, r4, r5, r6, r7, lr}
10004722:	4050      	eors	r0, r2
10004724:	4042      	eors	r2, r0
10004726:	4050      	eors	r0, r2
10004728:	4059      	eors	r1, r3
1000472a:	404b      	eors	r3, r1
1000472c:	4059      	eors	r1, r3
1000472e:	e000      	b.n	10004732 <__aeabi_dfcmple_guts>

10004730 <__wrap___aeabi_cdcmpeq>:
10004730:	b5ff      	push	{r0, r1, r2, r3, r4, r5, r6, r7, lr}

10004732 <__aeabi_dfcmple_guts>:
10004732:	4f15      	ldr	r7, [pc, #84]	; (10004788 <__aeabi_dfcmple_guts+0x56>)
10004734:	004c      	lsls	r4, r1, #1
10004736:	0d64      	lsrs	r4, r4, #21
10004738:	d003      	beq.n	10004742 <__aeabi_dfcmple_guts+0x10>
1000473a:	42bc      	cmp	r4, r7
1000473c:	d104      	bne.n	10004748 <__aeabi_dfcmple_guts+0x16>
1000473e:	030c      	lsls	r4, r1, #12
10004740:	d814      	bhi.n	1000476c <__aeabi_dfcmple_guts+0x3a>
10004742:	2000      	movs	r0, #0
10004744:	0d09      	lsrs	r1, r1, #20
10004746:	0509      	lsls	r1, r1, #20
10004748:	005c      	lsls	r4, r3, #1
1000474a:	0d64      	lsrs	r4, r4, #21
1000474c:	d003      	beq.n	10004756 <__aeabi_dfcmple_guts+0x24>
1000474e:	42bc      	cmp	r4, r7
10004750:	d104      	bne.n	1000475c <__aeabi_dfcmple_guts+0x2a>
10004752:	031c      	lsls	r4, r3, #12
10004754:	d80a      	bhi.n	1000476c <__aeabi_dfcmple_guts+0x3a>
10004756:	2200      	movs	r2, #0
10004758:	0d1b      	lsrs	r3, r3, #20
1000475a:	051b      	lsls	r3, r3, #20
1000475c:	2601      	movs	r6, #1
1000475e:	404b      	eors	r3, r1
10004760:	d409      	bmi.n	10004776 <__aeabi_dfcmple_guts+0x44>
10004762:	404b      	eors	r3, r1
10004764:	d503      	bpl.n	1000476e <__aeabi_dfcmple_guts+0x3c>
10004766:	428b      	cmp	r3, r1
10004768:	d100      	bne.n	1000476c <__aeabi_dfcmple_guts+0x3a>
1000476a:	4282      	cmp	r2, r0
1000476c:	bdff      	pop	{r0, r1, r2, r3, r4, r5, r6, r7, pc}
1000476e:	4299      	cmp	r1, r3
10004770:	d1fc      	bne.n	1000476c <__aeabi_dfcmple_guts+0x3a>
10004772:	4290      	cmp	r0, r2
10004774:	bdff      	pop	{r0, r1, r2, r3, r4, r5, r6, r7, pc}
10004776:	430b      	orrs	r3, r1
10004778:	18db      	adds	r3, r3, r3
1000477a:	4303      	orrs	r3, r0
1000477c:	4313      	orrs	r3, r2
1000477e:	d0f5      	beq.n	1000476c <__aeabi_dfcmple_guts+0x3a>
10004780:	43c9      	mvns	r1, r1
10004782:	1849      	adds	r1, r1, r1
10004784:	bdff      	pop	{r0, r1, r2, r3, r4, r5, r6, r7, pc}
10004786:	0000      	.short	0x0000
10004788:	000007ff 	.word	0x000007ff

1000478c <__wrap___aeabi_dcmpeq>:
1000478c:	b500      	push	{lr}
1000478e:	f7ff ffcf 	bl	10004730 <__wrap___aeabi_cdcmpeq>
10004792:	d001      	beq.n	10004798 <__wrap___aeabi_dcmpeq+0xc>
10004794:	2000      	movs	r0, #0
10004796:	bd00      	pop	{pc}
10004798:	2001      	movs	r0, #1
1000479a:	bd00      	pop	{pc}

1000479c <__wrap___aeabi_dcmplt>:
1000479c:	b500      	push	{lr}
1000479e:	f7ff ffc7 	bl	10004730 <__wrap___aeabi_cdcmpeq>
100047a2:	4180      	sbcs	r0, r0
100047a4:	bd00      	pop	{pc}
100047a6:	46c0      	nop			; (mov r8, r8)

100047a8 <__wrap___aeabi_dcmple>:
100047a8:	b500      	push	{lr}
100047aa:	f7ff ffc1 	bl	10004730 <__wrap___aeabi_cdcmpeq>
100047ae:	d901      	bls.n	100047b4 <__wrap___aeabi_dcmple+0xc>
100047b0:	2000      	movs	r0, #0
100047b2:	bd00      	pop	{pc}
100047b4:	2001      	movs	r0, #1
100047b6:	bd00      	pop	{pc}

100047b8 <__wrap___aeabi_dcmpge>:
100047b8:	b500      	push	{lr}
100047ba:	f7ff ffb1 	bl	10004720 <__wrap___aeabi_cdrcmple>
100047be:	d901      	bls.n	100047c4 <__wrap___aeabi_dcmpge+0xc>
100047c0:	2000      	movs	r0, #0
100047c2:	bd00      	pop	{pc}
100047c4:	2001      	movs	r0, #1
100047c6:	bd00      	pop	{pc}

100047c8 <__wrap___aeabi_dcmpgt>:
100047c8:	b500      	push	{lr}
100047ca:	f7ff ffa9 	bl	10004720 <__wrap___aeabi_cdrcmple>
100047ce:	4180      	sbcs	r0, r0
100047d0:	bd00      	pop	{pc}

100047d2 <__wrap___aeabi_dcmpun>:
100047d2:	2001      	movs	r0, #1
100047d4:	0540      	lsls	r0, r0, #21
100047d6:	004a      	lsls	r2, r1, #1
100047d8:	1812      	adds	r2, r2, r0
100047da:	d804      	bhi.n	100047e6 <__wrap___aeabi_dcmpun+0x14>
100047dc:	005a      	lsls	r2, r3, #1
100047de:	1812      	adds	r2, r2, r0
100047e0:	d801      	bhi.n	100047e6 <__wrap___aeabi_dcmpun+0x14>
100047e2:	2000      	movs	r0, #0
100047e4:	4770      	bx	lr
100047e6:	2001      	movs	r0, #1
100047e8:	4770      	bx	lr
100047ea:	2000      	movs	r0, #0
100047ec:	4770      	bx	lr
	...

100047f0 <__wrap___aeabi_ui2d>:
100047f0:	2100      	movs	r1, #0
100047f2:	2800      	cmp	r0, #0
100047f4:	d105      	bne.n	10004802 <__wrap___aeabi_i2d+0xa>
100047f6:	4770      	bx	lr

100047f8 <__wrap___aeabi_i2d>:
100047f8:	17c1      	asrs	r1, r0, #31
100047fa:	4048      	eors	r0, r1
100047fc:	1a40      	subs	r0, r0, r1
100047fe:	d0fa      	beq.n	100047f6 <__wrap___aeabi_ui2d+0x6>
10004800:	07c9      	lsls	r1, r1, #31
10004802:	b513      	push	{r0, r1, r4, lr}
10004804:	4b06      	ldr	r3, [pc, #24]	; (10004820 <__wrap___aeabi_i2d+0x28>)
10004806:	681b      	ldr	r3, [r3, #0]
10004808:	4798      	blx	r3
1000480a:	bc0c      	pop	{r2, r3}
1000480c:	1c44      	adds	r4, r0, #1
1000480e:	40a2      	lsls	r2, r4
10004810:	0510      	lsls	r0, r2, #20
10004812:	0b12      	lsrs	r2, r2, #12
10004814:	4903      	ldr	r1, [pc, #12]	; (10004824 <__wrap___aeabi_i2d+0x2c>)
10004816:	1b09      	subs	r1, r1, r4
10004818:	0509      	lsls	r1, r1, #20
1000481a:	4319      	orrs	r1, r3
1000481c:	4311      	orrs	r1, r2
1000481e:	bd10      	pop	{r4, pc}
10004820:	2000240c 	.word	0x2000240c
10004824:	0000041f 	.word	0x0000041f

10004828 <__wrap___aeabi_d2iz>:
10004828:	b510      	push	{r4, lr}
1000482a:	004c      	lsls	r4, r1, #1
1000482c:	0d62      	lsrs	r2, r4, #21
1000482e:	2380      	movs	r3, #128	; 0x80
10004830:	18d2      	adds	r2, r2, r3
10004832:	00db      	lsls	r3, r3, #3
10004834:	1ad2      	subs	r2, r2, r3
10004836:	055b      	lsls	r3, r3, #21
10004838:	2a7e      	cmp	r2, #126	; 0x7e
1000483a:	dd10      	ble.n	1000485e <__wrap___aeabi_d2iz+0x36>
1000483c:	3a9e      	subs	r2, #158	; 0x9e
1000483e:	da13      	bge.n	10004868 <__wrap___aeabi_d2iz+0x40>
10004840:	17cc      	asrs	r4, r1, #31
10004842:	0309      	lsls	r1, r1, #12
10004844:	0849      	lsrs	r1, r1, #1
10004846:	4319      	orrs	r1, r3
10004848:	4252      	negs	r2, r2
1000484a:	40d1      	lsrs	r1, r2
1000484c:	0064      	lsls	r4, r4, #1
1000484e:	3401      	adds	r4, #1
10004850:	3215      	adds	r2, #21
10004852:	2a20      	cmp	r2, #32
10004854:	da05      	bge.n	10004862 <__wrap___aeabi_d2iz+0x3a>
10004856:	40d0      	lsrs	r0, r2
10004858:	4308      	orrs	r0, r1
1000485a:	4360      	muls	r0, r4
1000485c:	bd10      	pop	{r4, pc}
1000485e:	2000      	movs	r0, #0
10004860:	bd10      	pop	{r4, pc}
10004862:	4608      	mov	r0, r1
10004864:	4360      	muls	r0, r4
10004866:	bd10      	pop	{r4, pc}
10004868:	0fc8      	lsrs	r0, r1, #31
1000486a:	18c0      	adds	r0, r0, r3
1000486c:	3801      	subs	r0, #1
1000486e:	bd10      	pop	{r4, pc}

10004870 <__wrap___aeabi_d2uiz>:
10004870:	b418      	push	{r3, r4}
10004872:	4b02      	ldr	r3, [pc, #8]	; (1000487c <__wrap___aeabi_d2uiz+0xc>)
10004874:	6a5b      	ldr	r3, [r3, #36]	; 0x24
10004876:	9301      	str	r3, [sp, #4]
10004878:	bd08      	pop	{r3, pc}
1000487a:	0000      	.short	0x0000
1000487c:	2000230c 	.word	0x2000230c

10004880 <__wrap___aeabi_d2f>:
10004880:	b418      	push	{r3, r4}
10004882:	4b02      	ldr	r3, [pc, #8]	; (1000488c <__wrap___aeabi_d2f+0xc>)
10004884:	6fdb      	ldr	r3, [r3, #124]	; 0x7c
10004886:	9301      	str	r3, [sp, #4]
10004888:	bd08      	pop	{r3, pc}
1000488a:	0000      	.short	0x0000
1000488c:	2000230c 	.word	0x2000230c

10004890 <__wrap_exp>:
10004890:	b418      	push	{r3, r4}
10004892:	4b02      	ldr	r3, [pc, #8]	; (1000489c <__wrap_exp+0xc>)
10004894:	6cdb      	ldr	r3, [r3, #76]	; 0x4c
10004896:	9301      	str	r3, [sp, #4]
10004898:	bd08      	pop	{r3, pc}
1000489a:	0000      	.short	0x0000
1000489c:	2000230c 	.word	0x2000230c

100048a0 <__wrap_log>:
100048a0:	b418      	push	{r3, r4}
100048a2:	4b02      	ldr	r3, [pc, #8]	; (100048ac <__wrap_log+0xc>)
100048a4:	6d1b      	ldr	r3, [r3, #80]	; 0x50
100048a6:	9301      	str	r3, [sp, #4]
100048a8:	bd08      	pop	{r3, pc}
100048aa:	0000      	.short	0x0000
100048ac:	2000230c 	.word	0x2000230c

100048b0 <missing_double_func_shim>:
100048b0:	b510      	push	{r4, lr}
100048b2:	4801      	ldr	r0, [pc, #4]	; (100048b8 <missing_double_func_shim+0x8>)
100048b4:	f7fe fb94 	bl	10002fe0 <panic>
100048b8:	10014770 	.word	0x10014770

100048bc <__aeabi_double_init>:
100048bc:	b570      	push	{r4, r5, r6, lr}
100048be:	2313      	movs	r3, #19
100048c0:	781c      	ldrb	r4, [r3, #0]
100048c2:	2c01      	cmp	r4, #1
100048c4:	d014      	beq.n	100048f0 <__aeabi_double_init+0x34>
100048c6:	2c01      	cmp	r4, #1
100048c8:	dc14      	bgt.n	100048f4 <__aeabi_double_init+0x38>
100048ca:	2c02      	cmp	r4, #2
100048cc:	dc02      	bgt.n	100048d4 <__aeabi_double_init+0x18>
100048ce:	4a1f      	ldr	r2, [pc, #124]	; (1000494c <__aeabi_double_init+0x90>)
100048d0:	4b1f      	ldr	r3, [pc, #124]	; (10004950 <__aeabi_double_init+0x94>)
100048d2:	649a      	str	r2, [r3, #72]	; 0x48
100048d4:	481f      	ldr	r0, [pc, #124]	; (10004954 <__aeabi_double_init+0x98>)
100048d6:	f7ff fc67 	bl	100041a8 <rom_func_lookup>
100048da:	4b1f      	ldr	r3, [pc, #124]	; (10004958 <__aeabi_double_init+0x9c>)
100048dc:	6018      	str	r0, [r3, #0]
100048de:	bd70      	pop	{r4, r5, r6, pc}
100048e0:	0099      	lsls	r1, r3, #2
100048e2:	481e      	ldr	r0, [pc, #120]	; (1000495c <__aeabi_double_init+0xa0>)
100048e4:	4a1a      	ldr	r2, [pc, #104]	; (10004950 <__aeabi_double_init+0x94>)
100048e6:	5088      	str	r0, [r1, r2]
100048e8:	3301      	adds	r3, #1
100048ea:	2b1f      	cmp	r3, #31
100048ec:	d9f8      	bls.n	100048e0 <__aeabi_double_init+0x24>
100048ee:	e7ea      	b.n	100048c6 <__aeabi_double_init+0xa>
100048f0:	2300      	movs	r3, #0
100048f2:	e7fa      	b.n	100048ea <__aeabi_double_init+0x2e>
100048f4:	481a      	ldr	r0, [pc, #104]	; (10004960 <__aeabi_double_init+0xa4>)
100048f6:	f7ff fc5f 	bl	100041b8 <rom_data_lookup>
100048fa:	0005      	movs	r5, r0
100048fc:	4819      	ldr	r0, [pc, #100]	; (10004964 <__aeabi_double_init+0xa8>)
100048fe:	f7ff fc5b 	bl	100041b8 <rom_data_lookup>
10004902:	3802      	subs	r0, #2
10004904:	7803      	ldrb	r3, [r0, #0]
10004906:	009b      	lsls	r3, r3, #2
10004908:	2b7f      	cmp	r3, #127	; 0x7f
1000490a:	dd19      	ble.n	10004940 <__aeabi_double_init+0x84>
1000490c:	2280      	movs	r2, #128	; 0x80
1000490e:	0029      	movs	r1, r5
10004910:	480f      	ldr	r0, [pc, #60]	; (10004950 <__aeabi_double_init+0x94>)
10004912:	f000 fe47 	bl	100055a4 <__wrap___aeabi_memcpy>
10004916:	2c02      	cmp	r4, #2
10004918:	d1d7      	bne.n	100048ca <__aeabi_double_init+0xe>
1000491a:	4b13      	ldr	r3, [pc, #76]	; (10004968 <__aeabi_double_init+0xac>)
1000491c:	881a      	ldrh	r2, [r3, #0]
1000491e:	23b5      	movs	r3, #181	; 0xb5
10004920:	021b      	lsls	r3, r3, #8
10004922:	429a      	cmp	r2, r3
10004924:	d109      	bne.n	1000493a <__aeabi_double_init+0x7e>
10004926:	4b11      	ldr	r3, [pc, #68]	; (1000496c <__aeabi_double_init+0xb0>)
10004928:	881a      	ldrh	r2, [r3, #0]
1000492a:	4b11      	ldr	r3, [pc, #68]	; (10004970 <__aeabi_double_init+0xb4>)
1000492c:	429a      	cmp	r2, r3
1000492e:	d104      	bne.n	1000493a <__aeabi_double_init+0x7e>
10004930:	4b10      	ldr	r3, [pc, #64]	; (10004974 <__aeabi_double_init+0xb8>)
10004932:	881a      	ldrh	r2, [r3, #0]
10004934:	4b10      	ldr	r3, [pc, #64]	; (10004978 <__aeabi_double_init+0xbc>)
10004936:	429a      	cmp	r2, r3
10004938:	d0c7      	beq.n	100048ca <__aeabi_double_init+0xe>
1000493a:	2000      	movs	r0, #0
1000493c:	f7fe fb50 	bl	10002fe0 <panic>
10004940:	4b0e      	ldr	r3, [pc, #56]	; (1000497c <__aeabi_double_init+0xc0>)
10004942:	4a0f      	ldr	r2, [pc, #60]	; (10004980 <__aeabi_double_init+0xc4>)
10004944:	2132      	movs	r1, #50	; 0x32
10004946:	480f      	ldr	r0, [pc, #60]	; (10004984 <__aeabi_double_init+0xc8>)
10004948:	f7fe fab0 	bl	10002eac <__assert_func>
1000494c:	10005331 	.word	0x10005331
10004950:	2000230c 	.word	0x2000230c
10004954:	0000334c 	.word	0x0000334c
10004958:	2000240c 	.word	0x2000240c
1000495c:	100048b1 	.word	0x100048b1
10004960:	00004453 	.word	0x00004453
10004964:	00004653 	.word	0x00004653
10004968:	00003854 	.word	0x00003854
1000496c:	000038d8 	.word	0x000038d8
10004970:	00004649 	.word	0x00004649
10004974:	0000389c 	.word	0x0000389c
10004978:	00004659 	.word	0x00004659
1000497c:	10014788 	.word	0x10014788
10004980:	10014840 	.word	0x10014840
10004984:	100147dc 	.word	0x100147dc

10004988 <dpow_int2>:
10004988:	b570      	push	{r4, r5, r6, lr}
1000498a:	0004      	movs	r4, r0
1000498c:	000d      	movs	r5, r1
1000498e:	0016      	movs	r6, r2
10004990:	2a01      	cmp	r2, #1
10004992:	d00e      	beq.n	100049b2 <dpow_int2+0x2a>
10004994:	0fd2      	lsrs	r2, r2, #31
10004996:	1992      	adds	r2, r2, r6
10004998:	1052      	asrs	r2, r2, #1
1000499a:	f7ff fff5 	bl	10004988 <dpow_int2>
1000499e:	0002      	movs	r2, r0
100049a0:	000b      	movs	r3, r1
100049a2:	f7ff feb4 	bl	1000470e <__wrap___aeabi_dmul>
100049a6:	07f3      	lsls	r3, r6, #31
100049a8:	d503      	bpl.n	100049b2 <dpow_int2+0x2a>
100049aa:	0022      	movs	r2, r4
100049ac:	002b      	movs	r3, r5
100049ae:	f7ff feae 	bl	1000470e <__wrap___aeabi_dmul>
100049b2:	bd70      	pop	{r4, r5, r6, pc}

100049b4 <dpow_1>:
100049b4:	b5f0      	push	{r4, r5, r6, r7, lr}
100049b6:	46d6      	mov	lr, sl
100049b8:	464f      	mov	r7, r9
100049ba:	4646      	mov	r6, r8
100049bc:	b5c0      	push	{r6, r7, lr}
100049be:	b088      	sub	sp, #32
100049c0:	0014      	movs	r4, r2
100049c2:	001d      	movs	r5, r3
100049c4:	0d0e      	lsrs	r6, r1, #20
100049c6:	0576      	lsls	r6, r6, #21
100049c8:	0d76      	lsrs	r6, r6, #21
100049ca:	4b97      	ldr	r3, [pc, #604]	; (10004c28 <dpow_1+0x274>)
100049cc:	4698      	mov	r8, r3
100049ce:	44b0      	add	r8, r6
100049d0:	4b96      	ldr	r3, [pc, #600]	; (10004c2c <dpow_1+0x278>)
100049d2:	1b9b      	subs	r3, r3, r6
100049d4:	9000      	str	r0, [sp, #0]
100049d6:	9101      	str	r1, [sp, #4]
100049d8:	0d0f      	lsrs	r7, r1, #20
100049da:	057f      	lsls	r7, r7, #21
100049dc:	d014      	beq.n	10004a08 <dpow_1+0x54>
100049de:	4f94      	ldr	r7, [pc, #592]	; (10004c30 <dpow_1+0x27c>)
100049e0:	42be      	cmp	r6, r7
100049e2:	d011      	beq.n	10004a08 <dpow_1+0x54>
100049e4:	1999      	adds	r1, r3, r6
100049e6:	2900      	cmp	r1, #0
100049e8:	dd0a      	ble.n	10004a00 <dpow_1+0x4c>
100049ea:	4892      	ldr	r0, [pc, #584]	; (10004c34 <dpow_1+0x280>)
100049ec:	4281      	cmp	r1, r0
100049ee:	dd3a      	ble.n	10004a66 <dpow_1+0xb2>
100049f0:	9b01      	ldr	r3, [sp, #4]
100049f2:	0fdb      	lsrs	r3, r3, #31
100049f4:	07db      	lsls	r3, r3, #31
100049f6:	2000      	movs	r0, #0
100049f8:	4a8f      	ldr	r2, [pc, #572]	; (10004c38 <dpow_1+0x284>)
100049fa:	431a      	orrs	r2, r3
100049fc:	0011      	movs	r1, r2
100049fe:	e003      	b.n	10004a08 <dpow_1+0x54>
10004a00:	2000      	movs	r0, #0
10004a02:	9b01      	ldr	r3, [sp, #4]
10004a04:	0fdb      	lsrs	r3, r3, #31
10004a06:	07d9      	lsls	r1, r3, #31
10004a08:	f7ff ff4a 	bl	100048a0 <__wrap_log>
10004a0c:	4a8b      	ldr	r2, [pc, #556]	; (10004c3c <dpow_1+0x288>)
10004a0e:	4b8c      	ldr	r3, [pc, #560]	; (10004c40 <dpow_1+0x28c>)
10004a10:	f7ff fe63 	bl	100046da <__wrap___aeabi_ddiv>
10004a14:	2200      	movs	r2, #0
10004a16:	4b8b      	ldr	r3, [pc, #556]	; (10004c44 <dpow_1+0x290>)
10004a18:	9000      	str	r0, [sp, #0]
10004a1a:	9101      	str	r1, [sp, #4]
10004a1c:	f7ff fed4 	bl	100047c8 <__wrap___aeabi_dcmpgt>
10004a20:	2800      	cmp	r0, #0
10004a22:	d00a      	beq.n	10004a3a <dpow_1+0x86>
10004a24:	2200      	movs	r2, #0
10004a26:	4b88      	ldr	r3, [pc, #544]	; (10004c48 <dpow_1+0x294>)
10004a28:	9800      	ldr	r0, [sp, #0]
10004a2a:	9901      	ldr	r1, [sp, #4]
10004a2c:	f7ff fe4b 	bl	100046c6 <__wrap___aeabi_dsub>
10004a30:	9000      	str	r0, [sp, #0]
10004a32:	9101      	str	r1, [sp, #4]
10004a34:	4b85      	ldr	r3, [pc, #532]	; (10004c4c <dpow_1+0x298>)
10004a36:	4698      	mov	r8, r3
10004a38:	44b0      	add	r8, r6
10004a3a:	4643      	mov	r3, r8
10004a3c:	2b00      	cmp	r3, #0
10004a3e:	d01b      	beq.n	10004a78 <dpow_1+0xc4>
10004a40:	2200      	movs	r2, #0
10004a42:	4b83      	ldr	r3, [pc, #524]	; (10004c50 <dpow_1+0x29c>)
10004a44:	0020      	movs	r0, r4
10004a46:	0029      	movs	r1, r5
10004a48:	f7ff feb6 	bl	100047b8 <__wrap___aeabi_dcmpge>
10004a4c:	2800      	cmp	r0, #0
10004a4e:	d01f      	beq.n	10004a90 <dpow_1+0xdc>
10004a50:	4643      	mov	r3, r8
10004a52:	2b00      	cmp	r3, #0
10004a54:	db19      	blt.n	10004a8a <dpow_1+0xd6>
10004a56:	2000      	movs	r0, #0
10004a58:	4977      	ldr	r1, [pc, #476]	; (10004c38 <dpow_1+0x284>)
10004a5a:	b008      	add	sp, #32
10004a5c:	bce0      	pop	{r5, r6, r7}
10004a5e:	46ba      	mov	sl, r7
10004a60:	46b1      	mov	r9, r6
10004a62:	46a8      	mov	r8, r5
10004a64:	bdf0      	pop	{r4, r5, r6, r7, pc}
10004a66:	2000      	movs	r0, #0
10004a68:	0519      	lsls	r1, r3, #20
10004a6a:	9a00      	ldr	r2, [sp, #0]
10004a6c:	9b01      	ldr	r3, [sp, #4]
10004a6e:	1812      	adds	r2, r2, r0
10004a70:	414b      	adcs	r3, r1
10004a72:	0010      	movs	r0, r2
10004a74:	0019      	movs	r1, r3
10004a76:	e7c7      	b.n	10004a08 <dpow_1+0x54>
10004a78:	0022      	movs	r2, r4
10004a7a:	002b      	movs	r3, r5
10004a7c:	9800      	ldr	r0, [sp, #0]
10004a7e:	9901      	ldr	r1, [sp, #4]
10004a80:	f7ff fe45 	bl	1000470e <__wrap___aeabi_dmul>
10004a84:	f000 fa30 	bl	10004ee8 <__wrap_exp2>
10004a88:	e7e7      	b.n	10004a5a <dpow_1+0xa6>
10004a8a:	2000      	movs	r0, #0
10004a8c:	2100      	movs	r1, #0
10004a8e:	e7e4      	b.n	10004a5a <dpow_1+0xa6>
10004a90:	2200      	movs	r2, #0
10004a92:	4b70      	ldr	r3, [pc, #448]	; (10004c54 <dpow_1+0x2a0>)
10004a94:	0020      	movs	r0, r4
10004a96:	0029      	movs	r1, r5
10004a98:	f7ff fe86 	bl	100047a8 <__wrap___aeabi_dcmple>
10004a9c:	2800      	cmp	r0, #0
10004a9e:	d008      	beq.n	10004ab2 <dpow_1+0xfe>
10004aa0:	4643      	mov	r3, r8
10004aa2:	2b00      	cmp	r3, #0
10004aa4:	db02      	blt.n	10004aac <dpow_1+0xf8>
10004aa6:	2000      	movs	r0, #0
10004aa8:	2100      	movs	r1, #0
10004aaa:	e7d6      	b.n	10004a5a <dpow_1+0xa6>
10004aac:	2000      	movs	r0, #0
10004aae:	4962      	ldr	r1, [pc, #392]	; (10004c38 <dpow_1+0x284>)
10004ab0:	e7d3      	b.n	10004a5a <dpow_1+0xa6>
10004ab2:	0020      	movs	r0, r4
10004ab4:	0029      	movs	r1, r5
10004ab6:	f000 f9c9 	bl	10004e4c <__wrap_round>
10004aba:	0006      	movs	r6, r0
10004abc:	000f      	movs	r7, r1
10004abe:	0002      	movs	r2, r0
10004ac0:	000b      	movs	r3, r1
10004ac2:	0020      	movs	r0, r4
10004ac4:	0029      	movs	r1, r5
10004ac6:	f7ff fdfe 	bl	100046c6 <__wrap___aeabi_dsub>
10004aca:	9002      	str	r0, [sp, #8]
10004acc:	9103      	str	r1, [sp, #12]
10004ace:	221a      	movs	r2, #26
10004ad0:	f000 f994 	bl	10004dfc <__wrap_ldexp>
10004ad4:	f000 f9ba 	bl	10004e4c <__wrap_round>
10004ad8:	0004      	movs	r4, r0
10004ada:	000d      	movs	r5, r1
10004adc:	0002      	movs	r2, r0
10004ade:	000b      	movs	r3, r1
10004ae0:	0d09      	lsrs	r1, r1, #20
10004ae2:	0549      	lsls	r1, r1, #21
10004ae4:	0d48      	lsrs	r0, r1, #21
10004ae6:	2900      	cmp	r1, #0
10004ae8:	d013      	beq.n	10004b12 <dpow_1+0x15e>
10004aea:	4951      	ldr	r1, [pc, #324]	; (10004c30 <dpow_1+0x27c>)
10004aec:	4288      	cmp	r0, r1
10004aee:	d010      	beq.n	10004b12 <dpow_1+0x15e>
10004af0:	381a      	subs	r0, #26
10004af2:	2800      	cmp	r0, #0
10004af4:	dd0a      	ble.n	10004b0c <dpow_1+0x158>
10004af6:	494f      	ldr	r1, [pc, #316]	; (10004c34 <dpow_1+0x280>)
10004af8:	4288      	cmp	r0, r1
10004afa:	dc00      	bgt.n	10004afe <dpow_1+0x14a>
10004afc:	e084      	b.n	10004c08 <dpow_1+0x254>
10004afe:	0feb      	lsrs	r3, r5, #31
10004b00:	07db      	lsls	r3, r3, #31
10004b02:	2400      	movs	r4, #0
10004b04:	4a4c      	ldr	r2, [pc, #304]	; (10004c38 <dpow_1+0x284>)
10004b06:	431a      	orrs	r2, r3
10004b08:	0015      	movs	r5, r2
10004b0a:	e002      	b.n	10004b12 <dpow_1+0x15e>
10004b0c:	2400      	movs	r4, #0
10004b0e:	0feb      	lsrs	r3, r5, #31
10004b10:	07dd      	lsls	r5, r3, #31
10004b12:	0022      	movs	r2, r4
10004b14:	002b      	movs	r3, r5
10004b16:	9802      	ldr	r0, [sp, #8]
10004b18:	9903      	ldr	r1, [sp, #12]
10004b1a:	f7ff fdd4 	bl	100046c6 <__wrap___aeabi_dsub>
10004b1e:	9006      	str	r0, [sp, #24]
10004b20:	9107      	str	r1, [sp, #28]
10004b22:	0030      	movs	r0, r6
10004b24:	0039      	movs	r1, r7
10004b26:	f7ff fe7f 	bl	10004828 <__wrap___aeabi_d2iz>
10004b2a:	4681      	mov	r9, r0
10004b2c:	0003      	movs	r3, r0
10004b2e:	4641      	mov	r1, r8
10004b30:	434b      	muls	r3, r1
10004b32:	469a      	mov	sl, r3
10004b34:	4640      	mov	r0, r8
10004b36:	f7ff fe5f 	bl	100047f8 <__wrap___aeabi_i2d>
10004b3a:	0022      	movs	r2, r4
10004b3c:	002b      	movs	r3, r5
10004b3e:	9004      	str	r0, [sp, #16]
10004b40:	9105      	str	r1, [sp, #20]
10004b42:	f7ff fde4 	bl	1000470e <__wrap___aeabi_dmul>
10004b46:	0006      	movs	r6, r0
10004b48:	000f      	movs	r7, r1
10004b4a:	f000 f97f 	bl	10004e4c <__wrap_round>
10004b4e:	0004      	movs	r4, r0
10004b50:	000d      	movs	r5, r1
10004b52:	f7ff fe69 	bl	10004828 <__wrap___aeabi_d2iz>
10004b56:	4680      	mov	r8, r0
10004b58:	44d0      	add	r8, sl
10004b5a:	0022      	movs	r2, r4
10004b5c:	002b      	movs	r3, r5
10004b5e:	0030      	movs	r0, r6
10004b60:	0039      	movs	r1, r7
10004b62:	f7ff fdb0 	bl	100046c6 <__wrap___aeabi_dsub>
10004b66:	0004      	movs	r4, r0
10004b68:	000d      	movs	r5, r1
10004b6a:	9a06      	ldr	r2, [sp, #24]
10004b6c:	9b07      	ldr	r3, [sp, #28]
10004b6e:	9804      	ldr	r0, [sp, #16]
10004b70:	9905      	ldr	r1, [sp, #20]
10004b72:	f7ff fdcc 	bl	1000470e <__wrap___aeabi_dmul>
10004b76:	0002      	movs	r2, r0
10004b78:	000b      	movs	r3, r1
10004b7a:	0020      	movs	r0, r4
10004b7c:	0029      	movs	r1, r5
10004b7e:	f7ff fda7 	bl	100046d0 <__wrap___aeabi_dadd>
10004b82:	9004      	str	r0, [sp, #16]
10004b84:	9105      	str	r1, [sp, #20]
10004b86:	4648      	mov	r0, r9
10004b88:	f7ff fe36 	bl	100047f8 <__wrap___aeabi_i2d>
10004b8c:	9a00      	ldr	r2, [sp, #0]
10004b8e:	9b01      	ldr	r3, [sp, #4]
10004b90:	f7ff fdbd 	bl	1000470e <__wrap___aeabi_dmul>
10004b94:	0004      	movs	r4, r0
10004b96:	000d      	movs	r5, r1
10004b98:	f000 f958 	bl	10004e4c <__wrap_round>
10004b9c:	0006      	movs	r6, r0
10004b9e:	000f      	movs	r7, r1
10004ba0:	f7ff fe42 	bl	10004828 <__wrap___aeabi_d2iz>
10004ba4:	4480      	add	r8, r0
10004ba6:	0032      	movs	r2, r6
10004ba8:	003b      	movs	r3, r7
10004baa:	0020      	movs	r0, r4
10004bac:	0029      	movs	r1, r5
10004bae:	f7ff fd8a 	bl	100046c6 <__wrap___aeabi_dsub>
10004bb2:	9a04      	ldr	r2, [sp, #16]
10004bb4:	9b05      	ldr	r3, [sp, #20]
10004bb6:	f7ff fd8b 	bl	100046d0 <__wrap___aeabi_dadd>
10004bba:	0004      	movs	r4, r0
10004bbc:	000d      	movs	r5, r1
10004bbe:	9a02      	ldr	r2, [sp, #8]
10004bc0:	9b03      	ldr	r3, [sp, #12]
10004bc2:	9800      	ldr	r0, [sp, #0]
10004bc4:	9901      	ldr	r1, [sp, #4]
10004bc6:	f7ff fda2 	bl	1000470e <__wrap___aeabi_dmul>
10004bca:	0022      	movs	r2, r4
10004bcc:	002b      	movs	r3, r5
10004bce:	f7ff fd7f 	bl	100046d0 <__wrap___aeabi_dadd>
10004bd2:	f000 f989 	bl	10004ee8 <__wrap_exp2>
10004bd6:	0004      	movs	r4, r0
10004bd8:	000d      	movs	r5, r1
10004bda:	0d0b      	lsrs	r3, r1, #20
10004bdc:	055b      	lsls	r3, r3, #21
10004bde:	0d5a      	lsrs	r2, r3, #21
10004be0:	2b00      	cmp	r3, #0
10004be2:	d100      	bne.n	10004be6 <dpow_1+0x232>
10004be4:	e739      	b.n	10004a5a <dpow_1+0xa6>
10004be6:	4b12      	ldr	r3, [pc, #72]	; (10004c30 <dpow_1+0x27c>)
10004be8:	429a      	cmp	r2, r3
10004bea:	d100      	bne.n	10004bee <dpow_1+0x23a>
10004bec:	e735      	b.n	10004a5a <dpow_1+0xa6>
10004bee:	4442      	add	r2, r8
10004bf0:	2a00      	cmp	r2, #0
10004bf2:	dd0e      	ble.n	10004c12 <dpow_1+0x25e>
10004bf4:	4b0f      	ldr	r3, [pc, #60]	; (10004c34 <dpow_1+0x280>)
10004bf6:	429a      	cmp	r2, r3
10004bf8:	dd0f      	ble.n	10004c1a <dpow_1+0x266>
10004bfa:	0fcb      	lsrs	r3, r1, #31
10004bfc:	07db      	lsls	r3, r3, #31
10004bfe:	2000      	movs	r0, #0
10004c00:	4a0d      	ldr	r2, [pc, #52]	; (10004c38 <dpow_1+0x284>)
10004c02:	431a      	orrs	r2, r3
10004c04:	0011      	movs	r1, r2
10004c06:	e728      	b.n	10004a5a <dpow_1+0xa6>
10004c08:	2400      	movs	r4, #0
10004c0a:	4d13      	ldr	r5, [pc, #76]	; (10004c58 <dpow_1+0x2a4>)
10004c0c:	18a4      	adds	r4, r4, r2
10004c0e:	415d      	adcs	r5, r3
10004c10:	e77f      	b.n	10004b12 <dpow_1+0x15e>
10004c12:	2000      	movs	r0, #0
10004c14:	0fcb      	lsrs	r3, r1, #31
10004c16:	07d9      	lsls	r1, r3, #31
10004c18:	e71f      	b.n	10004a5a <dpow_1+0xa6>
10004c1a:	2000      	movs	r0, #0
10004c1c:	4643      	mov	r3, r8
10004c1e:	0519      	lsls	r1, r3, #20
10004c20:	1900      	adds	r0, r0, r4
10004c22:	4169      	adcs	r1, r5
10004c24:	e719      	b.n	10004a5a <dpow_1+0xa6>
10004c26:	46c0      	nop			; (mov r8, r8)
10004c28:	fffffc01 	.word	0xfffffc01
10004c2c:	000003ff 	.word	0x000003ff
10004c30:	000007ff 	.word	0x000007ff
10004c34:	000007fe 	.word	0x000007fe
10004c38:	7ff00000 	.word	0x7ff00000
10004c3c:	fefa39ef 	.word	0xfefa39ef
10004c40:	3fe62e42 	.word	0x3fe62e42
10004c44:	3fe00000 	.word	0x3fe00000
10004c48:	3ff00000 	.word	0x3ff00000
10004c4c:	fffffc02 	.word	0xfffffc02
10004c50:	40b00000 	.word	0x40b00000
10004c54:	c0b00000 	.word	0xc0b00000
10004c58:	fe600000 	.word	0xfe600000

10004c5c <dpow_0>:
10004c5c:	b5f0      	push	{r4, r5, r6, r7, lr}
10004c5e:	46d6      	mov	lr, sl
10004c60:	b500      	push	{lr}
10004c62:	b082      	sub	sp, #8
10004c64:	9001      	str	r0, [sp, #4]
10004c66:	000e      	movs	r6, r1
10004c68:	9200      	str	r2, [sp, #0]
10004c6a:	001d      	movs	r5, r3
10004c6c:	0003      	movs	r3, r0
10004c6e:	000c      	movs	r4, r1
10004c70:	0fca      	lsrs	r2, r1, #31
10004c72:	4692      	mov	sl, r2
10004c74:	2900      	cmp	r1, #0
10004c76:	da55      	bge.n	10004d24 <dpow_0+0xc8>
10004c78:	0d2a      	lsrs	r2, r5, #20
10004c7a:	0552      	lsls	r2, r2, #21
10004c7c:	0d52      	lsrs	r2, r2, #21
10004c7e:	4958      	ldr	r1, [pc, #352]	; (10004de0 <dpow_0+0x184>)
10004c80:	1852      	adds	r2, r2, r1
10004c82:	d43e      	bmi.n	10004d02 <dpow_0+0xa6>
10004c84:	2134      	movs	r1, #52	; 0x34
10004c86:	1a8a      	subs	r2, r1, r2
10004c88:	d43d      	bmi.n	10004d06 <dpow_0+0xaa>
10004c8a:	3954      	subs	r1, #84	; 0x54
10004c8c:	1850      	adds	r0, r2, r1
10004c8e:	d425      	bmi.n	10004cdc <dpow_0+0x80>
10004c90:	311f      	adds	r1, #31
10004c92:	4081      	lsls	r1, r0
10004c94:	2001      	movs	r0, #1
10004c96:	4240      	negs	r0, r0
10004c98:	4090      	lsls	r0, r2
10004c9a:	9e00      	ldr	r6, [sp, #0]
10004c9c:	4386      	bics	r6, r0
10004c9e:	0030      	movs	r0, r6
10004ca0:	002e      	movs	r6, r5
10004ca2:	438e      	bics	r6, r1
10004ca4:	0031      	movs	r1, r6
10004ca6:	4301      	orrs	r1, r0
10004ca8:	d12f      	bne.n	10004d0a <dpow_0+0xae>
10004caa:	2a34      	cmp	r2, #52	; 0x34
10004cac:	d02f      	beq.n	10004d0e <dpow_0+0xb2>
10004cae:	3920      	subs	r1, #32
10004cb0:	1851      	adds	r1, r2, r1
10004cb2:	d41c      	bmi.n	10004cee <dpow_0+0x92>
10004cb4:	002a      	movs	r2, r5
10004cb6:	40ca      	lsrs	r2, r1
10004cb8:	2101      	movs	r1, #1
10004cba:	400a      	ands	r2, r1
10004cbc:	2a00      	cmp	r2, #0
10004cbe:	d028      	beq.n	10004d12 <dpow_0+0xb6>
10004cc0:	0018      	movs	r0, r3
10004cc2:	2680      	movs	r6, #128	; 0x80
10004cc4:	0636      	lsls	r6, r6, #24
10004cc6:	19a1      	adds	r1, r4, r6
10004cc8:	9a00      	ldr	r2, [sp, #0]
10004cca:	002b      	movs	r3, r5
10004ccc:	f7ff ffc6 	bl	10004c5c <dpow_0>
10004cd0:	198b      	adds	r3, r1, r6
10004cd2:	0019      	movs	r1, r3
10004cd4:	b002      	add	sp, #8
10004cd6:	bc80      	pop	{r7}
10004cd8:	46ba      	mov	sl, r7
10004cda:	bdf0      	pop	{r4, r5, r6, r7, pc}
10004cdc:	2020      	movs	r0, #32
10004cde:	1a80      	subs	r0, r0, r2
10004ce0:	2101      	movs	r1, #1
10004ce2:	4249      	negs	r1, r1
10004ce4:	000e      	movs	r6, r1
10004ce6:	40c6      	lsrs	r6, r0
10004ce8:	4091      	lsls	r1, r2
10004cea:	4331      	orrs	r1, r6
10004cec:	e7d2      	b.n	10004c94 <dpow_0+0x38>
10004cee:	2120      	movs	r1, #32
10004cf0:	1a89      	subs	r1, r1, r2
10004cf2:	0028      	movs	r0, r5
10004cf4:	4088      	lsls	r0, r1
10004cf6:	0001      	movs	r1, r0
10004cf8:	9800      	ldr	r0, [sp, #0]
10004cfa:	40d0      	lsrs	r0, r2
10004cfc:	0002      	movs	r2, r0
10004cfe:	430a      	orrs	r2, r1
10004d00:	e7da      	b.n	10004cb8 <dpow_0+0x5c>
10004d02:	2200      	movs	r2, #0
10004d04:	e7da      	b.n	10004cbc <dpow_0+0x60>
10004d06:	2200      	movs	r2, #0
10004d08:	e7d8      	b.n	10004cbc <dpow_0+0x60>
10004d0a:	2200      	movs	r2, #0
10004d0c:	e7d6      	b.n	10004cbc <dpow_0+0x60>
10004d0e:	2201      	movs	r2, #1
10004d10:	e7d4      	b.n	10004cbc <dpow_0+0x60>
10004d12:	0018      	movs	r0, r3
10004d14:	2380      	movs	r3, #128	; 0x80
10004d16:	061b      	lsls	r3, r3, #24
10004d18:	18e1      	adds	r1, r4, r3
10004d1a:	9a00      	ldr	r2, [sp, #0]
10004d1c:	002b      	movs	r3, r5
10004d1e:	f7ff ff9d 	bl	10004c5c <dpow_0>
10004d22:	e7d7      	b.n	10004cd4 <dpow_0+0x78>
10004d24:	9800      	ldr	r0, [sp, #0]
10004d26:	0029      	movs	r1, r5
10004d28:	f7ff fd7e 	bl	10004828 <__wrap___aeabi_d2iz>
10004d2c:	0007      	movs	r7, r0
10004d2e:	9a01      	ldr	r2, [sp, #4]
10004d30:	0d31      	lsrs	r1, r6, #20
10004d32:	0549      	lsls	r1, r1, #21
10004d34:	0d48      	lsrs	r0, r1, #21
10004d36:	2900      	cmp	r1, #0
10004d38:	d007      	beq.n	10004d4a <dpow_0+0xee>
10004d3a:	492a      	ldr	r1, [pc, #168]	; (10004de4 <dpow_0+0x188>)
10004d3c:	4288      	cmp	r0, r1
10004d3e:	d013      	beq.n	10004d68 <dpow_0+0x10c>
10004d40:	0333      	lsls	r3, r6, #12
10004d42:	0b1b      	lsrs	r3, r3, #12
10004d44:	4313      	orrs	r3, r2
10004d46:	4258      	negs	r0, r3
10004d48:	4158      	adcs	r0, r3
10004d4a:	2800      	cmp	r0, #0
10004d4c:	d10e      	bne.n	10004d6c <dpow_0+0x110>
10004d4e:	2f00      	cmp	r7, #0
10004d50:	d043      	beq.n	10004dda <dpow_0+0x17e>
10004d52:	003b      	movs	r3, r7
10004d54:	3320      	adds	r3, #32
10004d56:	2b40      	cmp	r3, #64	; 0x40
10004d58:	d92d      	bls.n	10004db6 <dpow_0+0x15a>
10004d5a:	9a00      	ldr	r2, [sp, #0]
10004d5c:	002b      	movs	r3, r5
10004d5e:	9801      	ldr	r0, [sp, #4]
10004d60:	0031      	movs	r1, r6
10004d62:	f7ff fe27 	bl	100049b4 <dpow_1>
10004d66:	e7b5      	b.n	10004cd4 <dpow_0+0x78>
10004d68:	4650      	mov	r0, sl
10004d6a:	e7ee      	b.n	10004d4a <dpow_0+0xee>
10004d6c:	0d20      	lsrs	r0, r4, #20
10004d6e:	0540      	lsls	r0, r0, #21
10004d70:	0d40      	lsrs	r0, r0, #21
10004d72:	4b1b      	ldr	r3, [pc, #108]	; (10004de0 <dpow_0+0x184>)
10004d74:	469c      	mov	ip, r3
10004d76:	4460      	add	r0, ip
10004d78:	2380      	movs	r3, #128	; 0x80
10004d7a:	011b      	lsls	r3, r3, #4
10004d7c:	429f      	cmp	r7, r3
10004d7e:	da04      	bge.n	10004d8a <dpow_0+0x12e>
10004d80:	4b19      	ldr	r3, [pc, #100]	; (10004de8 <dpow_0+0x18c>)
10004d82:	429f      	cmp	r7, r3
10004d84:	da02      	bge.n	10004d8c <dpow_0+0x130>
10004d86:	4f18      	ldr	r7, [pc, #96]	; (10004de8 <dpow_0+0x18c>)
10004d88:	e000      	b.n	10004d8c <dpow_0+0x130>
10004d8a:	4f16      	ldr	r7, [pc, #88]	; (10004de4 <dpow_0+0x188>)
10004d8c:	4378      	muls	r0, r7
10004d8e:	4b17      	ldr	r3, [pc, #92]	; (10004dec <dpow_0+0x190>)
10004d90:	18c3      	adds	r3, r0, r3
10004d92:	2b00      	cmp	r3, #0
10004d94:	dd09      	ble.n	10004daa <dpow_0+0x14e>
10004d96:	4a16      	ldr	r2, [pc, #88]	; (10004df0 <dpow_0+0x194>)
10004d98:	4293      	cmp	r3, r2
10004d9a:	dc09      	bgt.n	10004db0 <dpow_0+0x154>
10004d9c:	2600      	movs	r6, #0
10004d9e:	0507      	lsls	r7, r0, #20
10004da0:	2000      	movs	r0, #0
10004da2:	4914      	ldr	r1, [pc, #80]	; (10004df4 <dpow_0+0x198>)
10004da4:	1980      	adds	r0, r0, r6
10004da6:	4179      	adcs	r1, r7
10004da8:	e794      	b.n	10004cd4 <dpow_0+0x78>
10004daa:	2000      	movs	r0, #0
10004dac:	2100      	movs	r1, #0
10004dae:	e791      	b.n	10004cd4 <dpow_0+0x78>
10004db0:	2000      	movs	r0, #0
10004db2:	4911      	ldr	r1, [pc, #68]	; (10004df8 <dpow_0+0x19c>)
10004db4:	e78e      	b.n	10004cd4 <dpow_0+0x78>
10004db6:	2f00      	cmp	r7, #0
10004db8:	db05      	blt.n	10004dc6 <dpow_0+0x16a>
10004dba:	003a      	movs	r2, r7
10004dbc:	9801      	ldr	r0, [sp, #4]
10004dbe:	0031      	movs	r1, r6
10004dc0:	f7ff fde2 	bl	10004988 <dpow_int2>
10004dc4:	e786      	b.n	10004cd4 <dpow_0+0x78>
10004dc6:	9a01      	ldr	r2, [sp, #4]
10004dc8:	0033      	movs	r3, r6
10004dca:	2000      	movs	r0, #0
10004dcc:	4909      	ldr	r1, [pc, #36]	; (10004df4 <dpow_0+0x198>)
10004dce:	f7ff fc84 	bl	100046da <__wrap___aeabi_ddiv>
10004dd2:	9001      	str	r0, [sp, #4]
10004dd4:	000e      	movs	r6, r1
10004dd6:	427f      	negs	r7, r7
10004dd8:	e7ef      	b.n	10004dba <dpow_0+0x15e>
10004dda:	2000      	movs	r0, #0
10004ddc:	4905      	ldr	r1, [pc, #20]	; (10004df4 <dpow_0+0x198>)
10004dde:	e779      	b.n	10004cd4 <dpow_0+0x78>
10004de0:	fffffc01 	.word	0xfffffc01
10004de4:	000007ff 	.word	0x000007ff
10004de8:	fffff800 	.word	0xfffff800
10004dec:	000003ff 	.word	0x000003ff
10004df0:	000007fe 	.word	0x000007fe
10004df4:	3ff00000 	.word	0x3ff00000
10004df8:	7ff00000 	.word	0x7ff00000

10004dfc <__wrap_ldexp>:
10004dfc:	b530      	push	{r4, r5, lr}
10004dfe:	0d0b      	lsrs	r3, r1, #20
10004e00:	055b      	lsls	r3, r3, #21
10004e02:	0d5c      	lsrs	r4, r3, #21
10004e04:	2b00      	cmp	r3, #0
10004e06:	d014      	beq.n	10004e32 <__wrap_ldexp+0x36>
10004e08:	4b0d      	ldr	r3, [pc, #52]	; (10004e40 <__wrap_ldexp+0x44>)
10004e0a:	429c      	cmp	r4, r3
10004e0c:	d011      	beq.n	10004e32 <__wrap_ldexp+0x36>
10004e0e:	1914      	adds	r4, r2, r4
10004e10:	2c00      	cmp	r4, #0
10004e12:	dd09      	ble.n	10004e28 <__wrap_ldexp+0x2c>
10004e14:	4b0b      	ldr	r3, [pc, #44]	; (10004e44 <__wrap_ldexp+0x48>)
10004e16:	429c      	cmp	r4, r3
10004e18:	dd0c      	ble.n	10004e34 <__wrap_ldexp+0x38>
10004e1a:	0fc9      	lsrs	r1, r1, #31
10004e1c:	07c9      	lsls	r1, r1, #31
10004e1e:	2400      	movs	r4, #0
10004e20:	4809      	ldr	r0, [pc, #36]	; (10004e48 <__wrap_ldexp+0x4c>)
10004e22:	4308      	orrs	r0, r1
10004e24:	0005      	movs	r5, r0
10004e26:	e002      	b.n	10004e2e <__wrap_ldexp+0x32>
10004e28:	2400      	movs	r4, #0
10004e2a:	0fc9      	lsrs	r1, r1, #31
10004e2c:	07cd      	lsls	r5, r1, #31
10004e2e:	0020      	movs	r0, r4
10004e30:	0029      	movs	r1, r5
10004e32:	bd30      	pop	{r4, r5, pc}
10004e34:	2400      	movs	r4, #0
10004e36:	0515      	lsls	r5, r2, #20
10004e38:	1824      	adds	r4, r4, r0
10004e3a:	414d      	adcs	r5, r1
10004e3c:	e7f7      	b.n	10004e2e <__wrap_ldexp+0x32>
10004e3e:	46c0      	nop			; (mov r8, r8)
10004e40:	000007ff 	.word	0x000007ff
10004e44:	000007fe 	.word	0x000007fe
10004e48:	7ff00000 	.word	0x7ff00000

10004e4c <__wrap_round>:
10004e4c:	b570      	push	{r4, r5, r6, lr}
10004e4e:	0d0b      	lsrs	r3, r1, #20
10004e50:	055b      	lsls	r3, r3, #21
10004e52:	0d5b      	lsrs	r3, r3, #21
10004e54:	4a22      	ldr	r2, [pc, #136]	; (10004ee0 <__wrap_round+0x94>)
10004e56:	4694      	mov	ip, r2
10004e58:	4463      	add	r3, ip
10004e5a:	1c5a      	adds	r2, r3, #1
10004e5c:	db26      	blt.n	10004eac <__wrap_round+0x60>
10004e5e:	1c5a      	adds	r2, r3, #1
10004e60:	d02a      	beq.n	10004eb8 <__wrap_round+0x6c>
10004e62:	2234      	movs	r2, #52	; 0x34
10004e64:	1ad2      	subs	r2, r2, r3
10004e66:	2a00      	cmp	r2, #0
10004e68:	dd1f      	ble.n	10004eaa <__wrap_round+0x5e>
10004e6a:	2433      	movs	r4, #51	; 0x33
10004e6c:	1ae4      	subs	r4, r4, r3
10004e6e:	2320      	movs	r3, #32
10004e70:	425b      	negs	r3, r3
10004e72:	18e5      	adds	r5, r4, r3
10004e74:	d427      	bmi.n	10004ec6 <__wrap_round+0x7a>
10004e76:	2601      	movs	r6, #1
10004e78:	40ae      	lsls	r6, r5
10004e7a:	0033      	movs	r3, r6
10004e7c:	2501      	movs	r5, #1
10004e7e:	40a5      	lsls	r5, r4
10004e80:	002a      	movs	r2, r5
10004e82:	1812      	adds	r2, r2, r0
10004e84:	414b      	adcs	r3, r1
10004e86:	2120      	movs	r1, #32
10004e88:	4249      	negs	r1, r1
10004e8a:	1865      	adds	r5, r4, r1
10004e8c:	d421      	bmi.n	10004ed2 <__wrap_round+0x86>
10004e8e:	2602      	movs	r6, #2
10004e90:	40ae      	lsls	r6, r5
10004e92:	0031      	movs	r1, r6
10004e94:	2502      	movs	r5, #2
10004e96:	40a5      	lsls	r5, r4
10004e98:	0028      	movs	r0, r5
10004e9a:	2500      	movs	r5, #0
10004e9c:	4244      	negs	r4, r0
10004e9e:	418d      	sbcs	r5, r1
10004ea0:	0016      	movs	r6, r2
10004ea2:	4026      	ands	r6, r4
10004ea4:	0030      	movs	r0, r6
10004ea6:	402b      	ands	r3, r5
10004ea8:	0019      	movs	r1, r3
10004eaa:	bd70      	pop	{r4, r5, r6, pc}
10004eac:	2200      	movs	r2, #0
10004eae:	0fc9      	lsrs	r1, r1, #31
10004eb0:	07cb      	lsls	r3, r1, #31
10004eb2:	0010      	movs	r0, r2
10004eb4:	0019      	movs	r1, r3
10004eb6:	e7f8      	b.n	10004eaa <__wrap_round+0x5e>
10004eb8:	0fcb      	lsrs	r3, r1, #31
10004eba:	07db      	lsls	r3, r3, #31
10004ebc:	2000      	movs	r0, #0
10004ebe:	4a09      	ldr	r2, [pc, #36]	; (10004ee4 <__wrap_round+0x98>)
10004ec0:	431a      	orrs	r2, r3
10004ec2:	0011      	movs	r1, r2
10004ec4:	e7f1      	b.n	10004eaa <__wrap_round+0x5e>
10004ec6:	2520      	movs	r5, #32
10004ec8:	1b2d      	subs	r5, r5, r4
10004eca:	2601      	movs	r6, #1
10004ecc:	40ee      	lsrs	r6, r5
10004ece:	0033      	movs	r3, r6
10004ed0:	e7d4      	b.n	10004e7c <__wrap_round+0x30>
10004ed2:	2520      	movs	r5, #32
10004ed4:	1b2d      	subs	r5, r5, r4
10004ed6:	2602      	movs	r6, #2
10004ed8:	40ee      	lsrs	r6, r5
10004eda:	0031      	movs	r1, r6
10004edc:	e7da      	b.n	10004e94 <__wrap_round+0x48>
10004ede:	46c0      	nop			; (mov r8, r8)
10004ee0:	fffffc01 	.word	0xfffffc01
10004ee4:	3ff00000 	.word	0x3ff00000

10004ee8 <__wrap_exp2>:
10004ee8:	b570      	push	{r4, r5, r6, lr}
10004eea:	0005      	movs	r5, r0
10004eec:	000c      	movs	r4, r1
10004eee:	0d0a      	lsrs	r2, r1, #20
10004ef0:	4b28      	ldr	r3, [pc, #160]	; (10004f94 <__wrap_exp2+0xac>)
10004ef2:	429a      	cmp	r2, r3
10004ef4:	d047      	beq.n	10004f86 <__wrap_exp2+0x9e>
10004ef6:	2200      	movs	r2, #0
10004ef8:	4b27      	ldr	r3, [pc, #156]	; (10004f98 <__wrap_exp2+0xb0>)
10004efa:	0028      	movs	r0, r5
10004efc:	0021      	movs	r1, r4
10004efe:	f7ff fc53 	bl	100047a8 <__wrap___aeabi_dcmple>
10004f02:	2800      	cmp	r0, #0
10004f04:	d142      	bne.n	10004f8c <__wrap_exp2+0xa4>
10004f06:	2200      	movs	r2, #0
10004f08:	4b24      	ldr	r3, [pc, #144]	; (10004f9c <__wrap_exp2+0xb4>)
10004f0a:	0028      	movs	r0, r5
10004f0c:	0021      	movs	r1, r4
10004f0e:	f7ff fc53 	bl	100047b8 <__wrap___aeabi_dcmpge>
10004f12:	2800      	cmp	r0, #0
10004f14:	d002      	beq.n	10004f1c <__wrap_exp2+0x34>
10004f16:	2000      	movs	r0, #0
10004f18:	4921      	ldr	r1, [pc, #132]	; (10004fa0 <__wrap_exp2+0xb8>)
10004f1a:	e039      	b.n	10004f90 <__wrap_exp2+0xa8>
10004f1c:	0028      	movs	r0, r5
10004f1e:	0021      	movs	r1, r4
10004f20:	f7ff ff94 	bl	10004e4c <__wrap_round>
10004f24:	f7ff fc80 	bl	10004828 <__wrap___aeabi_d2iz>
10004f28:	0006      	movs	r6, r0
10004f2a:	f7ff fc65 	bl	100047f8 <__wrap___aeabi_i2d>
10004f2e:	0002      	movs	r2, r0
10004f30:	000b      	movs	r3, r1
10004f32:	0028      	movs	r0, r5
10004f34:	0021      	movs	r1, r4
10004f36:	f7ff fbc6 	bl	100046c6 <__wrap___aeabi_dsub>
10004f3a:	4a1a      	ldr	r2, [pc, #104]	; (10004fa4 <__wrap_exp2+0xbc>)
10004f3c:	4b1a      	ldr	r3, [pc, #104]	; (10004fa8 <__wrap_exp2+0xc0>)
10004f3e:	f7ff fbe6 	bl	1000470e <__wrap___aeabi_dmul>
10004f42:	f7ff fca5 	bl	10004890 <__wrap_exp>
10004f46:	0004      	movs	r4, r0
10004f48:	000d      	movs	r5, r1
10004f4a:	0d0b      	lsrs	r3, r1, #20
10004f4c:	055b      	lsls	r3, r3, #21
10004f4e:	0d5a      	lsrs	r2, r3, #21
10004f50:	2b00      	cmp	r3, #0
10004f52:	d01d      	beq.n	10004f90 <__wrap_exp2+0xa8>
10004f54:	4b15      	ldr	r3, [pc, #84]	; (10004fac <__wrap_exp2+0xc4>)
10004f56:	429a      	cmp	r2, r3
10004f58:	d01a      	beq.n	10004f90 <__wrap_exp2+0xa8>
10004f5a:	18b2      	adds	r2, r6, r2
10004f5c:	2a00      	cmp	r2, #0
10004f5e:	dd09      	ble.n	10004f74 <__wrap_exp2+0x8c>
10004f60:	4b13      	ldr	r3, [pc, #76]	; (10004fb0 <__wrap_exp2+0xc8>)
10004f62:	429a      	cmp	r2, r3
10004f64:	dd0a      	ble.n	10004f7c <__wrap_exp2+0x94>
10004f66:	0fcb      	lsrs	r3, r1, #31
10004f68:	07db      	lsls	r3, r3, #31
10004f6a:	2000      	movs	r0, #0
10004f6c:	4a0c      	ldr	r2, [pc, #48]	; (10004fa0 <__wrap_exp2+0xb8>)
10004f6e:	431a      	orrs	r2, r3
10004f70:	0011      	movs	r1, r2
10004f72:	e00d      	b.n	10004f90 <__wrap_exp2+0xa8>
10004f74:	2000      	movs	r0, #0
10004f76:	0fcb      	lsrs	r3, r1, #31
10004f78:	07d9      	lsls	r1, r3, #31
10004f7a:	e009      	b.n	10004f90 <__wrap_exp2+0xa8>
10004f7c:	2000      	movs	r0, #0
10004f7e:	0531      	lsls	r1, r6, #20
10004f80:	1900      	adds	r0, r0, r4
10004f82:	4169      	adcs	r1, r5
10004f84:	e004      	b.n	10004f90 <__wrap_exp2+0xa8>
10004f86:	2000      	movs	r0, #0
10004f88:	2100      	movs	r1, #0
10004f8a:	e001      	b.n	10004f90 <__wrap_exp2+0xa8>
10004f8c:	2000      	movs	r0, #0
10004f8e:	2100      	movs	r1, #0
10004f90:	bd70      	pop	{r4, r5, r6, pc}
10004f92:	46c0      	nop			; (mov r8, r8)
10004f94:	00000fff 	.word	0x00000fff
10004f98:	c0b00000 	.word	0xc0b00000
10004f9c:	40b00000 	.word	0x40b00000
10004fa0:	7ff00000 	.word	0x7ff00000
10004fa4:	fefa39ef 	.word	0xfefa39ef
10004fa8:	3fe62e42 	.word	0x3fe62e42
10004fac:	000007ff 	.word	0x000007ff
10004fb0:	000007fe 	.word	0x000007fe

10004fb4 <__wrap_pow>:
10004fb4:	b5f0      	push	{r4, r5, r6, r7, lr}
10004fb6:	b083      	sub	sp, #12
10004fb8:	0005      	movs	r5, r0
10004fba:	9000      	str	r0, [sp, #0]
10004fbc:	000c      	movs	r4, r1
10004fbe:	9201      	str	r2, [sp, #4]
10004fc0:	001f      	movs	r7, r3
10004fc2:	2200      	movs	r2, #0
10004fc4:	4bb4      	ldr	r3, [pc, #720]	; (10005298 <__wrap_pow+0x2e4>)
10004fc6:	0028      	movs	r0, r5
10004fc8:	0021      	movs	r1, r4
10004fca:	f7ff fbdf 	bl	1000478c <__wrap___aeabi_dcmpeq>
10004fce:	2800      	cmp	r0, #0
10004fd0:	d141      	bne.n	10005056 <__wrap_pow+0xa2>
10004fd2:	0d3e      	lsrs	r6, r7, #20
10004fd4:	0573      	lsls	r3, r6, #21
10004fd6:	0d5d      	lsrs	r5, r3, #21
10004fd8:	2b00      	cmp	r3, #0
10004fda:	d03c      	beq.n	10005056 <__wrap_pow+0xa2>
10004fdc:	2200      	movs	r2, #0
10004fde:	4baf      	ldr	r3, [pc, #700]	; (1000529c <__wrap_pow+0x2e8>)
10004fe0:	9800      	ldr	r0, [sp, #0]
10004fe2:	0021      	movs	r1, r4
10004fe4:	f7ff fbd2 	bl	1000478c <__wrap___aeabi_dcmpeq>
10004fe8:	2800      	cmp	r0, #0
10004fea:	d003      	beq.n	10004ff4 <__wrap_pow+0x40>
10004fec:	4bac      	ldr	r3, [pc, #688]	; (100052a0 <__wrap_pow+0x2ec>)
10004fee:	429d      	cmp	r5, r3
10004ff0:	d100      	bne.n	10004ff4 <__wrap_pow+0x40>
10004ff2:	e181      	b.n	100052f8 <__wrap_pow+0x344>
10004ff4:	0d22      	lsrs	r2, r4, #20
10004ff6:	0553      	lsls	r3, r2, #21
10004ff8:	0d59      	lsrs	r1, r3, #21
10004ffa:	2b00      	cmp	r3, #0
10004ffc:	d000      	beq.n	10005000 <__wrap_pow+0x4c>
10004ffe:	e081      	b.n	10005104 <__wrap_pow+0x150>
10005000:	0ffa      	lsrs	r2, r7, #31
10005002:	2f00      	cmp	r7, #0
10005004:	db3f      	blt.n	10005086 <__wrap_pow+0xd2>
10005006:	0d3b      	lsrs	r3, r7, #20
10005008:	055b      	lsls	r3, r3, #21
1000500a:	0d5b      	lsrs	r3, r3, #21
1000500c:	49a5      	ldr	r1, [pc, #660]	; (100052a4 <__wrap_pow+0x2f0>)
1000500e:	185b      	adds	r3, r3, r1
10005010:	d41c      	bmi.n	1000504c <__wrap_pow+0x98>
10005012:	2134      	movs	r1, #52	; 0x34
10005014:	1acb      	subs	r3, r1, r3
10005016:	d419      	bmi.n	1000504c <__wrap_pow+0x98>
10005018:	3954      	subs	r1, #84	; 0x54
1000501a:	1858      	adds	r0, r3, r1
1000501c:	d421      	bmi.n	10005062 <__wrap_pow+0xae>
1000501e:	311f      	adds	r1, #31
10005020:	4081      	lsls	r1, r0
10005022:	2001      	movs	r0, #1
10005024:	4240      	negs	r0, r0
10005026:	4098      	lsls	r0, r3
10005028:	9d01      	ldr	r5, [sp, #4]
1000502a:	4385      	bics	r5, r0
1000502c:	0028      	movs	r0, r5
1000502e:	003d      	movs	r5, r7
10005030:	438d      	bics	r5, r1
10005032:	0029      	movs	r1, r5
10005034:	4301      	orrs	r1, r0
10005036:	d109      	bne.n	1000504c <__wrap_pow+0x98>
10005038:	2b34      	cmp	r3, #52	; 0x34
1000503a:	d022      	beq.n	10005082 <__wrap_pow+0xce>
1000503c:	2220      	movs	r2, #32
1000503e:	4252      	negs	r2, r2
10005040:	189a      	adds	r2, r3, r2
10005042:	d417      	bmi.n	10005074 <__wrap_pow+0xc0>
10005044:	40d7      	lsrs	r7, r2
10005046:	003a      	movs	r2, r7
10005048:	2301      	movs	r3, #1
1000504a:	401a      	ands	r2, r3
1000504c:	2a00      	cmp	r2, #0
1000504e:	d100      	bne.n	10005052 <__wrap_pow+0x9e>
10005050:	e155      	b.n	100052fe <__wrap_pow+0x34a>
10005052:	9d00      	ldr	r5, [sp, #0]
10005054:	e001      	b.n	1000505a <__wrap_pow+0xa6>
10005056:	2500      	movs	r5, #0
10005058:	4c8f      	ldr	r4, [pc, #572]	; (10005298 <__wrap_pow+0x2e4>)
1000505a:	0028      	movs	r0, r5
1000505c:	0021      	movs	r1, r4
1000505e:	b003      	add	sp, #12
10005060:	bdf0      	pop	{r4, r5, r6, r7, pc}
10005062:	2020      	movs	r0, #32
10005064:	1ac0      	subs	r0, r0, r3
10005066:	2101      	movs	r1, #1
10005068:	4249      	negs	r1, r1
1000506a:	000d      	movs	r5, r1
1000506c:	40c5      	lsrs	r5, r0
1000506e:	4099      	lsls	r1, r3
10005070:	4329      	orrs	r1, r5
10005072:	e7d6      	b.n	10005022 <__wrap_pow+0x6e>
10005074:	2220      	movs	r2, #32
10005076:	1ad2      	subs	r2, r2, r3
10005078:	4097      	lsls	r7, r2
1000507a:	9a01      	ldr	r2, [sp, #4]
1000507c:	40da      	lsrs	r2, r3
1000507e:	433a      	orrs	r2, r7
10005080:	e7e2      	b.n	10005048 <__wrap_pow+0x94>
10005082:	2201      	movs	r2, #1
10005084:	e7e2      	b.n	1000504c <__wrap_pow+0x98>
10005086:	0d3b      	lsrs	r3, r7, #20
10005088:	055b      	lsls	r3, r3, #21
1000508a:	0d5b      	lsrs	r3, r3, #21
1000508c:	4a85      	ldr	r2, [pc, #532]	; (100052a4 <__wrap_pow+0x2f0>)
1000508e:	189b      	adds	r3, r3, r2
10005090:	d41b      	bmi.n	100050ca <__wrap_pow+0x116>
10005092:	2234      	movs	r2, #52	; 0x34
10005094:	1ad3      	subs	r3, r2, r3
10005096:	d418      	bmi.n	100050ca <__wrap_pow+0x116>
10005098:	3a54      	subs	r2, #84	; 0x54
1000509a:	1898      	adds	r0, r3, r2
1000509c:	d420      	bmi.n	100050e0 <__wrap_pow+0x12c>
1000509e:	321f      	adds	r2, #31
100050a0:	4082      	lsls	r2, r0
100050a2:	2001      	movs	r0, #1
100050a4:	4240      	negs	r0, r0
100050a6:	4098      	lsls	r0, r3
100050a8:	9d01      	ldr	r5, [sp, #4]
100050aa:	4385      	bics	r5, r0
100050ac:	0028      	movs	r0, r5
100050ae:	003d      	movs	r5, r7
100050b0:	4395      	bics	r5, r2
100050b2:	002a      	movs	r2, r5
100050b4:	4302      	orrs	r2, r0
100050b6:	d108      	bne.n	100050ca <__wrap_pow+0x116>
100050b8:	2b34      	cmp	r3, #52	; 0x34
100050ba:	d021      	beq.n	10005100 <__wrap_pow+0x14c>
100050bc:	3a20      	subs	r2, #32
100050be:	189a      	adds	r2, r3, r2
100050c0:	d417      	bmi.n	100050f2 <__wrap_pow+0x13e>
100050c2:	0039      	movs	r1, r7
100050c4:	40d1      	lsrs	r1, r2
100050c6:	2301      	movs	r3, #1
100050c8:	4019      	ands	r1, r3
100050ca:	2900      	cmp	r1, #0
100050cc:	d100      	bne.n	100050d0 <__wrap_pow+0x11c>
100050ce:	e119      	b.n	10005304 <__wrap_pow+0x350>
100050d0:	0fe4      	lsrs	r4, r4, #31
100050d2:	07e4      	lsls	r4, r4, #31
100050d4:	2200      	movs	r2, #0
100050d6:	4974      	ldr	r1, [pc, #464]	; (100052a8 <__wrap_pow+0x2f4>)
100050d8:	4321      	orrs	r1, r4
100050da:	0015      	movs	r5, r2
100050dc:	000c      	movs	r4, r1
100050de:	e7bc      	b.n	1000505a <__wrap_pow+0xa6>
100050e0:	2020      	movs	r0, #32
100050e2:	1ac0      	subs	r0, r0, r3
100050e4:	2201      	movs	r2, #1
100050e6:	4252      	negs	r2, r2
100050e8:	0015      	movs	r5, r2
100050ea:	40c5      	lsrs	r5, r0
100050ec:	409a      	lsls	r2, r3
100050ee:	432a      	orrs	r2, r5
100050f0:	e7d7      	b.n	100050a2 <__wrap_pow+0xee>
100050f2:	2220      	movs	r2, #32
100050f4:	1ad2      	subs	r2, r2, r3
100050f6:	4097      	lsls	r7, r2
100050f8:	9901      	ldr	r1, [sp, #4]
100050fa:	40d9      	lsrs	r1, r3
100050fc:	4339      	orrs	r1, r7
100050fe:	e7e2      	b.n	100050c6 <__wrap_pow+0x112>
10005100:	2101      	movs	r1, #1
10005102:	e7e2      	b.n	100050ca <__wrap_pow+0x116>
10005104:	4b66      	ldr	r3, [pc, #408]	; (100052a0 <__wrap_pow+0x2ec>)
10005106:	429a      	cmp	r2, r3
10005108:	d02c      	beq.n	10005164 <__wrap_pow+0x1b0>
1000510a:	4b68      	ldr	r3, [pc, #416]	; (100052ac <__wrap_pow+0x2f8>)
1000510c:	429a      	cmp	r2, r3
1000510e:	d02f      	beq.n	10005170 <__wrap_pow+0x1bc>
10005110:	4b63      	ldr	r3, [pc, #396]	; (100052a0 <__wrap_pow+0x2ec>)
10005112:	429e      	cmp	r6, r3
10005114:	d100      	bne.n	10005118 <__wrap_pow+0x164>
10005116:	e0a9      	b.n	1000526c <__wrap_pow+0x2b8>
10005118:	4b64      	ldr	r3, [pc, #400]	; (100052ac <__wrap_pow+0x2f8>)
1000511a:	429e      	cmp	r6, r3
1000511c:	d100      	bne.n	10005120 <__wrap_pow+0x16c>
1000511e:	e0ab      	b.n	10005278 <__wrap_pow+0x2c4>
10005120:	0d3b      	lsrs	r3, r7, #20
10005122:	055b      	lsls	r3, r3, #21
10005124:	0d5a      	lsrs	r2, r3, #21
10005126:	2b00      	cmp	r3, #0
10005128:	d100      	bne.n	1000512c <__wrap_pow+0x178>
1000512a:	e0c5      	b.n	100052b8 <__wrap_pow+0x304>
1000512c:	4b5d      	ldr	r3, [pc, #372]	; (100052a4 <__wrap_pow+0x2f0>)
1000512e:	18d2      	adds	r2, r2, r3
10005130:	d500      	bpl.n	10005134 <__wrap_pow+0x180>
10005132:	e0c9      	b.n	100052c8 <__wrap_pow+0x314>
10005134:	2334      	movs	r3, #52	; 0x34
10005136:	1a9a      	subs	r2, r3, r2
10005138:	2a00      	cmp	r2, #0
1000513a:	dc00      	bgt.n	1000513e <__wrap_pow+0x18a>
1000513c:	e0c6      	b.n	100052cc <__wrap_pow+0x318>
1000513e:	3b54      	subs	r3, #84	; 0x54
10005140:	18d1      	adds	r1, r2, r3
10005142:	d500      	bpl.n	10005146 <__wrap_pow+0x192>
10005144:	e09e      	b.n	10005284 <__wrap_pow+0x2d0>
10005146:	331f      	adds	r3, #31
10005148:	408b      	lsls	r3, r1
1000514a:	2101      	movs	r1, #1
1000514c:	4249      	negs	r1, r1
1000514e:	4091      	lsls	r1, r2
10005150:	9a01      	ldr	r2, [sp, #4]
10005152:	438a      	bics	r2, r1
10005154:	0039      	movs	r1, r7
10005156:	4399      	bics	r1, r3
10005158:	000b      	movs	r3, r1
1000515a:	4313      	orrs	r3, r2
1000515c:	d000      	beq.n	10005160 <__wrap_pow+0x1ac>
1000515e:	e0b7      	b.n	100052d0 <__wrap_pow+0x31c>
10005160:	3301      	adds	r3, #1
10005162:	e0aa      	b.n	100052ba <__wrap_pow+0x306>
10005164:	2f00      	cmp	r7, #0
10005166:	db00      	blt.n	1000516a <__wrap_pow+0x1b6>
10005168:	e0cf      	b.n	1000530a <__wrap_pow+0x356>
1000516a:	2500      	movs	r5, #0
1000516c:	2400      	movs	r4, #0
1000516e:	e774      	b.n	1000505a <__wrap_pow+0xa6>
10005170:	0ffa      	lsrs	r2, r7, #31
10005172:	2f00      	cmp	r7, #0
10005174:	db3a      	blt.n	100051ec <__wrap_pow+0x238>
10005176:	0d3b      	lsrs	r3, r7, #20
10005178:	055b      	lsls	r3, r3, #21
1000517a:	0d5b      	lsrs	r3, r3, #21
1000517c:	4949      	ldr	r1, [pc, #292]	; (100052a4 <__wrap_pow+0x2f0>)
1000517e:	185b      	adds	r3, r3, r1
10005180:	d41c      	bmi.n	100051bc <__wrap_pow+0x208>
10005182:	2134      	movs	r1, #52	; 0x34
10005184:	1acb      	subs	r3, r1, r3
10005186:	d419      	bmi.n	100051bc <__wrap_pow+0x208>
10005188:	3954      	subs	r1, #84	; 0x54
1000518a:	1858      	adds	r0, r3, r1
1000518c:	d41c      	bmi.n	100051c8 <__wrap_pow+0x214>
1000518e:	311f      	adds	r1, #31
10005190:	4081      	lsls	r1, r0
10005192:	2001      	movs	r0, #1
10005194:	4240      	negs	r0, r0
10005196:	4098      	lsls	r0, r3
10005198:	9c01      	ldr	r4, [sp, #4]
1000519a:	4384      	bics	r4, r0
1000519c:	0020      	movs	r0, r4
1000519e:	003c      	movs	r4, r7
100051a0:	438c      	bics	r4, r1
100051a2:	0021      	movs	r1, r4
100051a4:	4301      	orrs	r1, r0
100051a6:	d109      	bne.n	100051bc <__wrap_pow+0x208>
100051a8:	2b34      	cmp	r3, #52	; 0x34
100051aa:	d01d      	beq.n	100051e8 <__wrap_pow+0x234>
100051ac:	2220      	movs	r2, #32
100051ae:	4252      	negs	r2, r2
100051b0:	189a      	adds	r2, r3, r2
100051b2:	d412      	bmi.n	100051da <__wrap_pow+0x226>
100051b4:	40d7      	lsrs	r7, r2
100051b6:	003a      	movs	r2, r7
100051b8:	2301      	movs	r3, #1
100051ba:	401a      	ands	r2, r3
100051bc:	2a00      	cmp	r2, #0
100051be:	d100      	bne.n	100051c2 <__wrap_pow+0x20e>
100051c0:	e0a6      	b.n	10005310 <__wrap_pow+0x35c>
100051c2:	2500      	movs	r5, #0
100051c4:	4c3a      	ldr	r4, [pc, #232]	; (100052b0 <__wrap_pow+0x2fc>)
100051c6:	e748      	b.n	1000505a <__wrap_pow+0xa6>
100051c8:	2020      	movs	r0, #32
100051ca:	1ac0      	subs	r0, r0, r3
100051cc:	2101      	movs	r1, #1
100051ce:	4249      	negs	r1, r1
100051d0:	000c      	movs	r4, r1
100051d2:	40c4      	lsrs	r4, r0
100051d4:	4099      	lsls	r1, r3
100051d6:	4321      	orrs	r1, r4
100051d8:	e7db      	b.n	10005192 <__wrap_pow+0x1de>
100051da:	2220      	movs	r2, #32
100051dc:	1ad2      	subs	r2, r2, r3
100051de:	4097      	lsls	r7, r2
100051e0:	9a01      	ldr	r2, [sp, #4]
100051e2:	40da      	lsrs	r2, r3
100051e4:	433a      	orrs	r2, r7
100051e6:	e7e7      	b.n	100051b8 <__wrap_pow+0x204>
100051e8:	2201      	movs	r2, #1
100051ea:	e7e7      	b.n	100051bc <__wrap_pow+0x208>
100051ec:	0d3b      	lsrs	r3, r7, #20
100051ee:	055b      	lsls	r3, r3, #21
100051f0:	0d5b      	lsrs	r3, r3, #21
100051f2:	4a2c      	ldr	r2, [pc, #176]	; (100052a4 <__wrap_pow+0x2f0>)
100051f4:	189b      	adds	r3, r3, r2
100051f6:	d431      	bmi.n	1000525c <__wrap_pow+0x2a8>
100051f8:	2234      	movs	r2, #52	; 0x34
100051fa:	1ad3      	subs	r3, r2, r3
100051fc:	d430      	bmi.n	10005260 <__wrap_pow+0x2ac>
100051fe:	3a54      	subs	r2, #84	; 0x54
10005200:	1899      	adds	r1, r3, r2
10005202:	d41a      	bmi.n	1000523a <__wrap_pow+0x286>
10005204:	321f      	adds	r2, #31
10005206:	408a      	lsls	r2, r1
10005208:	2101      	movs	r1, #1
1000520a:	4249      	negs	r1, r1
1000520c:	4099      	lsls	r1, r3
1000520e:	9801      	ldr	r0, [sp, #4]
10005210:	4388      	bics	r0, r1
10005212:	0001      	movs	r1, r0
10005214:	0038      	movs	r0, r7
10005216:	4390      	bics	r0, r2
10005218:	0002      	movs	r2, r0
1000521a:	430a      	orrs	r2, r1
1000521c:	d122      	bne.n	10005264 <__wrap_pow+0x2b0>
1000521e:	2b34      	cmp	r3, #52	; 0x34
10005220:	d022      	beq.n	10005268 <__wrap_pow+0x2b4>
10005222:	3a20      	subs	r2, #32
10005224:	189a      	adds	r2, r3, r2
10005226:	d411      	bmi.n	1000524c <__wrap_pow+0x298>
10005228:	40d7      	lsrs	r7, r2
1000522a:	2601      	movs	r6, #1
1000522c:	4037      	ands	r7, r6
1000522e:	2f00      	cmp	r7, #0
10005230:	d071      	beq.n	10005316 <__wrap_pow+0x362>
10005232:	2500      	movs	r5, #0
10005234:	2480      	movs	r4, #128	; 0x80
10005236:	0624      	lsls	r4, r4, #24
10005238:	e70f      	b.n	1000505a <__wrap_pow+0xa6>
1000523a:	2120      	movs	r1, #32
1000523c:	1ac9      	subs	r1, r1, r3
1000523e:	2201      	movs	r2, #1
10005240:	4252      	negs	r2, r2
10005242:	0010      	movs	r0, r2
10005244:	40c8      	lsrs	r0, r1
10005246:	409a      	lsls	r2, r3
10005248:	4302      	orrs	r2, r0
1000524a:	e7dd      	b.n	10005208 <__wrap_pow+0x254>
1000524c:	2220      	movs	r2, #32
1000524e:	1ad2      	subs	r2, r2, r3
10005250:	4097      	lsls	r7, r2
10005252:	003a      	movs	r2, r7
10005254:	9f01      	ldr	r7, [sp, #4]
10005256:	40df      	lsrs	r7, r3
10005258:	4317      	orrs	r7, r2
1000525a:	e7e6      	b.n	1000522a <__wrap_pow+0x276>
1000525c:	2700      	movs	r7, #0
1000525e:	e7e6      	b.n	1000522e <__wrap_pow+0x27a>
10005260:	2700      	movs	r7, #0
10005262:	e7e4      	b.n	1000522e <__wrap_pow+0x27a>
10005264:	2700      	movs	r7, #0
10005266:	e7e2      	b.n	1000522e <__wrap_pow+0x27a>
10005268:	2701      	movs	r7, #1
1000526a:	e7e0      	b.n	1000522e <__wrap_pow+0x27a>
1000526c:	4b11      	ldr	r3, [pc, #68]	; (100052b4 <__wrap_pow+0x300>)
1000526e:	4299      	cmp	r1, r3
10005270:	dc54      	bgt.n	1000531c <__wrap_pow+0x368>
10005272:	2500      	movs	r5, #0
10005274:	2400      	movs	r4, #0
10005276:	e6f0      	b.n	1000505a <__wrap_pow+0xa6>
10005278:	4b0e      	ldr	r3, [pc, #56]	; (100052b4 <__wrap_pow+0x300>)
1000527a:	4299      	cmp	r1, r3
1000527c:	dc51      	bgt.n	10005322 <__wrap_pow+0x36e>
1000527e:	2500      	movs	r5, #0
10005280:	4c09      	ldr	r4, [pc, #36]	; (100052a8 <__wrap_pow+0x2f4>)
10005282:	e6ea      	b.n	1000505a <__wrap_pow+0xa6>
10005284:	2120      	movs	r1, #32
10005286:	1a89      	subs	r1, r1, r2
10005288:	2301      	movs	r3, #1
1000528a:	425b      	negs	r3, r3
1000528c:	0018      	movs	r0, r3
1000528e:	40c8      	lsrs	r0, r1
10005290:	4093      	lsls	r3, r2
10005292:	4303      	orrs	r3, r0
10005294:	e759      	b.n	1000514a <__wrap_pow+0x196>
10005296:	46c0      	nop			; (mov r8, r8)
10005298:	3ff00000 	.word	0x3ff00000
1000529c:	bff00000 	.word	0xbff00000
100052a0:	000007ff 	.word	0x000007ff
100052a4:	fffffc01 	.word	0xfffffc01
100052a8:	7ff00000 	.word	0x7ff00000
100052ac:	00000fff 	.word	0x00000fff
100052b0:	fff00000 	.word	0xfff00000
100052b4:	000003fe 	.word	0x000003fe
100052b8:	2301      	movs	r3, #1
100052ba:	2b00      	cmp	r3, #0
100052bc:	d10a      	bne.n	100052d4 <__wrap_pow+0x320>
100052be:	2c00      	cmp	r4, #0
100052c0:	da11      	bge.n	100052e6 <__wrap_pow+0x332>
100052c2:	2500      	movs	r5, #0
100052c4:	4c18      	ldr	r4, [pc, #96]	; (10005328 <__wrap_pow+0x374>)
100052c6:	e6c8      	b.n	1000505a <__wrap_pow+0xa6>
100052c8:	2300      	movs	r3, #0
100052ca:	e7f6      	b.n	100052ba <__wrap_pow+0x306>
100052cc:	2301      	movs	r3, #1
100052ce:	e7f4      	b.n	100052ba <__wrap_pow+0x306>
100052d0:	2300      	movs	r3, #0
100052d2:	e7f2      	b.n	100052ba <__wrap_pow+0x306>
100052d4:	9a01      	ldr	r2, [sp, #4]
100052d6:	003b      	movs	r3, r7
100052d8:	9800      	ldr	r0, [sp, #0]
100052da:	0021      	movs	r1, r4
100052dc:	f7ff fcbe 	bl	10004c5c <dpow_0>
100052e0:	0005      	movs	r5, r0
100052e2:	000c      	movs	r4, r1
100052e4:	e6b9      	b.n	1000505a <__wrap_pow+0xa6>
100052e6:	9a01      	ldr	r2, [sp, #4]
100052e8:	003b      	movs	r3, r7
100052ea:	9800      	ldr	r0, [sp, #0]
100052ec:	0021      	movs	r1, r4
100052ee:	f7ff fb61 	bl	100049b4 <dpow_1>
100052f2:	0005      	movs	r5, r0
100052f4:	000c      	movs	r4, r1
100052f6:	e6b0      	b.n	1000505a <__wrap_pow+0xa6>
100052f8:	2500      	movs	r5, #0
100052fa:	4c0c      	ldr	r4, [pc, #48]	; (1000532c <__wrap_pow+0x378>)
100052fc:	e6ad      	b.n	1000505a <__wrap_pow+0xa6>
100052fe:	2500      	movs	r5, #0
10005300:	2400      	movs	r4, #0
10005302:	e6aa      	b.n	1000505a <__wrap_pow+0xa6>
10005304:	2500      	movs	r5, #0
10005306:	4c08      	ldr	r4, [pc, #32]	; (10005328 <__wrap_pow+0x374>)
10005308:	e6a7      	b.n	1000505a <__wrap_pow+0xa6>
1000530a:	2500      	movs	r5, #0
1000530c:	4c06      	ldr	r4, [pc, #24]	; (10005328 <__wrap_pow+0x374>)
1000530e:	e6a4      	b.n	1000505a <__wrap_pow+0xa6>
10005310:	2500      	movs	r5, #0
10005312:	4c05      	ldr	r4, [pc, #20]	; (10005328 <__wrap_pow+0x374>)
10005314:	e6a1      	b.n	1000505a <__wrap_pow+0xa6>
10005316:	2500      	movs	r5, #0
10005318:	2400      	movs	r4, #0
1000531a:	e69e      	b.n	1000505a <__wrap_pow+0xa6>
1000531c:	2500      	movs	r5, #0
1000531e:	4c02      	ldr	r4, [pc, #8]	; (10005328 <__wrap_pow+0x374>)
10005320:	e69b      	b.n	1000505a <__wrap_pow+0xa6>
10005322:	2500      	movs	r5, #0
10005324:	2400      	movs	r4, #0
10005326:	e698      	b.n	1000505a <__wrap_pow+0xa6>
10005328:	7ff00000 	.word	0x7ff00000
1000532c:	3ff00000 	.word	0x3ff00000

10005330 <double_table_shim_on_use_helper>:
10005330:	b507      	push	{r0, r1, r2, lr}
10005332:	4660      	mov	r0, ip
10005334:	2800      	cmp	r0, #0
10005336:	d100      	bne.n	1000533a <double_table_shim_on_use_helper+0xa>
10005338:	be00      	bkpt	0x0000
1000533a:	8801      	ldrh	r1, [r0, #0]
1000533c:	0a0a      	lsrs	r2, r1, #8
1000533e:	3002      	adds	r0, #2
10005340:	2adf      	cmp	r2, #223	; 0xdf
10005342:	d1fa      	bne.n	1000533a <double_table_shim_on_use_helper+0xa>
10005344:	b2c9      	uxtb	r1, r1
10005346:	0882      	lsrs	r2, r0, #2
10005348:	d304      	bcc.n	10005354 <double_table_shim_on_use_helper+0x24>
1000534a:	8802      	ldrh	r2, [r0, #0]
1000534c:	8840      	ldrh	r0, [r0, #2]
1000534e:	0400      	lsls	r0, r0, #16
10005350:	4310      	orrs	r0, r2
10005352:	e000      	b.n	10005356 <double_table_shim_on_use_helper+0x26>
10005354:	6800      	ldr	r0, [r0, #0]
10005356:	4a02      	ldr	r2, [pc, #8]	; (10005360 <double_table_shim_on_use_helper+0x30>)
10005358:	5050      	str	r0, [r2, r1]
1000535a:	9003      	str	r0, [sp, #12]
1000535c:	bd07      	pop	{r0, r1, r2, pc}
1000535e:	0000      	.short	0x0000
10005360:	2000230c 	.word	0x2000230c

10005364 <__wrap___aeabi_lmul>:
10005364:	4351      	muls	r1, r2
10005366:	4343      	muls	r3, r0
10005368:	18c9      	adds	r1, r1, r3
1000536a:	468c      	mov	ip, r1
1000536c:	0c11      	lsrs	r1, r2, #16
1000536e:	b283      	uxth	r3, r0
10005370:	434b      	muls	r3, r1
10005372:	b410      	push	{r4}
10005374:	0c04      	lsrs	r4, r0, #16
10005376:	4361      	muls	r1, r4
10005378:	b292      	uxth	r2, r2
1000537a:	b280      	uxth	r0, r0
1000537c:	4350      	muls	r0, r2
1000537e:	4362      	muls	r2, r4
10005380:	041c      	lsls	r4, r3, #16
10005382:	0c1b      	lsrs	r3, r3, #16
10005384:	1900      	adds	r0, r0, r4
10005386:	bc10      	pop	{r4}
10005388:	4159      	adcs	r1, r3
1000538a:	0413      	lsls	r3, r2, #16
1000538c:	0c12      	lsrs	r2, r2, #16
1000538e:	18c0      	adds	r0, r0, r3
10005390:	4151      	adcs	r1, r2
10005392:	4461      	add	r1, ip
10005394:	4770      	bx	lr
	...

10005398 <__wrap___aeabi_frsub>:
10005398:	4048      	eors	r0, r1
1000539a:	4041      	eors	r1, r0
1000539c:	4048      	eors	r0, r1

1000539e <__wrap___aeabi_fsub>:
1000539e:	4b0e      	ldr	r3, [pc, #56]	; (100053d8 <__wrap___aeabi_fmul+0x6>)
100053a0:	685b      	ldr	r3, [r3, #4]
100053a2:	4718      	bx	r3

100053a4 <__wrap___aeabi_fadd>:
100053a4:	4b0c      	ldr	r3, [pc, #48]	; (100053d8 <__wrap___aeabi_fmul+0x6>)
100053a6:	681b      	ldr	r3, [r3, #0]
100053a8:	4718      	bx	r3

100053aa <__wrap___aeabi_fdiv>:
100053aa:	4a0c      	ldr	r2, [pc, #48]	; (100053dc <__wrap___aeabi_fmul+0xa>)
100053ac:	6f93      	ldr	r3, [r2, #120]	; 0x78
100053ae:	089b      	lsrs	r3, r3, #2
100053b0:	d202      	bcs.n	100053b8 <fdiv_save_state>

100053b2 <fdiv_shim_call>:
100053b2:	4b09      	ldr	r3, [pc, #36]	; (100053d8 <__wrap___aeabi_fmul+0x6>)
100053b4:	68db      	ldr	r3, [r3, #12]
100053b6:	4718      	bx	r3

100053b8 <fdiv_save_state>:
100053b8:	b5f0      	push	{r4, r5, r6, r7, lr}
100053ba:	6e14      	ldr	r4, [r2, #96]	; 0x60
100053bc:	6e55      	ldr	r5, [r2, #100]	; 0x64
100053be:	6f57      	ldr	r7, [r2, #116]	; 0x74
100053c0:	6f16      	ldr	r6, [r2, #112]	; 0x70
100053c2:	f7ff fff6 	bl	100053b2 <fdiv_shim_call>
100053c6:	4a05      	ldr	r2, [pc, #20]	; (100053dc <__wrap___aeabi_fmul+0xa>)
100053c8:	6614      	str	r4, [r2, #96]	; 0x60
100053ca:	6655      	str	r5, [r2, #100]	; 0x64
100053cc:	6757      	str	r7, [r2, #116]	; 0x74
100053ce:	6716      	str	r6, [r2, #112]	; 0x70
100053d0:	bdf0      	pop	{r4, r5, r6, r7, pc}

100053d2 <__wrap___aeabi_fmul>:
100053d2:	4b01      	ldr	r3, [pc, #4]	; (100053d8 <__wrap___aeabi_fmul+0x6>)
100053d4:	689b      	ldr	r3, [r3, #8]
100053d6:	4718      	bx	r3
100053d8:	20002410 	.word	0x20002410
100053dc:	d0000000 	.word	0xd0000000

100053e0 <__wrap___aeabi_cfrcmple>:
100053e0:	b507      	push	{r0, r1, r2, lr}
100053e2:	4048      	eors	r0, r1
100053e4:	4041      	eors	r1, r0
100053e6:	4048      	eors	r0, r1
100053e8:	e001      	b.n	100053ee <__aeabi_cfcmple_guts>
100053ea:	46c0      	nop			; (mov r8, r8)

100053ec <__wrap___aeabi_cfcmpeq>:
100053ec:	b507      	push	{r0, r1, r2, lr}

100053ee <__aeabi_cfcmple_guts>:
100053ee:	0042      	lsls	r2, r0, #1
100053f0:	0e12      	lsrs	r2, r2, #24
100053f2:	d003      	beq.n	100053fc <__aeabi_cfcmple_guts+0xe>
100053f4:	2aff      	cmp	r2, #255	; 0xff
100053f6:	d103      	bne.n	10005400 <__aeabi_cfcmple_guts+0x12>
100053f8:	0242      	lsls	r2, r0, #9
100053fa:	d818      	bhi.n	1000542e <__aeabi_cfcmple_guts+0x40>
100053fc:	0dc0      	lsrs	r0, r0, #23
100053fe:	05c0      	lsls	r0, r0, #23
10005400:	004a      	lsls	r2, r1, #1
10005402:	0e12      	lsrs	r2, r2, #24
10005404:	d003      	beq.n	1000540e <__aeabi_cfcmple_guts+0x20>
10005406:	2aff      	cmp	r2, #255	; 0xff
10005408:	d103      	bne.n	10005412 <__aeabi_cfcmple_guts+0x24>
1000540a:	024a      	lsls	r2, r1, #9
1000540c:	d80f      	bhi.n	1000542e <__aeabi_cfcmple_guts+0x40>
1000540e:	0dc9      	lsrs	r1, r1, #23
10005410:	05c9      	lsls	r1, r1, #23
10005412:	2201      	movs	r2, #1
10005414:	4041      	eors	r1, r0
10005416:	d405      	bmi.n	10005424 <__aeabi_cfcmple_guts+0x36>
10005418:	4041      	eors	r1, r0
1000541a:	d501      	bpl.n	10005420 <__aeabi_cfcmple_guts+0x32>
1000541c:	4281      	cmp	r1, r0
1000541e:	bd07      	pop	{r0, r1, r2, pc}
10005420:	4288      	cmp	r0, r1
10005422:	bd07      	pop	{r0, r1, r2, pc}
10005424:	4301      	orrs	r1, r0
10005426:	1849      	adds	r1, r1, r1
10005428:	d001      	beq.n	1000542e <__aeabi_cfcmple_guts+0x40>
1000542a:	43c0      	mvns	r0, r0
1000542c:	1800      	adds	r0, r0, r0
1000542e:	bd07      	pop	{r0, r1, r2, pc}

10005430 <__wrap___aeabi_fcmpeq>:
10005430:	b500      	push	{lr}
10005432:	f7ff ffdb 	bl	100053ec <__wrap___aeabi_cfcmpeq>
10005436:	d001      	beq.n	1000543c <__wrap___aeabi_fcmpeq+0xc>
10005438:	2000      	movs	r0, #0
1000543a:	bd00      	pop	{pc}
1000543c:	2001      	movs	r0, #1
1000543e:	bd00      	pop	{pc}

10005440 <__wrap___aeabi_f2uiz>:
10005440:	4b01      	ldr	r3, [pc, #4]	; (10005448 <__wrap___aeabi_f2uiz+0x8>)
10005442:	6a5b      	ldr	r3, [r3, #36]	; 0x24
10005444:	4718      	bx	r3
10005446:	0000      	.short	0x0000
10005448:	20002410 	.word	0x20002410

1000544c <__wrap___aeabi_f2d>:
1000544c:	4b01      	ldr	r3, [pc, #4]	; (10005454 <__wrap___aeabi_f2d+0x8>)
1000544e:	6fdb      	ldr	r3, [r3, #124]	; 0x7c
10005450:	4718      	bx	r3
10005452:	0000      	.short	0x0000
10005454:	20002410 	.word	0x20002410

10005458 <missing_float_func_shim>:
10005458:	b510      	push	{r4, lr}
1000545a:	4801      	ldr	r0, [pc, #4]	; (10005460 <missing_float_func_shim+0x8>)
1000545c:	f7fd fdc0 	bl	10002fe0 <panic>
10005460:	10014444 	.word	0x10014444

10005464 <__aeabi_float_init>:
10005464:	b570      	push	{r4, r5, r6, lr}
10005466:	2313      	movs	r3, #19
10005468:	781e      	ldrb	r6, [r3, #0]
1000546a:	4818      	ldr	r0, [pc, #96]	; (100054cc <__aeabi_float_init+0x68>)
1000546c:	f7fe fea4 	bl	100041b8 <rom_data_lookup>
10005470:	0005      	movs	r5, r0
10005472:	2e01      	cmp	r6, #1
10005474:	d011      	beq.n	1000549a <__aeabi_float_init+0x36>
10005476:	2e01      	cmp	r6, #1
10005478:	dd09      	ble.n	1000548e <__aeabi_float_init+0x2a>
1000547a:	1eab      	subs	r3, r5, #2
1000547c:	781b      	ldrb	r3, [r3, #0]
1000547e:	009b      	lsls	r3, r3, #2
10005480:	2b7f      	cmp	r3, #127	; 0x7f
10005482:	dd1d      	ble.n	100054c0 <__aeabi_float_init+0x5c>
10005484:	2280      	movs	r2, #128	; 0x80
10005486:	0029      	movs	r1, r5
10005488:	4811      	ldr	r0, [pc, #68]	; (100054d0 <__aeabi_float_init+0x6c>)
1000548a:	f000 f88b 	bl	100055a4 <__wrap___aeabi_memcpy>
1000548e:	4811      	ldr	r0, [pc, #68]	; (100054d4 <__aeabi_float_init+0x70>)
10005490:	f7fe fe8a 	bl	100041a8 <rom_func_lookup>
10005494:	4b10      	ldr	r3, [pc, #64]	; (100054d8 <__aeabi_float_init+0x74>)
10005496:	6018      	str	r0, [r3, #0]
10005498:	bd70      	pop	{r4, r5, r6, pc}
1000549a:	2254      	movs	r2, #84	; 0x54
1000549c:	0001      	movs	r1, r0
1000549e:	480c      	ldr	r0, [pc, #48]	; (100054d0 <__aeabi_float_init+0x6c>)
100054a0:	f000 f880 	bl	100055a4 <__wrap___aeabi_memcpy>
100054a4:	2300      	movs	r3, #0
100054a6:	e000      	b.n	100054aa <__aeabi_float_init+0x46>
100054a8:	3301      	adds	r3, #1
100054aa:	2b1f      	cmp	r3, #31
100054ac:	d8e3      	bhi.n	10005476 <__aeabi_float_init+0x12>
100054ae:	009a      	lsls	r2, r3, #2
100054b0:	4c07      	ldr	r4, [pc, #28]	; (100054d0 <__aeabi_float_init+0x6c>)
100054b2:	5912      	ldr	r2, [r2, r4]
100054b4:	2a00      	cmp	r2, #0
100054b6:	d1f7      	bne.n	100054a8 <__aeabi_float_init+0x44>
100054b8:	009a      	lsls	r2, r3, #2
100054ba:	4808      	ldr	r0, [pc, #32]	; (100054dc <__aeabi_float_init+0x78>)
100054bc:	5110      	str	r0, [r2, r4]
100054be:	e7f3      	b.n	100054a8 <__aeabi_float_init+0x44>
100054c0:	4b07      	ldr	r3, [pc, #28]	; (100054e0 <__aeabi_float_init+0x7c>)
100054c2:	4a08      	ldr	r2, [pc, #32]	; (100054e4 <__aeabi_float_init+0x80>)
100054c4:	2142      	movs	r1, #66	; 0x42
100054c6:	4808      	ldr	r0, [pc, #32]	; (100054e8 <__aeabi_float_init+0x84>)
100054c8:	f7fd fcf0 	bl	10002eac <__assert_func>
100054cc:	00004653 	.word	0x00004653
100054d0:	20002410 	.word	0x20002410
100054d4:	0000334c 	.word	0x0000334c
100054d8:	2000240c 	.word	0x2000240c
100054dc:	10005459 	.word	0x10005459
100054e0:	10014854 	.word	0x10014854
100054e4:	100148ec 	.word	0x100148ec
100054e8:	10014888 	.word	0x10014888

100054ec <__wrap_malloc>:
100054ec:	b570      	push	{r4, r5, r6, lr}
100054ee:	0004      	movs	r4, r0
100054f0:	4e0a      	ldr	r6, [pc, #40]	; (1000551c <__wrap_malloc+0x30>)
100054f2:	0030      	movs	r0, r6
100054f4:	f00d fec4 	bl	10013280 <__mutex_enter_blocking_veneer>
100054f8:	0020      	movs	r0, r4
100054fa:	f00c f87f 	bl	100115fc <malloc>
100054fe:	0005      	movs	r5, r0
10005500:	0030      	movs	r0, r6
10005502:	f00d fe4d 	bl	100131a0 <__mutex_exit_veneer>
10005506:	2d00      	cmp	r5, #0
10005508:	d005      	beq.n	10005516 <__wrap_malloc+0x2a>
1000550a:	192c      	adds	r4, r5, r4
1000550c:	4b04      	ldr	r3, [pc, #16]	; (10005520 <__wrap_malloc+0x34>)
1000550e:	429c      	cmp	r4, r3
10005510:	d801      	bhi.n	10005516 <__wrap_malloc+0x2a>
10005512:	0028      	movs	r0, r5
10005514:	bd70      	pop	{r4, r5, r6, pc}
10005516:	4803      	ldr	r0, [pc, #12]	; (10005524 <__wrap_malloc+0x38>)
10005518:	f7fd fd62 	bl	10002fe0 <panic>
1000551c:	20001c24 	.word	0x20001c24
10005520:	20040000 	.word	0x20040000
10005524:	10014900 	.word	0x10014900

10005528 <__wrap_realloc>:
10005528:	b570      	push	{r4, r5, r6, lr}
1000552a:	0005      	movs	r5, r0
1000552c:	000c      	movs	r4, r1
1000552e:	4e0b      	ldr	r6, [pc, #44]	; (1000555c <__wrap_realloc+0x34>)
10005530:	0030      	movs	r0, r6
10005532:	f00d fea5 	bl	10013280 <__mutex_enter_blocking_veneer>
10005536:	0021      	movs	r1, r4
10005538:	0028      	movs	r0, r5
1000553a:	f00c fc33 	bl	10011da4 <realloc>
1000553e:	0005      	movs	r5, r0
10005540:	0030      	movs	r0, r6
10005542:	f00d fe2d 	bl	100131a0 <__mutex_exit_veneer>
10005546:	2d00      	cmp	r5, #0
10005548:	d005      	beq.n	10005556 <__wrap_realloc+0x2e>
1000554a:	192c      	adds	r4, r5, r4
1000554c:	4b04      	ldr	r3, [pc, #16]	; (10005560 <__wrap_realloc+0x38>)
1000554e:	429c      	cmp	r4, r3
10005550:	d801      	bhi.n	10005556 <__wrap_realloc+0x2e>
10005552:	0028      	movs	r0, r5
10005554:	bd70      	pop	{r4, r5, r6, pc}
10005556:	4803      	ldr	r0, [pc, #12]	; (10005564 <__wrap_realloc+0x3c>)
10005558:	f7fd fd42 	bl	10002fe0 <panic>
1000555c:	20001c24 	.word	0x20001c24
10005560:	20040000 	.word	0x20040000
10005564:	10014900 	.word	0x10014900

10005568 <__wrap_free>:
10005568:	b570      	push	{r4, r5, r6, lr}
1000556a:	0004      	movs	r4, r0
1000556c:	4d05      	ldr	r5, [pc, #20]	; (10005584 <__wrap_free+0x1c>)
1000556e:	0028      	movs	r0, r5
10005570:	f00d fe86 	bl	10013280 <__mutex_enter_blocking_veneer>
10005574:	0020      	movs	r0, r4
10005576:	f00c f84b 	bl	10011610 <free>
1000557a:	0028      	movs	r0, r5
1000557c:	f00d fe10 	bl	100131a0 <__mutex_exit_veneer>
10005580:	bd70      	pop	{r4, r5, r6, pc}
10005582:	46c0      	nop			; (mov r8, r8)
10005584:	20001c24 	.word	0x20001c24

10005588 <__aeabi_mem_init>:
10005588:	4801      	ldr	r0, [pc, #4]	; (10005590 <__aeabi_mem_init+0x8>)
1000558a:	2104      	movs	r1, #4
1000558c:	4b01      	ldr	r3, [pc, #4]	; (10005594 <__aeabi_mem_init+0xc>)
1000558e:	4718      	bx	r3
10005590:	200013a0 	.word	0x200013a0
10005594:	100041c9 	.word	0x100041c9

10005598 <__wrap_memset>:
10005598:	4b01      	ldr	r3, [pc, #4]	; (100055a0 <__wrap_memset+0x8>)
1000559a:	681b      	ldr	r3, [r3, #0]
1000559c:	4718      	bx	r3
1000559e:	0000      	.short	0x0000
100055a0:	200013a0 	.word	0x200013a0

100055a4 <__wrap___aeabi_memcpy>:
100055a4:	4b01      	ldr	r3, [pc, #4]	; (100055ac <__wrap___aeabi_memcpy+0x8>)
100055a6:	685b      	ldr	r3, [r3, #4]
100055a8:	4718      	bx	r3
100055aa:	0000      	.short	0x0000
100055ac:	200013a0 	.word	0x200013a0

100055b0 <_Znwj>:
100055b0:	b510      	push	{r4, lr}
100055b2:	f7ff ff9b 	bl	100054ec <__wrap_malloc>
100055b6:	bd10      	pop	{r4, pc}

100055b8 <_ZdlPv>:
100055b8:	b510      	push	{r4, lr}
100055ba:	f7ff ffd5 	bl	10005568 <__wrap_free>
100055be:	bd10      	pop	{r4, pc}

100055c0 <_ZdlPvj>:
100055c0:	b510      	push	{r4, lr}
100055c2:	f7ff ffd1 	bl	10005568 <__wrap_free>
100055c6:	bd10      	pop	{r4, pc}

100055c8 <stdio_out_chars_no_crlf>:
100055c8:	b510      	push	{r4, lr}
100055ca:	0003      	movs	r3, r0
100055cc:	0008      	movs	r0, r1
100055ce:	0011      	movs	r1, r2
100055d0:	681b      	ldr	r3, [r3, #0]
100055d2:	4798      	blx	r3
100055d4:	bd10      	pop	{r4, pc}
	...

100055d8 <stdio_out_chars_crlf>:
100055d8:	b5f8      	push	{r3, r4, r5, r6, r7, lr}
100055da:	0007      	movs	r7, r0
100055dc:	000d      	movs	r5, r1
100055de:	0016      	movs	r6, r2
100055e0:	7d43      	ldrb	r3, [r0, #21]
100055e2:	2b00      	cmp	r3, #0
100055e4:	d002      	beq.n	100055ec <stdio_out_chars_crlf+0x14>
100055e6:	2400      	movs	r4, #0
100055e8:	2000      	movs	r0, #0
100055ea:	e00c      	b.n	10005606 <stdio_out_chars_crlf+0x2e>
100055ec:	6803      	ldr	r3, [r0, #0]
100055ee:	0011      	movs	r1, r2
100055f0:	0028      	movs	r0, r5
100055f2:	4798      	blx	r3
100055f4:	e02d      	b.n	10005652 <stdio_out_chars_crlf+0x7a>
100055f6:	7d3b      	ldrb	r3, [r7, #20]
100055f8:	e010      	b.n	1000561c <stdio_out_chars_crlf+0x44>
100055fa:	2102      	movs	r1, #2
100055fc:	4815      	ldr	r0, [pc, #84]	; (10005654 <stdio_out_chars_crlf+0x7c>)
100055fe:	683b      	ldr	r3, [r7, #0]
10005600:	4798      	blx	r3
10005602:	1c60      	adds	r0, r4, #1
10005604:	3401      	adds	r4, #1
10005606:	42b4      	cmp	r4, r6
10005608:	da14      	bge.n	10005634 <stdio_out_chars_crlf+0x5c>
1000560a:	2c00      	cmp	r4, #0
1000560c:	ddf3      	ble.n	100055f6 <stdio_out_chars_crlf+0x1e>
1000560e:	192b      	adds	r3, r5, r4
10005610:	3b01      	subs	r3, #1
10005612:	781b      	ldrb	r3, [r3, #0]
10005614:	3b0d      	subs	r3, #13
10005616:	425a      	negs	r2, r3
10005618:	4153      	adcs	r3, r2
1000561a:	b2db      	uxtb	r3, r3
1000561c:	5d2a      	ldrb	r2, [r5, r4]
1000561e:	2a0a      	cmp	r2, #10
10005620:	d1f0      	bne.n	10005604 <stdio_out_chars_crlf+0x2c>
10005622:	2b00      	cmp	r3, #0
10005624:	d1ee      	bne.n	10005604 <stdio_out_chars_crlf+0x2c>
10005626:	42a0      	cmp	r0, r4
10005628:	dae7      	bge.n	100055fa <stdio_out_chars_crlf+0x22>
1000562a:	1a21      	subs	r1, r4, r0
1000562c:	1828      	adds	r0, r5, r0
1000562e:	683b      	ldr	r3, [r7, #0]
10005630:	4798      	blx	r3
10005632:	e7e2      	b.n	100055fa <stdio_out_chars_crlf+0x22>
10005634:	42b0      	cmp	r0, r6
10005636:	da03      	bge.n	10005640 <stdio_out_chars_crlf+0x68>
10005638:	1a31      	subs	r1, r6, r0
1000563a:	1828      	adds	r0, r5, r0
1000563c:	683b      	ldr	r3, [r7, #0]
1000563e:	4798      	blx	r3
10005640:	2e00      	cmp	r6, #0
10005642:	dd06      	ble.n	10005652 <stdio_out_chars_crlf+0x7a>
10005644:	19ad      	adds	r5, r5, r6
10005646:	3d01      	subs	r5, #1
10005648:	782b      	ldrb	r3, [r5, #0]
1000564a:	3b0d      	subs	r3, #13
1000564c:	425a      	negs	r2, r3
1000564e:	4153      	adcs	r3, r2
10005650:	753b      	strb	r3, [r7, #20]
10005652:	bdf8      	pop	{r3, r4, r5, r6, r7, pc}
10005654:	10014988 	.word	0x10014988

10005658 <stdio_stack_buffer_flush>:
10005658:	b570      	push	{r4, r5, r6, lr}
1000565a:	0005      	movs	r5, r0
1000565c:	6803      	ldr	r3, [r0, #0]
1000565e:	2b00      	cmp	r3, #0
10005660:	d016      	beq.n	10005690 <stdio_stack_buffer_flush+0x38>
10005662:	4b0c      	ldr	r3, [pc, #48]	; (10005694 <stdio_stack_buffer_flush+0x3c>)
10005664:	681c      	ldr	r4, [r3, #0]
10005666:	e005      	b.n	10005674 <stdio_stack_buffer_flush+0x1c>
10005668:	0029      	movs	r1, r5
1000566a:	c904      	ldmia	r1!, {r2}
1000566c:	0020      	movs	r0, r4
1000566e:	f7ff ffb3 	bl	100055d8 <stdio_out_chars_crlf>
10005672:	6924      	ldr	r4, [r4, #16]
10005674:	2c00      	cmp	r4, #0
10005676:	d009      	beq.n	1000568c <stdio_stack_buffer_flush+0x34>
10005678:	6823      	ldr	r3, [r4, #0]
1000567a:	2b00      	cmp	r3, #0
1000567c:	d0f9      	beq.n	10005672 <stdio_stack_buffer_flush+0x1a>
1000567e:	4b06      	ldr	r3, [pc, #24]	; (10005698 <stdio_stack_buffer_flush+0x40>)
10005680:	681b      	ldr	r3, [r3, #0]
10005682:	2b00      	cmp	r3, #0
10005684:	d0f0      	beq.n	10005668 <stdio_stack_buffer_flush+0x10>
10005686:	42a3      	cmp	r3, r4
10005688:	d1f3      	bne.n	10005672 <stdio_stack_buffer_flush+0x1a>
1000568a:	e7ed      	b.n	10005668 <stdio_stack_buffer_flush+0x10>
1000568c:	2300      	movs	r3, #0
1000568e:	602b      	str	r3, [r5, #0]
10005690:	bd70      	pop	{r4, r5, r6, pc}
10005692:	46c0      	nop			; (mov r8, r8)
10005694:	20002040 	.word	0x20002040
10005698:	20002048 	.word	0x20002048

1000569c <stdio_buffered_printer>:
1000569c:	b570      	push	{r4, r5, r6, lr}
1000569e:	0005      	movs	r5, r0
100056a0:	000c      	movs	r4, r1
100056a2:	680b      	ldr	r3, [r1, #0]
100056a4:	2b80      	cmp	r3, #128	; 0x80
100056a6:	d005      	beq.n	100056b4 <stdio_buffered_printer+0x18>
100056a8:	6821      	ldr	r1, [r4, #0]
100056aa:	1c4b      	adds	r3, r1, #1
100056ac:	6023      	str	r3, [r4, #0]
100056ae:	1864      	adds	r4, r4, r1
100056b0:	7125      	strb	r5, [r4, #4]
100056b2:	bd70      	pop	{r4, r5, r6, pc}
100056b4:	0008      	movs	r0, r1
100056b6:	f7ff ffcf 	bl	10005658 <stdio_stack_buffer_flush>
100056ba:	e7f5      	b.n	100056a8 <stdio_buffered_printer+0xc>

100056bc <stdio_get_until>:
100056bc:	b5f0      	push	{r4, r5, r6, r7, lr}
100056be:	b083      	sub	sp, #12
100056c0:	0007      	movs	r7, r0
100056c2:	000e      	movs	r6, r1
100056c4:	9200      	str	r2, [sp, #0]
100056c6:	9301      	str	r3, [sp, #4]
100056c8:	e028      	b.n	1000571c <stdio_get_until+0x60>
100056ca:	68a3      	ldr	r3, [r4, #8]
100056cc:	2b00      	cmp	r3, #0
100056ce:	d004      	beq.n	100056da <stdio_get_until+0x1e>
100056d0:	0031      	movs	r1, r6
100056d2:	0038      	movs	r0, r7
100056d4:	4798      	blx	r3
100056d6:	2800      	cmp	r0, #0
100056d8:	dc27      	bgt.n	1000572a <stdio_get_until+0x6e>
100056da:	6924      	ldr	r4, [r4, #16]
100056dc:	2c00      	cmp	r4, #0
100056de:	d006      	beq.n	100056ee <stdio_get_until+0x32>
100056e0:	4b13      	ldr	r3, [pc, #76]	; (10005730 <stdio_get_until+0x74>)
100056e2:	681d      	ldr	r5, [r3, #0]
100056e4:	2d00      	cmp	r5, #0
100056e6:	d0f0      	beq.n	100056ca <stdio_get_until+0xe>
100056e8:	42a5      	cmp	r5, r4
100056ea:	d1f6      	bne.n	100056da <stdio_get_until+0x1e>
100056ec:	e7ed      	b.n	100056ca <stdio_get_until+0xe>
100056ee:	9900      	ldr	r1, [sp, #0]
100056f0:	9a01      	ldr	r2, [sp, #4]
100056f2:	4b10      	ldr	r3, [pc, #64]	; (10005734 <stdio_get_until+0x78>)
100056f4:	6a5b      	ldr	r3, [r3, #36]	; 0x24
100056f6:	429a      	cmp	r2, r3
100056f8:	d809      	bhi.n	1000570e <stdio_get_until+0x52>
100056fa:	480e      	ldr	r0, [pc, #56]	; (10005734 <stdio_get_until+0x78>)
100056fc:	6a80      	ldr	r0, [r0, #40]	; 0x28
100056fe:	4288      	cmp	r0, r1
10005700:	d20f      	bcs.n	10005722 <stdio_get_until+0x66>
10005702:	429a      	cmp	r2, r3
10005704:	d001      	beq.n	1000570a <stdio_get_until+0x4e>
10005706:	2301      	movs	r3, #1
10005708:	e002      	b.n	10005710 <stdio_get_until+0x54>
1000570a:	2300      	movs	r3, #0
1000570c:	e000      	b.n	10005710 <stdio_get_until+0x54>
1000570e:	2300      	movs	r3, #0
10005710:	2b00      	cmp	r3, #0
10005712:	d108      	bne.n	10005726 <stdio_get_until+0x6a>
10005714:	2001      	movs	r0, #1
10005716:	2100      	movs	r1, #0
10005718:	f7fc fdfe 	bl	10002318 <busy_wait_us>
1000571c:	4b06      	ldr	r3, [pc, #24]	; (10005738 <stdio_get_until+0x7c>)
1000571e:	681c      	ldr	r4, [r3, #0]
10005720:	e7dc      	b.n	100056dc <stdio_get_until+0x20>
10005722:	2301      	movs	r3, #1
10005724:	e7f4      	b.n	10005710 <stdio_get_until+0x54>
10005726:	2001      	movs	r0, #1
10005728:	4240      	negs	r0, r0
1000572a:	b003      	add	sp, #12
1000572c:	bdf0      	pop	{r4, r5, r6, r7, pc}
1000572e:	46c0      	nop			; (mov r8, r8)
10005730:	20002048 	.word	0x20002048
10005734:	40054000 	.word	0x40054000
10005738:	20002040 	.word	0x20002040

1000573c <stdout_serialize_begin>:
1000573c:	b510      	push	{r4, lr}
1000573e:	f7fc fdcb 	bl	100022d8 <time_us_64>
10005742:	0002      	movs	r2, r0
10005744:	1e0b      	subs	r3, r1, #0
10005746:	db0b      	blt.n	10005760 <stdout_serialize_begin+0x24>
10005748:	480d      	ldr	r0, [pc, #52]	; (10005780 <stdout_serialize_begin+0x44>)
1000574a:	2100      	movs	r1, #0
1000574c:	1812      	adds	r2, r2, r0
1000574e:	414b      	adcs	r3, r1
10005750:	2b00      	cmp	r3, #0
10005752:	db0b      	blt.n	1000576c <stdout_serialize_begin+0x30>
10005754:	2b00      	cmp	r3, #0
10005756:	db0d      	blt.n	10005774 <stdout_serialize_begin+0x38>
10005758:	480a      	ldr	r0, [pc, #40]	; (10005784 <stdout_serialize_begin+0x48>)
1000575a:	f00d fd71 	bl	10013240 <__mutex_try_enter_block_until_veneer>
1000575e:	bd10      	pop	{r4, pc}
10005760:	4b09      	ldr	r3, [pc, #36]	; (10005788 <stdout_serialize_begin+0x4c>)
10005762:	4a0a      	ldr	r2, [pc, #40]	; (1000578c <stdout_serialize_begin+0x50>)
10005764:	213f      	movs	r1, #63	; 0x3f
10005766:	480a      	ldr	r0, [pc, #40]	; (10005790 <stdout_serialize_begin+0x54>)
10005768:	f7fd fba0 	bl	10002eac <__assert_func>
1000576c:	2201      	movs	r2, #1
1000576e:	4252      	negs	r2, r2
10005770:	4b08      	ldr	r3, [pc, #32]	; (10005794 <stdout_serialize_begin+0x58>)
10005772:	e7ef      	b.n	10005754 <stdout_serialize_begin+0x18>
10005774:	4b04      	ldr	r3, [pc, #16]	; (10005788 <stdout_serialize_begin+0x4c>)
10005776:	4a05      	ldr	r2, [pc, #20]	; (1000578c <stdout_serialize_begin+0x50>)
10005778:	213f      	movs	r1, #63	; 0x3f
1000577a:	4805      	ldr	r0, [pc, #20]	; (10005790 <stdout_serialize_begin+0x54>)
1000577c:	f7fd fb96 	bl	10002eac <__assert_func>
10005780:	000f4240 	.word	0x000f4240
10005784:	20001c2c 	.word	0x20001c2c
10005788:	10013c1c 	.word	0x10013c1c
1000578c:	10014970 	.word	0x10014970
10005790:	10013c38 	.word	0x10013c38
10005794:	7fffffff 	.word	0x7fffffff

10005798 <stdout_serialize_end>:
10005798:	b510      	push	{r4, lr}
1000579a:	4802      	ldr	r0, [pc, #8]	; (100057a4 <stdout_serialize_end+0xc>)
1000579c:	f00d fd00 	bl	100131a0 <__mutex_exit_veneer>
100057a0:	bd10      	pop	{r4, pc}
100057a2:	46c0      	nop			; (mov r8, r8)
100057a4:	20001c2c 	.word	0x20001c2c

100057a8 <stdio_put_string>:
100057a8:	b5f0      	push	{r4, r5, r6, r7, lr}
100057aa:	46ce      	mov	lr, r9
100057ac:	4647      	mov	r7, r8
100057ae:	b580      	push	{r7, lr}
100057b0:	b083      	sub	sp, #12
100057b2:	0006      	movs	r6, r0
100057b4:	000d      	movs	r5, r1
100057b6:	4690      	mov	r8, r2
100057b8:	001c      	movs	r4, r3
100057ba:	f7ff ffbf 	bl	1000573c <stdout_serialize_begin>
100057be:	4681      	mov	r9, r0
100057c0:	1c6b      	adds	r3, r5, #1
100057c2:	d005      	beq.n	100057d0 <stdio_put_string+0x28>
100057c4:	2c00      	cmp	r4, #0
100057c6:	d008      	beq.n	100057da <stdio_put_string+0x32>
100057c8:	4f19      	ldr	r7, [pc, #100]	; (10005830 <stdio_put_string+0x88>)
100057ca:	4b1a      	ldr	r3, [pc, #104]	; (10005834 <stdio_put_string+0x8c>)
100057cc:	681c      	ldr	r4, [r3, #0]
100057ce:	e007      	b.n	100057e0 <stdio_put_string+0x38>
100057d0:	0030      	movs	r0, r6
100057d2:	f00c fef3 	bl	100125bc <strlen>
100057d6:	0005      	movs	r5, r0
100057d8:	e7f4      	b.n	100057c4 <stdio_put_string+0x1c>
100057da:	4f17      	ldr	r7, [pc, #92]	; (10005838 <stdio_put_string+0x90>)
100057dc:	e7f5      	b.n	100057ca <stdio_put_string+0x22>
100057de:	6924      	ldr	r4, [r4, #16]
100057e0:	2c00      	cmp	r4, #0
100057e2:	d017      	beq.n	10005814 <stdio_put_string+0x6c>
100057e4:	6823      	ldr	r3, [r4, #0]
100057e6:	2b00      	cmp	r3, #0
100057e8:	d0f9      	beq.n	100057de <stdio_put_string+0x36>
100057ea:	4b14      	ldr	r3, [pc, #80]	; (1000583c <stdio_put_string+0x94>)
100057ec:	681b      	ldr	r3, [r3, #0]
100057ee:	2b00      	cmp	r3, #0
100057f0:	d001      	beq.n	100057f6 <stdio_put_string+0x4e>
100057f2:	42a3      	cmp	r3, r4
100057f4:	d1f3      	bne.n	100057de <stdio_put_string+0x36>
100057f6:	002a      	movs	r2, r5
100057f8:	0031      	movs	r1, r6
100057fa:	0020      	movs	r0, r4
100057fc:	47b8      	blx	r7
100057fe:	4643      	mov	r3, r8
10005800:	2b00      	cmp	r3, #0
10005802:	d0ec      	beq.n	100057de <stdio_put_string+0x36>
10005804:	466b      	mov	r3, sp
10005806:	1dd9      	adds	r1, r3, #7
10005808:	230a      	movs	r3, #10
1000580a:	700b      	strb	r3, [r1, #0]
1000580c:	2201      	movs	r2, #1
1000580e:	0020      	movs	r0, r4
10005810:	47b8      	blx	r7
10005812:	e7e4      	b.n	100057de <stdio_put_string+0x36>
10005814:	464b      	mov	r3, r9
10005816:	2b00      	cmp	r3, #0
10005818:	d107      	bne.n	1000582a <stdio_put_string+0x82>
1000581a:	1e6b      	subs	r3, r5, #1
1000581c:	419d      	sbcs	r5, r3
1000581e:	b2e8      	uxtb	r0, r5
10005820:	b003      	add	sp, #12
10005822:	bcc0      	pop	{r6, r7}
10005824:	46b9      	mov	r9, r7
10005826:	46b0      	mov	r8, r6
10005828:	bdf0      	pop	{r4, r5, r6, r7, pc}
1000582a:	f7ff ffb5 	bl	10005798 <stdout_serialize_end>
1000582e:	e7f4      	b.n	1000581a <stdio_put_string+0x72>
10005830:	100055c9 	.word	0x100055c9
10005834:	20002040 	.word	0x20002040
10005838:	100055d9 	.word	0x100055d9
1000583c:	20002048 	.word	0x20002048

10005840 <_read>:
10005840:	b510      	push	{r4, lr}
10005842:	0003      	movs	r3, r0
10005844:	0008      	movs	r0, r1
10005846:	0011      	movs	r1, r2
10005848:	2b00      	cmp	r3, #0
1000584a:	d105      	bne.n	10005858 <_read+0x18>
1000584c:	4b04      	ldr	r3, [pc, #16]	; (10005860 <_read+0x20>)
1000584e:	681a      	ldr	r2, [r3, #0]
10005850:	685b      	ldr	r3, [r3, #4]
10005852:	f7ff ff33 	bl	100056bc <stdio_get_until>
10005856:	bd10      	pop	{r4, pc}
10005858:	2001      	movs	r0, #1
1000585a:	4240      	negs	r0, r0
1000585c:	e7fb      	b.n	10005856 <_read+0x16>
1000585e:	46c0      	nop			; (mov r8, r8)
10005860:	10014070 	.word	0x10014070

10005864 <_write>:
10005864:	b510      	push	{r4, lr}
10005866:	0003      	movs	r3, r0
10005868:	0008      	movs	r0, r1
1000586a:	0014      	movs	r4, r2
1000586c:	3b01      	subs	r3, #1
1000586e:	2b01      	cmp	r3, #1
10005870:	d806      	bhi.n	10005880 <_write+0x1c>
10005872:	2300      	movs	r3, #0
10005874:	2200      	movs	r2, #0
10005876:	0021      	movs	r1, r4
10005878:	f7ff ff96 	bl	100057a8 <stdio_put_string>
1000587c:	0020      	movs	r0, r4
1000587e:	bd10      	pop	{r4, pc}
10005880:	2001      	movs	r0, #1
10005882:	4240      	negs	r0, r0
10005884:	e7fb      	b.n	1000587e <_write+0x1a>

10005886 <_close>:
10005886:	2001      	movs	r0, #1
10005888:	4240      	negs	r0, r0
1000588a:	4770      	bx	lr

1000588c <_lseek>:
1000588c:	2001      	movs	r0, #1
1000588e:	4240      	negs	r0, r0
10005890:	4770      	bx	lr

10005892 <_fstat>:
10005892:	2001      	movs	r0, #1
10005894:	4240      	negs	r0, r0
10005896:	4770      	bx	lr

10005898 <_isatty>:
10005898:	0003      	movs	r3, r0
1000589a:	2000      	movs	r0, #0
1000589c:	2202      	movs	r2, #2
1000589e:	429a      	cmp	r2, r3
100058a0:	4140      	adcs	r0, r0
100058a2:	4770      	bx	lr

100058a4 <stdio_set_driver_enabled>:
100058a4:	4a09      	ldr	r2, [pc, #36]	; (100058cc <stdio_set_driver_enabled+0x28>)
100058a6:	e001      	b.n	100058ac <stdio_set_driver_enabled+0x8>
100058a8:	3310      	adds	r3, #16
100058aa:	001a      	movs	r2, r3
100058ac:	6813      	ldr	r3, [r2, #0]
100058ae:	2b00      	cmp	r3, #0
100058b0:	d008      	beq.n	100058c4 <stdio_set_driver_enabled+0x20>
100058b2:	4283      	cmp	r3, r0
100058b4:	d1f8      	bne.n	100058a8 <stdio_set_driver_enabled+0x4>
100058b6:	2900      	cmp	r1, #0
100058b8:	d107      	bne.n	100058ca <stdio_set_driver_enabled+0x26>
100058ba:	6903      	ldr	r3, [r0, #16]
100058bc:	6013      	str	r3, [r2, #0]
100058be:	2300      	movs	r3, #0
100058c0:	6103      	str	r3, [r0, #16]
100058c2:	e002      	b.n	100058ca <stdio_set_driver_enabled+0x26>
100058c4:	2900      	cmp	r1, #0
100058c6:	d000      	beq.n	100058ca <stdio_set_driver_enabled+0x26>
100058c8:	6010      	str	r0, [r2, #0]
100058ca:	4770      	bx	lr
100058cc:	20002040 	.word	0x20002040

100058d0 <stdio_flush>:
100058d0:	b510      	push	{r4, lr}
100058d2:	4b06      	ldr	r3, [pc, #24]	; (100058ec <stdio_flush+0x1c>)
100058d4:	681c      	ldr	r4, [r3, #0]
100058d6:	e001      	b.n	100058dc <stdio_flush+0xc>
100058d8:	4798      	blx	r3
100058da:	6924      	ldr	r4, [r4, #16]
100058dc:	2c00      	cmp	r4, #0
100058de:	d003      	beq.n	100058e8 <stdio_flush+0x18>
100058e0:	6863      	ldr	r3, [r4, #4]
100058e2:	2b00      	cmp	r3, #0
100058e4:	d1f8      	bne.n	100058d8 <stdio_flush+0x8>
100058e6:	e7f8      	b.n	100058da <stdio_flush+0xa>
100058e8:	bd10      	pop	{r4, pc}
100058ea:	46c0      	nop			; (mov r8, r8)
100058ec:	20002040 	.word	0x20002040

100058f0 <__wrap_puts>:
100058f0:	b570      	push	{r4, r5, r6, lr}
100058f2:	0005      	movs	r5, r0
100058f4:	f00c fe62 	bl	100125bc <strlen>
100058f8:	0004      	movs	r4, r0
100058fa:	2300      	movs	r3, #0
100058fc:	2201      	movs	r2, #1
100058fe:	0001      	movs	r1, r0
10005900:	0028      	movs	r0, r5
10005902:	f7ff ff51 	bl	100057a8 <stdio_put_string>
10005906:	f7ff ffe3 	bl	100058d0 <stdio_flush>
1000590a:	0020      	movs	r0, r4
1000590c:	bd70      	pop	{r4, r5, r6, pc}
	...

10005910 <__wrap_vprintf>:
10005910:	b570      	push	{r4, r5, r6, lr}
10005912:	b0a2      	sub	sp, #136	; 0x88
10005914:	0004      	movs	r4, r0
10005916:	000e      	movs	r6, r1
10005918:	f7ff ff10 	bl	1000573c <stdout_serialize_begin>
1000591c:	0005      	movs	r5, r0
1000591e:	2300      	movs	r3, #0
10005920:	9301      	str	r3, [sp, #4]
10005922:	0033      	movs	r3, r6
10005924:	0022      	movs	r2, r4
10005926:	a901      	add	r1, sp, #4
10005928:	4808      	ldr	r0, [pc, #32]	; (1000594c <__wrap_vprintf+0x3c>)
1000592a:	f7fe fc1f 	bl	1000416c <vfctprintf>
1000592e:	0004      	movs	r4, r0
10005930:	a801      	add	r0, sp, #4
10005932:	f7ff fe91 	bl	10005658 <stdio_stack_buffer_flush>
10005936:	f7ff ffcb 	bl	100058d0 <stdio_flush>
1000593a:	2d00      	cmp	r5, #0
1000593c:	d102      	bne.n	10005944 <__wrap_vprintf+0x34>
1000593e:	0020      	movs	r0, r4
10005940:	b022      	add	sp, #136	; 0x88
10005942:	bd70      	pop	{r4, r5, r6, pc}
10005944:	f7ff ff28 	bl	10005798 <stdout_serialize_end>
10005948:	e7f9      	b.n	1000593e <__wrap_vprintf+0x2e>
1000594a:	46c0      	nop			; (mov r8, r8)
1000594c:	1000569d 	.word	0x1000569d

10005950 <__wrap_printf>:
10005950:	b40f      	push	{r0, r1, r2, r3}
10005952:	b500      	push	{lr}
10005954:	b083      	sub	sp, #12
10005956:	a904      	add	r1, sp, #16
10005958:	c901      	ldmia	r1!, {r0}
1000595a:	9101      	str	r1, [sp, #4]
1000595c:	f7ff ffd8 	bl	10005910 <__wrap_vprintf>
10005960:	b003      	add	sp, #12
10005962:	bc08      	pop	{r3}
10005964:	b004      	add	sp, #16
10005966:	4718      	bx	r3

10005968 <stdio_init_all>:
10005968:	b510      	push	{r4, lr}
1000596a:	f000 f8f9 	bl	10005b60 <stdio_uart_init>
1000596e:	2001      	movs	r0, #1
10005970:	bd10      	pop	{r4, pc}
	...

10005974 <stdio_uart_out_chars>:
10005974:	b5f0      	push	{r4, r5, r6, r7, lr}
10005976:	b083      	sub	sp, #12
10005978:	0005      	movs	r5, r0
1000597a:	000e      	movs	r6, r1
1000597c:	2400      	movs	r4, #0
1000597e:	e00f      	b.n	100059a0 <stdio_uart_out_chars+0x2c>
10005980:	466b      	mov	r3, sp
10005982:	1dd9      	adds	r1, r3, #7
10005984:	230d      	movs	r3, #13
10005986:	700b      	strb	r3, [r1, #0]
10005988:	2000      	movs	r0, #0
1000598a:	2800      	cmp	r0, #0
1000598c:	d116      	bne.n	100059bc <stdio_uart_out_chars+0x48>
1000598e:	6993      	ldr	r3, [r2, #24]
10005990:	069b      	lsls	r3, r3, #26
10005992:	d4fc      	bmi.n	1000598e <stdio_uart_out_chars+0x1a>
10005994:	780b      	ldrb	r3, [r1, #0]
10005996:	6013      	str	r3, [r2, #0]
10005998:	3001      	adds	r0, #1
1000599a:	3101      	adds	r1, #1
1000599c:	e7f5      	b.n	1000598a <stdio_uart_out_chars+0x16>
1000599e:	3401      	adds	r4, #1
100059a0:	42b4      	cmp	r4, r6
100059a2:	da19      	bge.n	100059d8 <stdio_uart_out_chars+0x64>
100059a4:	4b0d      	ldr	r3, [pc, #52]	; (100059dc <stdio_uart_out_chars+0x68>)
100059a6:	681a      	ldr	r2, [r3, #0]
100059a8:	5d2f      	ldrb	r7, [r5, r4]
100059aa:	4b0d      	ldr	r3, [pc, #52]	; (100059e0 <stdio_uart_out_chars+0x6c>)
100059ac:	18d3      	adds	r3, r2, r3
100059ae:	4259      	negs	r1, r3
100059b0:	414b      	adcs	r3, r1
100059b2:	005b      	lsls	r3, r3, #1
100059b4:	490b      	ldr	r1, [pc, #44]	; (100059e4 <stdio_uart_out_chars+0x70>)
100059b6:	5e5b      	ldrsh	r3, [r3, r1]
100059b8:	42bb      	cmp	r3, r7
100059ba:	d0e1      	beq.n	10005980 <stdio_uart_out_chars+0xc>
100059bc:	466b      	mov	r3, sp
100059be:	1dd9      	adds	r1, r3, #7
100059c0:	700f      	strb	r7, [r1, #0]
100059c2:	2000      	movs	r0, #0
100059c4:	2800      	cmp	r0, #0
100059c6:	d1ea      	bne.n	1000599e <stdio_uart_out_chars+0x2a>
100059c8:	6993      	ldr	r3, [r2, #24]
100059ca:	069b      	lsls	r3, r3, #26
100059cc:	d4fc      	bmi.n	100059c8 <stdio_uart_out_chars+0x54>
100059ce:	780b      	ldrb	r3, [r1, #0]
100059d0:	6013      	str	r3, [r2, #0]
100059d2:	3001      	adds	r0, #1
100059d4:	3101      	adds	r1, #1
100059d6:	e7f5      	b.n	100059c4 <stdio_uart_out_chars+0x50>
100059d8:	b003      	add	sp, #12
100059da:	bdf0      	pop	{r4, r5, r6, r7, pc}
100059dc:	20002528 	.word	0x20002528
100059e0:	bffc8000 	.word	0xbffc8000
100059e4:	20002524 	.word	0x20002524

100059e8 <stdio_uart_in_chars>:
100059e8:	b5f0      	push	{r4, r5, r6, r7, lr}
100059ea:	b083      	sub	sp, #12
100059ec:	0006      	movs	r6, r0
100059ee:	000f      	movs	r7, r1
100059f0:	2500      	movs	r5, #0
100059f2:	e004      	b.n	100059fe <stdio_uart_in_chars+0x16>
100059f4:	466b      	mov	r3, sp
100059f6:	3307      	adds	r3, #7
100059f8:	781b      	ldrb	r3, [r3, #0]
100059fa:	702b      	strb	r3, [r5, #0]
100059fc:	0025      	movs	r5, r4
100059fe:	42bd      	cmp	r5, r7
10005a00:	da15      	bge.n	10005a2e <stdio_uart_in_chars+0x46>
10005a02:	4b17      	ldr	r3, [pc, #92]	; (10005a60 <stdio_uart_in_chars+0x78>)
10005a04:	681a      	ldr	r2, [r3, #0]
10005a06:	6993      	ldr	r3, [r2, #24]
10005a08:	2410      	movs	r4, #16
10005a0a:	0021      	movs	r1, r4
10005a0c:	4019      	ands	r1, r3
10005a0e:	421c      	tst	r4, r3
10005a10:	d10d      	bne.n	10005a2e <stdio_uart_in_chars+0x46>
10005a12:	1c6c      	adds	r4, r5, #1
10005a14:	1975      	adds	r5, r6, r5
10005a16:	466b      	mov	r3, sp
10005a18:	1dd8      	adds	r0, r3, #7
10005a1a:	2900      	cmp	r1, #0
10005a1c:	d1ea      	bne.n	100059f4 <stdio_uart_in_chars+0xc>
10005a1e:	6993      	ldr	r3, [r2, #24]
10005a20:	06db      	lsls	r3, r3, #27
10005a22:	d4fc      	bmi.n	10005a1e <stdio_uart_in_chars+0x36>
10005a24:	6813      	ldr	r3, [r2, #0]
10005a26:	7003      	strb	r3, [r0, #0]
10005a28:	3101      	adds	r1, #1
10005a2a:	3001      	adds	r0, #1
10005a2c:	e7f5      	b.n	10005a1a <stdio_uart_in_chars+0x32>
10005a2e:	4b0d      	ldr	r3, [pc, #52]	; (10005a64 <stdio_uart_in_chars+0x7c>)
10005a30:	681b      	ldr	r3, [r3, #0]
10005a32:	2b00      	cmp	r3, #0
10005a34:	d00c      	beq.n	10005a50 <stdio_uart_in_chars+0x68>
10005a36:	4b0a      	ldr	r3, [pc, #40]	; (10005a60 <stdio_uart_in_chars+0x78>)
10005a38:	681a      	ldr	r2, [r3, #0]
10005a3a:	2350      	movs	r3, #80	; 0x50
10005a3c:	6393      	str	r3, [r2, #56]	; 0x38
10005a3e:	0011      	movs	r1, r2
10005a40:	3134      	adds	r1, #52	; 0x34
10005a42:	6b53      	ldr	r3, [r2, #52]	; 0x34
10005a44:	2238      	movs	r2, #56	; 0x38
10005a46:	401a      	ands	r2, r3
10005a48:	2380      	movs	r3, #128	; 0x80
10005a4a:	015b      	lsls	r3, r3, #5
10005a4c:	430b      	orrs	r3, r1
10005a4e:	601a      	str	r2, [r3, #0]
10005a50:	2d00      	cmp	r5, #0
10005a52:	d002      	beq.n	10005a5a <stdio_uart_in_chars+0x72>
10005a54:	0028      	movs	r0, r5
10005a56:	b003      	add	sp, #12
10005a58:	bdf0      	pop	{r4, r5, r6, r7, pc}
10005a5a:	3d03      	subs	r5, #3
10005a5c:	e7fa      	b.n	10005a54 <stdio_uart_in_chars+0x6c>
10005a5e:	46c0      	nop			; (mov r8, r8)
